# SymbolsHelper-Confirmed: 6.4.0 amd64
libQt63DAnimation.so.6 libqt63danimation6 #MINVER#
* Build-Depends-Package: qt6-3d-dev
 _ZGVZN9QMetaType21registerConverterImplI5QListIfE9QIterableI13QMetaSequenceEEEbSt8functionIFbPKvPvEES_S_E10unregister@Base 6.2.1
 _ZGVZN9QMetaType23registerMutableViewImplI5QListIfE9QIterableI13QMetaSequenceEEEbSt8functionIFbPvS7_EES_S_E10unregister@Base 6.2.1
 _ZN13QMetaSequence12MetaSequenceI5QListIfEE5valueE@Base 6.2.1
 _ZN13Qt3DAnimation12QMorphTarget11qt_metacallEN11QMetaObject4CallEiPPv@Base 6.2.1
 _ZN13Qt3DAnimation12QMorphTarget11qt_metacastEPKc@Base 6.2.1
 _ZN13Qt3DAnimation12QMorphTarget12addAttributeEPN8Qt3DCore10QAttributeE@Base 6.2.1
 _ZN13Qt3DAnimation12QMorphTarget12fromGeometryEPN8Qt3DCore9QGeometryERK5QListI7QStringE@Base 6.2.1
 _ZN13Qt3DAnimation12QMorphTarget13setAttributesERK5QListIPN8Qt3DCore10QAttributeEE@Base 6.2.1
 _ZN13Qt3DAnimation12QMorphTarget15removeAttributeEPN8Qt3DCore10QAttributeE@Base 6.2.1
 _ZN13Qt3DAnimation12QMorphTarget16staticMetaObjectE@Base 6.2.1
 _ZN13Qt3DAnimation12QMorphTarget21attributeNamesChangedERK5QListI7QStringE@Base 6.2.1
 _ZN13Qt3DAnimation12QMorphTargetC1EP7QObject@Base 6.2.1
 _ZN13Qt3DAnimation12QMorphTargetC2EP7QObject@Base 6.2.1
 _ZN13Qt3DAnimation13QClipAnimator11clipChangedEPNS_22QAbstractAnimationClipE@Base 6.2.1
 _ZN13Qt3DAnimation13QClipAnimator11qt_metacallEN11QMetaObject4CallEiPPv@Base 6.2.1
 _ZN13Qt3DAnimation13QClipAnimator11qt_metacastEPKc@Base 6.2.1
 _ZN13Qt3DAnimation13QClipAnimator16staticMetaObjectE@Base 6.2.1
 _ZN13Qt3DAnimation13QClipAnimator7setClipEPNS_22QAbstractAnimationClipE@Base 6.2.1
 _ZN13Qt3DAnimation13QClipAnimatorC1EPN8Qt3DCore5QNodeE@Base 6.2.1
 _ZN13Qt3DAnimation13QClipAnimatorC1ERNS_20QClipAnimatorPrivateEPN8Qt3DCore5QNodeE@Base 6.2.1
 _ZN13Qt3DAnimation13QClipAnimatorC2EPN8Qt3DCore5QNodeE@Base 6.2.1
 _ZN13Qt3DAnimation13QClipAnimatorC2ERNS_20QClipAnimatorPrivateEPN8Qt3DCore5QNodeE@Base 6.2.1
 _ZN13Qt3DAnimation13QClipAnimatorD0Ev@Base 6.2.1
 _ZN13Qt3DAnimation13QClipAnimatorD1Ev@Base 6.2.1
 _ZN13Qt3DAnimation13QClipAnimatorD2Ev@Base 6.2.1
 _ZN13Qt3DAnimation14QAnimationClip11qt_metacallEN11QMetaObject4CallEiPPv@Base 6.2.1
 _ZN13Qt3DAnimation14QAnimationClip11qt_metacastEPKc@Base 6.2.1
 _ZN13Qt3DAnimation14QAnimationClip11setClipDataERKNS_18QAnimationClipDataE@Base 6.2.1
 _ZN13Qt3DAnimation14QAnimationClip15clipDataChangedENS_18QAnimationClipDataE@Base 6.2.1
 _ZN13Qt3DAnimation14QAnimationClip16staticMetaObjectE@Base 6.2.1
 _ZN13Qt3DAnimation14QAnimationClipC1EPN8Qt3DCore5QNodeE@Base 6.2.1
 _ZN13Qt3DAnimation14QAnimationClipC1ERNS_21QAnimationClipPrivateEPN8Qt3DCore5QNodeE@Base 6.2.1
 _ZN13Qt3DAnimation14QAnimationClipC2EPN8Qt3DCore5QNodeE@Base 6.2.1
 _ZN13Qt3DAnimation14QAnimationClipC2ERNS_21QAnimationClipPrivateEPN8Qt3DCore5QNodeE@Base 6.2.1
 _ZN13Qt3DAnimation14QAnimationClipD0Ev@Base 6.2.1
 _ZN13Qt3DAnimation14QAnimationClipD1Ev@Base 6.2.1
 _ZN13Qt3DAnimation14QAnimationClipD2Ev@Base 6.2.1
 _ZN13Qt3DAnimation14QChannelMapper10addMappingEPNS_23QAbstractChannelMappingE@Base 6.2.1
 _ZN13Qt3DAnimation14QChannelMapper11qt_metacallEN11QMetaObject4CallEiPPv@Base 6.2.1
 _ZN13Qt3DAnimation14QChannelMapper11qt_metacastEPKc@Base 6.2.1
 _ZN13Qt3DAnimation14QChannelMapper13removeMappingEPNS_23QAbstractChannelMappingE@Base 6.2.1
 _ZN13Qt3DAnimation14QChannelMapper16staticMetaObjectE@Base 6.2.1
 _ZN13Qt3DAnimation14QChannelMapperC1EPN8Qt3DCore5QNodeE@Base 6.2.1
 _ZN13Qt3DAnimation14QChannelMapperC1ERNS_21QChannelMapperPrivateEPN8Qt3DCore5QNodeE@Base 6.2.1
 _ZN13Qt3DAnimation14QChannelMapperC2EPN8Qt3DCore5QNodeE@Base 6.2.1
 _ZN13Qt3DAnimation14QChannelMapperC2ERNS_21QChannelMapperPrivateEPN8Qt3DCore5QNodeE@Base 6.2.1
 _ZN13Qt3DAnimation14QChannelMapperD0Ev@Base 6.2.1
 _ZN13Qt3DAnimation14QChannelMapperD1Ev@Base 6.2.1
 _ZN13Qt3DAnimation14QChannelMapperD2Ev@Base 6.2.1
 _ZN13Qt3DAnimation14QLerpClipBlend10setEndClipEPNS_22QAbstractClipBlendNodeE@Base 6.2.1
 _ZN13Qt3DAnimation14QLerpClipBlend11qt_metacallEN11QMetaObject4CallEiPPv@Base 6.2.1
 _ZN13Qt3DAnimation14QLerpClipBlend11qt_metacastEPKc@Base 6.2.1
 _ZN13Qt3DAnimation14QLerpClipBlend12setStartClipEPNS_22QAbstractClipBlendNodeE@Base 6.2.1
 _ZN13Qt3DAnimation14QLerpClipBlend14endClipChangedEPNS_22QAbstractClipBlendNodeE@Base 6.2.1
 _ZN13Qt3DAnimation14QLerpClipBlend14setBlendFactorEf@Base 6.2.1
 _ZN13Qt3DAnimation14QLerpClipBlend16startClipChangedEPNS_22QAbstractClipBlendNodeE@Base 6.2.1
 _ZN13Qt3DAnimation14QLerpClipBlend16staticMetaObjectE@Base 6.2.1
 _ZN13Qt3DAnimation14QLerpClipBlend18blendFactorChangedEf@Base 6.2.1
 _ZN13Qt3DAnimation14QLerpClipBlendC1EPN8Qt3DCore5QNodeE@Base 6.2.1
 _ZN13Qt3DAnimation14QLerpClipBlendC1ERNS_21QLerpClipBlendPrivateEPN8Qt3DCore5QNodeE@Base 6.2.1
 _ZN13Qt3DAnimation14QLerpClipBlendC2EPN8Qt3DCore5QNodeE@Base 6.2.1
 _ZN13Qt3DAnimation14QLerpClipBlendC2ERNS_21QLerpClipBlendPrivateEPN8Qt3DCore5QNodeE@Base 6.2.1
 _ZN13Qt3DAnimation14QLerpClipBlendD0Ev@Base 6.2.1
 _ZN13Qt3DAnimation14QLerpClipBlendD1Ev@Base 6.2.1
 _ZN13Qt3DAnimation14QLerpClipBlendD2Ev@Base 6.2.1
 _ZN13Qt3DAnimation15QAnimationGroup11nameChangedERK7QString@Base 6.2.1
 _ZN13Qt3DAnimation15QAnimationGroup11qt_metacallEN11QMetaObject4CallEiPPv@Base 6.2.1
 _ZN13Qt3DAnimation15QAnimationGroup11qt_metacastEPKc@Base 6.2.1
 _ZN13Qt3DAnimation15QAnimationGroup11setPositionEf@Base 6.2.1
 _ZN13Qt3DAnimation15QAnimationGroup12addAnimationEPNS_18QAbstractAnimationE@Base 6.2.1
 _ZN13Qt3DAnimation15QAnimationGroup13animationListEv@Base 6.2.1
 _ZN13Qt3DAnimation15QAnimationGroup13setAnimationsERK5QListIPNS_18QAbstractAnimationEE@Base 6.2.1
 _ZN13Qt3DAnimation15QAnimationGroup15durationChangedEf@Base 6.2.1
 _ZN13Qt3DAnimation15QAnimationGroup15positionChangedEf@Base 6.2.1
 _ZN13Qt3DAnimation15QAnimationGroup15removeAnimationEPNS_18QAbstractAnimationE@Base 6.2.1
 _ZN13Qt3DAnimation15QAnimationGroup16staticMetaObjectE@Base 6.2.1
 _ZN13Qt3DAnimation15QAnimationGroup7setNameERK7QString@Base 6.2.1
 _ZN13Qt3DAnimation15QAnimationGroupC1EP7QObject@Base 6.2.1
 _ZN13Qt3DAnimation15QAnimationGroupC2EP7QObject@Base 6.2.1
 _ZN13Qt3DAnimation15QChannelMapping11qt_metacallEN11QMetaObject4CallEiPPv@Base 6.2.1
 _ZN13Qt3DAnimation15QChannelMapping11qt_metacastEPKc@Base 6.2.1
 _ZN13Qt3DAnimation15QChannelMapping11setPropertyERK7QString@Base 6.2.1
 _ZN13Qt3DAnimation15QChannelMapping13targetChangedEPN8Qt3DCore5QNodeE@Base 6.2.1
 _ZN13Qt3DAnimation15QChannelMapping14setChannelNameERK7QString@Base 6.2.1
 _ZN13Qt3DAnimation15QChannelMapping15propertyChangedE7QString@Base 6.2.1
 _ZN13Qt3DAnimation15QChannelMapping16staticMetaObjectE@Base 6.2.1
 _ZN13Qt3DAnimation15QChannelMapping18channelNameChangedE7QString@Base 6.2.1
 _ZN13Qt3DAnimation15QChannelMapping9setTargetEPN8Qt3DCore5QNodeE@Base 6.2.1
 _ZN13Qt3DAnimation15QChannelMappingC1EPN8Qt3DCore5QNodeE@Base 6.2.1
 _ZN13Qt3DAnimation15QChannelMappingC1ERNS_22QChannelMappingPrivateEPN8Qt3DCore5QNodeE@Base 6.2.1
 _ZN13Qt3DAnimation15QChannelMappingC2EPN8Qt3DCore5QNodeE@Base 6.2.1
 _ZN13Qt3DAnimation15QChannelMappingC2ERNS_22QChannelMappingPrivateEPN8Qt3DCore5QNodeE@Base 6.2.1
 _ZN13Qt3DAnimation15QChannelMappingD0Ev@Base 6.2.1
 _ZN13Qt3DAnimation15QChannelMappingD1Ev@Base 6.2.1
 _ZN13Qt3DAnimation15QChannelMappingD2Ev@Base 6.2.1
 _ZN13Qt3DAnimation15QClipBlendValue11clipChangedEPNS_22QAbstractAnimationClipE@Base 6.2.1
 _ZN13Qt3DAnimation15QClipBlendValue11qt_metacallEN11QMetaObject4CallEiPPv@Base 6.2.1
 _ZN13Qt3DAnimation15QClipBlendValue11qt_metacastEPKc@Base 6.2.1
 _ZN13Qt3DAnimation15QClipBlendValue16staticMetaObjectE@Base 6.2.1
 _ZN13Qt3DAnimation15QClipBlendValue7setClipEPNS_22QAbstractAnimationClipE@Base 6.2.1
 _ZN13Qt3DAnimation15QClipBlendValueC1EPN8Qt3DCore5QNodeE@Base 6.2.1
 _ZN13Qt3DAnimation15QClipBlendValueC1EPNS_22QAbstractAnimationClipEPN8Qt3DCore5QNodeE@Base 6.2.1
 _ZN13Qt3DAnimation15QClipBlendValueC1ERNS_22QClipBlendValuePrivateEPN8Qt3DCore5QNodeE@Base 6.2.1
 _ZN13Qt3DAnimation15QClipBlendValueC2EPN8Qt3DCore5QNodeE@Base 6.2.1
 _ZN13Qt3DAnimation15QClipBlendValueC2EPNS_22QAbstractAnimationClipEPN8Qt3DCore5QNodeE@Base 6.2.1
 _ZN13Qt3DAnimation15QClipBlendValueC2ERNS_22QClipBlendValuePrivateEPN8Qt3DCore5QNodeE@Base 6.2.1
 _ZN13Qt3DAnimation15QClipBlendValueD0Ev@Base 6.2.1
 _ZN13Qt3DAnimation15QClipBlendValueD1Ev@Base 6.2.1
 _ZN13Qt3DAnimation15QClipBlendValueD2Ev@Base 6.2.1
 _ZN13Qt3DAnimation16QAnimationAspect11qt_metacallEN11QMetaObject4CallEiPPv@Base 6.2.1
 _ZN13Qt3DAnimation16QAnimationAspect11qt_metacastEPKc@Base 6.2.1
 _ZN13Qt3DAnimation16QAnimationAspect13jobsToExecuteEx@Base 6.2.1
 _ZN13Qt3DAnimation16QAnimationAspect16staticMetaObjectE@Base 6.2.1
 _ZN13Qt3DAnimation16QAnimationAspectC1EP7QObject@Base 6.2.1
 _ZN13Qt3DAnimation16QAnimationAspectC1ERNS_23QAnimationAspectPrivateEP7QObject@Base 6.2.1
 _ZN13Qt3DAnimation16QAnimationAspectC2EP7QObject@Base 6.2.1
 _ZN13Qt3DAnimation16QAnimationAspectC2ERNS_23QAnimationAspectPrivateEP7QObject@Base 6.2.1
 _ZN13Qt3DAnimation16QAnimationAspectD0Ev@Base 6.2.1
 _ZN13Qt3DAnimation16QAnimationAspectD1Ev@Base 6.2.1
 _ZN13Qt3DAnimation16QAnimationAspectD2Ev@Base 6.2.1
 _ZN13Qt3DAnimation16QCallbackMapping11qt_metacallEN11QMetaObject4CallEiPPv@Base 6.2.1
 _ZN13Qt3DAnimation16QCallbackMapping11qt_metacastEPKc@Base 6.2.1
 _ZN13Qt3DAnimation16QCallbackMapping11setCallbackEiPNS_18QAnimationCallbackE6QFlagsINS1_4FlagEE@Base 6.2.1
 _ZN13Qt3DAnimation16QCallbackMapping14setChannelNameERK7QString@Base 6.2.1
 _ZN13Qt3DAnimation16QCallbackMapping16staticMetaObjectE@Base 6.2.1
 _ZN13Qt3DAnimation16QCallbackMapping18channelNameChangedE7QString@Base 6.2.1
 _ZN13Qt3DAnimation16QCallbackMappingC1EPN8Qt3DCore5QNodeE@Base 6.2.1
 _ZN13Qt3DAnimation16QCallbackMappingC1ERNS_23QCallbackMappingPrivateEPN8Qt3DCore5QNodeE@Base 6.2.1
 _ZN13Qt3DAnimation16QCallbackMappingC2EPN8Qt3DCore5QNodeE@Base 6.2.1
 _ZN13Qt3DAnimation16QCallbackMappingC2ERNS_23QCallbackMappingPrivateEPN8Qt3DCore5QNodeE@Base 6.2.1
 _ZN13Qt3DAnimation16QCallbackMappingD0Ev@Base 6.2.1
 _ZN13Qt3DAnimation16QCallbackMappingD1Ev@Base 6.2.1
 _ZN13Qt3DAnimation16QCallbackMappingD2Ev@Base 6.2.1
 _ZN13Qt3DAnimation16QSkeletonMapping11qt_metacallEN11QMetaObject4CallEiPPv@Base 6.2.1
 _ZN13Qt3DAnimation16QSkeletonMapping11qt_metacastEPKc@Base 6.2.1
 _ZN13Qt3DAnimation16QSkeletonMapping11setSkeletonEPN8Qt3DCore17QAbstractSkeletonE@Base 6.2.1
 _ZN13Qt3DAnimation16QSkeletonMapping15skeletonChangedEPN8Qt3DCore17QAbstractSkeletonE@Base 6.2.1
 _ZN13Qt3DAnimation16QSkeletonMapping16staticMetaObjectE@Base 6.2.1
 _ZN13Qt3DAnimation16QSkeletonMappingC1EPN8Qt3DCore5QNodeE@Base 6.2.1
 _ZN13Qt3DAnimation16QSkeletonMappingC1ERNS_23QSkeletonMappingPrivateEPN8Qt3DCore5QNodeE@Base 6.2.1
 _ZN13Qt3DAnimation16QSkeletonMappingC2EPN8Qt3DCore5QNodeE@Base 6.2.1
 _ZN13Qt3DAnimation16QSkeletonMappingC2ERNS_23QSkeletonMappingPrivateEPN8Qt3DCore5QNodeE@Base 6.2.1
 _ZN13Qt3DAnimation16QSkeletonMappingD0Ev@Base 6.2.1
 _ZN13Qt3DAnimation16QSkeletonMappingD1Ev@Base 6.2.1
 _ZN13Qt3DAnimation16QSkeletonMappingD2Ev@Base 6.2.1
 _ZN13Qt3DAnimation17QChannelComponent14appendKeyFrameERKNS_9QKeyFrameE@Base 6.2.1
 _ZN13Qt3DAnimation17QChannelComponent14clearKeyFramesEv@Base 6.2.1
 _ZN13Qt3DAnimation17QChannelComponent14insertKeyFrameEiRKNS_9QKeyFrameE@Base 6.2.1
 _ZN13Qt3DAnimation17QChannelComponent14removeKeyFrameEi@Base 6.2.1
 _ZN13Qt3DAnimation17QChannelComponent7setNameERK7QString@Base 6.2.1
 _ZN13Qt3DAnimation17QChannelComponentC1ERK7QString@Base 6.2.1
 _ZN13Qt3DAnimation17QChannelComponentC1ERKS0_@Base 6.2.1
 _ZN13Qt3DAnimation17QChannelComponentC1Ev@Base 6.2.1
 _ZN13Qt3DAnimation17QChannelComponentC2ERK7QString@Base 6.2.1
 _ZN13Qt3DAnimation17QChannelComponentC2ERKS0_@Base 6.2.1
 _ZN13Qt3DAnimation17QChannelComponentC2Ev@Base 6.2.1
 _ZN13Qt3DAnimation17QChannelComponentD1Ev@Base 6.2.1
 _ZN13Qt3DAnimation17QChannelComponentD2Ev@Base 6.2.1
 _ZN13Qt3DAnimation17QChannelComponentaSERKS0_@Base 6.2.1
 _ZN13Qt3DAnimation18QAbstractAnimation11qt_metacallEN11QMetaObject4CallEiPPv@Base 6.2.1
 _ZN13Qt3DAnimation18QAbstractAnimation11qt_metacastEPKc@Base 6.2.1
 _ZN13Qt3DAnimation18QAbstractAnimation11setDurationEf@Base 6.2.1
 _ZN13Qt3DAnimation18QAbstractAnimation11setPositionEf@Base 6.2.1
 _ZN13Qt3DAnimation18QAbstractAnimation15durationChangedEf@Base 6.2.1
 _ZN13Qt3DAnimation18QAbstractAnimation15positionChangedEf@Base 6.2.1
 _ZN13Qt3DAnimation18QAbstractAnimation16setAnimationNameERK7QString@Base 6.2.1
 _ZN13Qt3DAnimation18QAbstractAnimation16staticMetaObjectE@Base 6.2.1
 _ZN13Qt3DAnimation18QAbstractAnimation20animationNameChangedERK7QString@Base 6.2.1
 _ZN13Qt3DAnimation18QAbstractAnimationC1ERNS_25QAbstractAnimationPrivateEP7QObject@Base 6.2.1
 _ZN13Qt3DAnimation18QAbstractAnimationC2ERNS_25QAbstractAnimationPrivateEP7QObject@Base 6.2.1
 _ZN13Qt3DAnimation18QAdditiveClipBlend11qt_metacallEN11QMetaObject4CallEiPPv@Base 6.2.1
 _ZN13Qt3DAnimation18QAdditiveClipBlend11qt_metacastEPKc@Base 6.2.1
 _ZN13Qt3DAnimation18QAdditiveClipBlend11setBaseClipEPNS_22QAbstractClipBlendNodeE@Base 6.2.1
 _ZN13Qt3DAnimation18QAdditiveClipBlend15baseClipChangedEPNS_22QAbstractClipBlendNodeE@Base 6.2.1
 _ZN13Qt3DAnimation18QAdditiveClipBlend15setAdditiveClipEPNS_22QAbstractClipBlendNodeE@Base 6.2.1
 _ZN13Qt3DAnimation18QAdditiveClipBlend16staticMetaObjectE@Base 6.2.1
 _ZN13Qt3DAnimation18QAdditiveClipBlend17setAdditiveFactorEf@Base 6.2.1
 _ZN13Qt3DAnimation18QAdditiveClipBlend19additiveClipChangedEPNS_22QAbstractClipBlendNodeE@Base 6.2.1
 _ZN13Qt3DAnimation18QAdditiveClipBlend21additiveFactorChangedEf@Base 6.2.1
 _ZN13Qt3DAnimation18QAdditiveClipBlendC1EPN8Qt3DCore5QNodeE@Base 6.2.1
 _ZN13Qt3DAnimation18QAdditiveClipBlendC1ERNS_25QAdditiveClipBlendPrivateEPN8Qt3DCore5QNodeE@Base 6.2.1
 _ZN13Qt3DAnimation18QAdditiveClipBlendC2EPN8Qt3DCore5QNodeE@Base 6.2.1
 _ZN13Qt3DAnimation18QAdditiveClipBlendC2ERNS_25QAdditiveClipBlendPrivateEPN8Qt3DCore5QNodeE@Base 6.2.1
 _ZN13Qt3DAnimation18QAdditiveClipBlendD0Ev@Base 6.2.1
 _ZN13Qt3DAnimation18QAdditiveClipBlendD1Ev@Base 6.2.1
 _ZN13Qt3DAnimation18QAdditiveClipBlendD2Ev@Base 6.2.1
 _ZN13Qt3DAnimation18QAnimationCallbackD0Ev@Base 6.4.0
 _ZN13Qt3DAnimation18QAnimationCallbackD1Ev@Base 6.4.0
 _ZN13Qt3DAnimation18QAnimationCallbackD2Ev@Base 6.4.0
 _ZN13Qt3DAnimation18QAnimationClipData13appendChannelERKNS_8QChannelE@Base 6.2.1
 _ZN13Qt3DAnimation18QAnimationClipData13clearChannelsEv@Base 6.2.1
 _ZN13Qt3DAnimation18QAnimationClipData13insertChannelEiRKNS_8QChannelE@Base 6.2.1
 _ZN13Qt3DAnimation18QAnimationClipData13removeChannelEi@Base 6.2.1
 _ZN13Qt3DAnimation18QAnimationClipData7setNameERK7QString@Base 6.2.1
 _ZN13Qt3DAnimation18QAnimationClipDataC1ERKS0_@Base 6.2.1
 _ZN13Qt3DAnimation18QAnimationClipDataC1Ev@Base 6.2.1
 _ZN13Qt3DAnimation18QAnimationClipDataC2ERKS0_@Base 6.2.1
 _ZN13Qt3DAnimation18QAnimationClipDataC2Ev@Base 6.2.1
 _ZN13Qt3DAnimation18QAnimationClipDataD1Ev@Base 6.2.1
 _ZN13Qt3DAnimation18QAnimationClipDataD2Ev@Base 6.2.1
 _ZN13Qt3DAnimation18QAnimationClipDataaSERKS0_@Base 6.2.1
 _ZN13Qt3DAnimation18QKeyframeAnimation10setEndModeENS0_10RepeatModeE@Base 6.2.1
 _ZN13Qt3DAnimation18QKeyframeAnimation11addKeyframeEPN8Qt3DCore10QTransformE@Base 6.2.1
 _ZN13Qt3DAnimation18QKeyframeAnimation11qt_metacallEN11QMetaObject4CallEiPPv@Base 6.2.1
 _ZN13Qt3DAnimation18QKeyframeAnimation11qt_metacastEPKc@Base 6.2.1
 _ZN13Qt3DAnimation18QKeyframeAnimation12setKeyframesERK5QListIPN8Qt3DCore10QTransformEE@Base 6.2.1
 _ZN13Qt3DAnimation18QKeyframeAnimation12setStartModeENS0_10RepeatModeE@Base 6.2.1
 _ZN13Qt3DAnimation18QKeyframeAnimation13easingChangedERK12QEasingCurve@Base 6.2.1
 _ZN13Qt3DAnimation18QKeyframeAnimation13setTargetNameERK7QString@Base 6.2.1
 _ZN13Qt3DAnimation18QKeyframeAnimation13targetChangedEPN8Qt3DCore10QTransformE@Base 6.2.1
 _ZN13Qt3DAnimation18QKeyframeAnimation14endModeChangedENS0_10RepeatModeE@Base 6.2.1
 _ZN13Qt3DAnimation18QKeyframeAnimation14removeKeyframeEPN8Qt3DCore10QTransformE@Base 6.2.1
 _ZN13Qt3DAnimation18QKeyframeAnimation15updateAnimationEf@Base 6.2.1
 _ZN13Qt3DAnimation18QKeyframeAnimation16startModeChangedENS0_10RepeatModeE@Base 6.2.1
 _ZN13Qt3DAnimation18QKeyframeAnimation16staticMetaObjectE@Base 6.2.1
 _ZN13Qt3DAnimation18QKeyframeAnimation17setFramePositionsERK5QListIfE@Base 6.2.1
 _ZN13Qt3DAnimation18QKeyframeAnimation17targetNameChangedERK7QString@Base 6.2.1
 _ZN13Qt3DAnimation18QKeyframeAnimation21framePositionsChangedERK5QListIfE@Base 6.2.1
 _ZN13Qt3DAnimation18QKeyframeAnimation9setEasingERK12QEasingCurve@Base 6.2.1
 _ZN13Qt3DAnimation18QKeyframeAnimation9setTargetEPN8Qt3DCore10QTransformE@Base 6.2.1
 _ZN13Qt3DAnimation18QKeyframeAnimationC1EP7QObject@Base 6.2.1
 _ZN13Qt3DAnimation18QKeyframeAnimationC2EP7QObject@Base 6.2.1
 _ZN13Qt3DAnimation18QMorphingAnimation10getWeightsEi@Base 6.2.1
 _ZN13Qt3DAnimation18QMorphingAnimation10setWeightsEiRK5QListIfE@Base 6.2.1
 _ZN13Qt3DAnimation18QMorphingAnimation11qt_metacallEN11QMetaObject4CallEiPPv@Base 6.2.1
 _ZN13Qt3DAnimation18QMorphingAnimation11qt_metacastEPKc@Base 6.2.1
 _ZN13Qt3DAnimation18QMorphingAnimation13easingChangedERK12QEasingCurve@Base 6.2.1
 _ZN13Qt3DAnimation18QMorphingAnimation13methodChangedENS0_6MethodE@Base 6.2.1
 _ZN13Qt3DAnimation18QMorphingAnimation13setTargetNameE7QString@Base 6.2.1
 _ZN13Qt3DAnimation18QMorphingAnimation13targetChangedEPN10Qt3DRender17QGeometryRendererE@Base 6.2.1
 _ZN13Qt3DAnimation18QMorphingAnimation14addMorphTargetEPNS_12QMorphTargetE@Base 6.2.1
 _ZN13Qt3DAnimation18QMorphingAnimation15morphTargetListEv@Base 6.2.1
 _ZN13Qt3DAnimation18QMorphingAnimation15setMorphTargetsERK5QListIPNS_12QMorphTargetEE@Base 6.2.1
 _ZN13Qt3DAnimation18QMorphingAnimation15updateAnimationEf@Base 6.2.1
 _ZN13Qt3DAnimation18QMorphingAnimation16staticMetaObjectE@Base 6.2.1
 _ZN13Qt3DAnimation18QMorphingAnimation17removeMorphTargetEPNS_12QMorphTargetE@Base 6.2.1
 _ZN13Qt3DAnimation18QMorphingAnimation17targetNameChangedERK7QString@Base 6.2.1
 _ZN13Qt3DAnimation18QMorphingAnimation18setTargetPositionsERK5QListIfE@Base 6.2.1
 _ZN13Qt3DAnimation18QMorphingAnimation19interpolatorChangedEf@Base 6.2.1
 _ZN13Qt3DAnimation18QMorphingAnimation22targetPositionsChangedERK5QListIfE@Base 6.2.1
 _ZN13Qt3DAnimation18QMorphingAnimation9setEasingERK12QEasingCurve@Base 6.2.1
 _ZN13Qt3DAnimation18QMorphingAnimation9setMethodENS0_6MethodE@Base 6.2.1
 _ZN13Qt3DAnimation18QMorphingAnimation9setTargetEPN10Qt3DRender17QGeometryRendererE@Base 6.2.1
 _ZN13Qt3DAnimation18QMorphingAnimationC1EP7QObject@Base 6.2.1
 _ZN13Qt3DAnimation18QMorphingAnimationC2EP7QObject@Base 6.2.1
 _ZN13Qt3DAnimation20QAnimationClipLoader11qt_metacallEN11QMetaObject4CallEiPPv@Base 6.2.1
 _ZN13Qt3DAnimation20QAnimationClipLoader11qt_metacastEPKc@Base 6.2.1
 _ZN13Qt3DAnimation20QAnimationClipLoader13sourceChangedERK4QUrl@Base 6.2.1
 _ZN13Qt3DAnimation20QAnimationClipLoader13statusChangedENS0_6StatusE@Base 6.2.1
 _ZN13Qt3DAnimation20QAnimationClipLoader16staticMetaObjectE@Base 6.2.1
 _ZN13Qt3DAnimation20QAnimationClipLoader9setSourceERK4QUrl@Base 6.2.1
 _ZN13Qt3DAnimation20QAnimationClipLoaderC1EPN8Qt3DCore5QNodeE@Base 6.2.1
 _ZN13Qt3DAnimation20QAnimationClipLoaderC1ERK4QUrlPN8Qt3DCore5QNodeE@Base 6.2.1
 _ZN13Qt3DAnimation20QAnimationClipLoaderC1ERNS_27QAnimationClipLoaderPrivateEPN8Qt3DCore5QNodeE@Base 6.2.1
 _ZN13Qt3DAnimation20QAnimationClipLoaderC2EPN8Qt3DCore5QNodeE@Base 6.2.1
 _ZN13Qt3DAnimation20QAnimationClipLoaderC2ERK4QUrlPN8Qt3DCore5QNodeE@Base 6.2.1
 _ZN13Qt3DAnimation20QAnimationClipLoaderC2ERNS_27QAnimationClipLoaderPrivateEPN8Qt3DCore5QNodeE@Base 6.2.1
 _ZN13Qt3DAnimation20QAnimationClipLoaderD0Ev@Base 6.2.1
 _ZN13Qt3DAnimation20QAnimationClipLoaderD1Ev@Base 6.2.1
 _ZN13Qt3DAnimation20QAnimationClipLoaderD2Ev@Base 6.2.1
 _ZN13Qt3DAnimation20QAnimationController11qt_metacallEN11QMetaObject4CallEiPPv@Base 6.2.1
 _ZN13Qt3DAnimation20QAnimationController11qt_metacastEPKc@Base 6.2.1
 _ZN13Qt3DAnimation20QAnimationController11setPositionEf@Base 6.2.1
 _ZN13Qt3DAnimation20QAnimationController12setRecursiveEb@Base 6.2.1
 _ZN13Qt3DAnimation20QAnimationController13entityChangedEPN8Qt3DCore7QEntityE@Base 6.2.1
 _ZN13Qt3DAnimation20QAnimationController15positionChangedEf@Base 6.2.1
 _ZN13Qt3DAnimation20QAnimationController16recursiveChangedEb@Base 6.2.1
 _ZN13Qt3DAnimation20QAnimationController16setPositionScaleEf@Base 6.2.1
 _ZN13Qt3DAnimation20QAnimationController16staticMetaObjectE@Base 6.2.1
 _ZN13Qt3DAnimation20QAnimationController17addAnimationGroupEPNS_15QAnimationGroupE@Base 6.2.1
 _ZN13Qt3DAnimation20QAnimationController17setPositionOffsetEf@Base 6.2.1
 _ZN13Qt3DAnimation20QAnimationController18animationGroupListEv@Base 6.2.1
 _ZN13Qt3DAnimation20QAnimationController18setAnimationGroupsERK5QListIPNS_15QAnimationGroupEE@Base 6.2.1
 _ZN13Qt3DAnimation20QAnimationController20positionScaleChangedEf@Base 6.2.1
 _ZN13Qt3DAnimation20QAnimationController20removeAnimationGroupEPNS_15QAnimationGroupE@Base 6.2.1
 _ZN13Qt3DAnimation20QAnimationController21positionOffsetChangedEf@Base 6.2.1
 _ZN13Qt3DAnimation20QAnimationController23setActiveAnimationGroupEi@Base 6.2.1
 _ZN13Qt3DAnimation20QAnimationController27activeAnimationGroupChangedEi@Base 6.2.1
 _ZN13Qt3DAnimation20QAnimationController9setEntityEPN8Qt3DCore7QEntityE@Base 6.2.1
 _ZN13Qt3DAnimation20QAnimationControllerC1EP7QObject@Base 6.2.1
 _ZN13Qt3DAnimation20QAnimationControllerC2EP7QObject@Base 6.2.1
 _ZN13Qt3DAnimation20QBlendedClipAnimator11qt_metacallEN11QMetaObject4CallEiPPv@Base 6.2.1
 _ZN13Qt3DAnimation20QBlendedClipAnimator11qt_metacastEPKc@Base 6.2.1
 _ZN13Qt3DAnimation20QBlendedClipAnimator12setBlendTreeEPNS_22QAbstractClipBlendNodeE@Base 6.2.1
 _ZN13Qt3DAnimation20QBlendedClipAnimator16blendTreeChangedEPNS_22QAbstractClipBlendNodeE@Base 6.2.1
 _ZN13Qt3DAnimation20QBlendedClipAnimator16staticMetaObjectE@Base 6.2.1
 _ZN13Qt3DAnimation20QBlendedClipAnimatorC1EPN8Qt3DCore5QNodeE@Base 6.2.1
 _ZN13Qt3DAnimation20QBlendedClipAnimatorC1ERNS_27QBlendedClipAnimatorPrivateEPN8Qt3DCore5QNodeE@Base 6.2.1
 _ZN13Qt3DAnimation20QBlendedClipAnimatorC2EPN8Qt3DCore5QNodeE@Base 6.2.1
 _ZN13Qt3DAnimation20QBlendedClipAnimatorC2ERNS_27QBlendedClipAnimatorPrivateEPN8Qt3DCore5QNodeE@Base 6.2.1
 _ZN13Qt3DAnimation20QBlendedClipAnimatorD0Ev@Base 6.2.1
 _ZN13Qt3DAnimation20QBlendedClipAnimatorD1Ev@Base 6.2.1
 _ZN13Qt3DAnimation20QBlendedClipAnimatorD2Ev@Base 6.2.1
 _ZN13Qt3DAnimation21QAbstractClipAnimator10setRunningEb@Base 6.2.1
 _ZN13Qt3DAnimation21QAbstractClipAnimator11qt_metacallEN11QMetaObject4CallEiPPv@Base 6.2.1
 _ZN13Qt3DAnimation21QAbstractClipAnimator11qt_metacastEPKc@Base 6.2.1
 _ZN13Qt3DAnimation21QAbstractClipAnimator12clockChangedEPNS_6QClockE@Base 6.2.1
 _ZN13Qt3DAnimation21QAbstractClipAnimator12setLoopCountEi@Base 6.2.1
 _ZN13Qt3DAnimation21QAbstractClipAnimator14runningChangedEb@Base 6.2.1
 _ZN13Qt3DAnimation21QAbstractClipAnimator16loopCountChangedEi@Base 6.2.1
 _ZN13Qt3DAnimation21QAbstractClipAnimator16setChannelMapperEPNS_14QChannelMapperE@Base 6.2.1
 _ZN13Qt3DAnimation21QAbstractClipAnimator16staticMetaObjectE@Base 6.2.1
 _ZN13Qt3DAnimation21QAbstractClipAnimator17setNormalizedTimeEf@Base 6.2.1
 _ZN13Qt3DAnimation21QAbstractClipAnimator20channelMapperChangedEPNS_14QChannelMapperE@Base 6.2.1
 _ZN13Qt3DAnimation21QAbstractClipAnimator21normalizedTimeChangedEf@Base 6.2.1
 _ZN13Qt3DAnimation21QAbstractClipAnimator4stopEv@Base 6.2.1
 _ZN13Qt3DAnimation21QAbstractClipAnimator5startEv@Base 6.2.1
 _ZN13Qt3DAnimation21QAbstractClipAnimator8setClockEPNS_6QClockE@Base 6.2.1
 _ZN13Qt3DAnimation21QAbstractClipAnimatorC1EPN8Qt3DCore5QNodeE@Base 6.2.1
 _ZN13Qt3DAnimation21QAbstractClipAnimatorC1ERNS_28QAbstractClipAnimatorPrivateEPN8Qt3DCore5QNodeE@Base 6.2.1
 _ZN13Qt3DAnimation21QAbstractClipAnimatorC2EPN8Qt3DCore5QNodeE@Base 6.2.1
 _ZN13Qt3DAnimation21QAbstractClipAnimatorC2ERNS_28QAbstractClipAnimatorPrivateEPN8Qt3DCore5QNodeE@Base 6.2.1
 _ZN13Qt3DAnimation21QAbstractClipAnimatorD0Ev@Base 6.2.1
 _ZN13Qt3DAnimation21QAbstractClipAnimatorD1Ev@Base 6.2.1
 _ZN13Qt3DAnimation21QAbstractClipAnimatorD2Ev@Base 6.2.1
 _ZN13Qt3DAnimation21QVertexBlendAnimation11qt_metacallEN11QMetaObject4CallEiPPv@Base 6.2.1
 _ZN13Qt3DAnimation21QVertexBlendAnimation11qt_metacastEPKc@Base 6.2.1
 _ZN13Qt3DAnimation21QVertexBlendAnimation13setTargetNameE7QString@Base 6.2.1
 _ZN13Qt3DAnimation21QVertexBlendAnimation13targetChangedEPN10Qt3DRender17QGeometryRendererE@Base 6.2.1
 _ZN13Qt3DAnimation21QVertexBlendAnimation14addMorphTargetEPNS_12QMorphTargetE@Base 6.2.1
 _ZN13Qt3DAnimation21QVertexBlendAnimation15morphTargetListEv@Base 6.2.1
 _ZN13Qt3DAnimation21QVertexBlendAnimation15setMorphTargetsERK5QListIPNS_12QMorphTargetEE@Base 6.2.1
 _ZN13Qt3DAnimation21QVertexBlendAnimation15updateAnimationEf@Base 6.2.1
 _ZN13Qt3DAnimation21QVertexBlendAnimation16staticMetaObjectE@Base 6.2.1
 _ZN13Qt3DAnimation21QVertexBlendAnimation17removeMorphTargetEPNS_12QMorphTargetE@Base 6.2.1
 _ZN13Qt3DAnimation21QVertexBlendAnimation17targetNameChangedERK7QString@Base 6.2.1
 _ZN13Qt3DAnimation21QVertexBlendAnimation18setTargetPositionsERK5QListIfE@Base 6.2.1
 _ZN13Qt3DAnimation21QVertexBlendAnimation19interpolatorChangedEf@Base 6.2.1
 _ZN13Qt3DAnimation21QVertexBlendAnimation22targetPositionsChangedERK5QListIfE@Base 6.2.1
 _ZN13Qt3DAnimation21QVertexBlendAnimation9setTargetEPN10Qt3DRender17QGeometryRendererE@Base 6.2.1
 _ZN13Qt3DAnimation21QVertexBlendAnimationC1EP7QObject@Base 6.2.1
 _ZN13Qt3DAnimation21QVertexBlendAnimationC2EP7QObject@Base 6.2.1
 _ZN13Qt3DAnimation22QAbstractAnimationClip11qt_metacallEN11QMetaObject4CallEiPPv@Base 6.2.1
 _ZN13Qt3DAnimation22QAbstractAnimationClip11qt_metacastEPKc@Base 6.2.1
 _ZN13Qt3DAnimation22QAbstractAnimationClip15durationChangedEf@Base 6.2.1
 _ZN13Qt3DAnimation22QAbstractAnimationClip16staticMetaObjectE@Base 6.2.1
 _ZN13Qt3DAnimation22QAbstractAnimationClipC1ERNS_29QAbstractAnimationClipPrivateEPN8Qt3DCore5QNodeE@Base 6.2.1
 _ZN13Qt3DAnimation22QAbstractAnimationClipC2ERNS_29QAbstractAnimationClipPrivateEPN8Qt3DCore5QNodeE@Base 6.2.1
 _ZN13Qt3DAnimation22QAbstractAnimationClipD0Ev@Base 6.2.1
 _ZN13Qt3DAnimation22QAbstractAnimationClipD1Ev@Base 6.2.1
 _ZN13Qt3DAnimation22QAbstractAnimationClipD2Ev@Base 6.2.1
 _ZN13Qt3DAnimation22QAbstractClipBlendNode11qt_metacallEN11QMetaObject4CallEiPPv@Base 6.2.1
 _ZN13Qt3DAnimation22QAbstractClipBlendNode11qt_metacastEPKc@Base 6.2.1
 _ZN13Qt3DAnimation22QAbstractClipBlendNode16staticMetaObjectE@Base 6.2.1
 _ZN13Qt3DAnimation22QAbstractClipBlendNodeC1EPN8Qt3DCore5QNodeE@Base 6.2.1
 _ZN13Qt3DAnimation22QAbstractClipBlendNodeC1ERNS_29QAbstractClipBlendNodePrivateEPN8Qt3DCore5QNodeE@Base 6.2.1
 _ZN13Qt3DAnimation22QAbstractClipBlendNodeC2EPN8Qt3DCore5QNodeE@Base 6.2.1
 _ZN13Qt3DAnimation22QAbstractClipBlendNodeC2ERNS_29QAbstractClipBlendNodePrivateEPN8Qt3DCore5QNodeE@Base 6.2.1
 _ZN13Qt3DAnimation22QAbstractClipBlendNodeD0Ev@Base 6.2.1
 _ZN13Qt3DAnimation22QAbstractClipBlendNodeD1Ev@Base 6.2.1
 _ZN13Qt3DAnimation22QAbstractClipBlendNodeD2Ev@Base 6.2.1
 _ZN13Qt3DAnimation23QAbstractChannelMapping11qt_metacallEN11QMetaObject4CallEiPPv@Base 6.2.1
 _ZN13Qt3DAnimation23QAbstractChannelMapping11qt_metacastEPKc@Base 6.2.1
 _ZN13Qt3DAnimation23QAbstractChannelMapping16staticMetaObjectE@Base 6.2.1
 _ZN13Qt3DAnimation23QAbstractChannelMappingC1ERNS_30QAbstractChannelMappingPrivateEPN8Qt3DCore5QNodeE@Base 6.2.1
 _ZN13Qt3DAnimation23QAbstractChannelMappingC2ERNS_30QAbstractChannelMappingPrivateEPN8Qt3DCore5QNodeE@Base 6.2.1
 _ZN13Qt3DAnimation23QAbstractChannelMappingD0Ev@Base 6.2.1
 _ZN13Qt3DAnimation23QAbstractChannelMappingD1Ev@Base 6.2.1
 _ZN13Qt3DAnimation23QAbstractChannelMappingD2Ev@Base 6.2.1
 _ZN13Qt3DAnimation6QClock11qt_metacallEN11QMetaObject4CallEiPPv@Base 6.2.1
 _ZN13Qt3DAnimation6QClock11qt_metacastEPKc@Base 6.2.1
 _ZN13Qt3DAnimation6QClock15setPlaybackRateEd@Base 6.2.1
 _ZN13Qt3DAnimation6QClock16staticMetaObjectE@Base 6.2.1
 _ZN13Qt3DAnimation6QClock19playbackRateChangedEd@Base 6.2.1
 _ZN13Qt3DAnimation6QClockC1EPN8Qt3DCore5QNodeE@Base 6.2.1
 _ZN13Qt3DAnimation6QClockC1ERNS_13QClockPrivateEPN8Qt3DCore5QNodeE@Base 6.2.1
 _ZN13Qt3DAnimation6QClockC2EPN8Qt3DCore5QNodeE@Base 6.2.1
 _ZN13Qt3DAnimation6QClockC2ERNS_13QClockPrivateEPN8Qt3DCore5QNodeE@Base 6.2.1
 _ZN13Qt3DAnimation6QClockD0Ev@Base 6.2.1
 _ZN13Qt3DAnimation6QClockD1Ev@Base 6.2.1
 _ZN13Qt3DAnimation6QClockD2Ev@Base 6.2.1
 _ZN13Qt3DAnimation8QChannel13setJointIndexEi@Base 6.2.1
 _ZN13Qt3DAnimation8QChannel22appendChannelComponentERKNS_17QChannelComponentE@Base 6.2.1
 _ZN13Qt3DAnimation8QChannel22clearChannelComponentsEv@Base 6.2.1
 _ZN13Qt3DAnimation8QChannel22insertChannelComponentEiRKNS_17QChannelComponentE@Base 6.2.1
 _ZN13Qt3DAnimation8QChannel22removeChannelComponentEi@Base 6.2.1
 _ZN13Qt3DAnimation8QChannel7setNameERK7QString@Base 6.2.1
 _ZN13Qt3DAnimation8QChannelC1ERK7QString@Base 6.2.1
 _ZN13Qt3DAnimation8QChannelC1ERKS0_@Base 6.2.1
 _ZN13Qt3DAnimation8QChannelC1Ev@Base 6.2.1
 _ZN13Qt3DAnimation8QChannelC2ERK7QString@Base 6.2.1
 _ZN13Qt3DAnimation8QChannelC2ERKS0_@Base 6.2.1
 _ZN13Qt3DAnimation8QChannelC2Ev@Base 6.2.1
 _ZN13Qt3DAnimation8QChannelD1Ev@Base 6.2.1
 _ZN13Qt3DAnimation8QChannelD2Ev@Base 6.2.1
 _ZN13Qt3DAnimation8QChannelaSERKS0_@Base 6.2.1
 _ZN13Qt3DAnimationeqERKNS_17QChannelComponentES2_@Base 6.2.1
 _ZN13Qt3DAnimationeqERKNS_18QAnimationClipDataES2_@Base 6.2.1
 _ZN13Qt3DAnimationeqERKNS_8QChannelES2_@Base 6.2.1
 _ZN13Qt3DAnimationneERKNS_17QChannelComponentES2_@Base 6.2.1
 _ZN13Qt3DAnimationneERKNS_18QAnimationClipDataES2_@Base 6.2.1
 _ZN13Qt3DAnimationneERKNS_8QChannelES2_@Base 6.2.1
 _ZNK13Qt3DAnimation12QMorphTarget10metaObjectEv@Base 6.2.1
 _ZNK13Qt3DAnimation12QMorphTarget13attributeListEv@Base 6.2.1
 _ZNK13Qt3DAnimation12QMorphTarget14attributeNamesEv@Base 6.2.1
 _ZNK13Qt3DAnimation13QClipAnimator10metaObjectEv@Base 6.2.1
 _ZNK13Qt3DAnimation13QClipAnimator4clipEv@Base 6.2.1
 _ZNK13Qt3DAnimation14QAnimationClip10metaObjectEv@Base 6.2.1
 _ZNK13Qt3DAnimation14QAnimationClip8clipDataEv@Base 6.2.1
 _ZNK13Qt3DAnimation14QChannelMapper10metaObjectEv@Base 6.2.1
 _ZNK13Qt3DAnimation14QChannelMapper8mappingsEv@Base 6.2.1
 _ZNK13Qt3DAnimation14QLerpClipBlend10metaObjectEv@Base 6.2.1
 _ZNK13Qt3DAnimation14QLerpClipBlend11blendFactorEv@Base 6.2.1
 _ZNK13Qt3DAnimation14QLerpClipBlend7endClipEv@Base 6.2.1
 _ZNK13Qt3DAnimation14QLerpClipBlend9startClipEv@Base 6.2.1
 _ZNK13Qt3DAnimation15QAnimationGroup10metaObjectEv@Base 6.2.1
 _ZNK13Qt3DAnimation15QAnimationGroup4nameEv@Base 6.2.1
 _ZNK13Qt3DAnimation15QAnimationGroup8durationEv@Base 6.2.1
 _ZNK13Qt3DAnimation15QAnimationGroup8positionEv@Base 6.2.1
 _ZNK13Qt3DAnimation15QChannelMapping10metaObjectEv@Base 6.2.1
 _ZNK13Qt3DAnimation15QChannelMapping11channelNameEv@Base 6.2.1
 _ZNK13Qt3DAnimation15QChannelMapping6targetEv@Base 6.2.1
 _ZNK13Qt3DAnimation15QChannelMapping8propertyEv@Base 6.2.1
 _ZNK13Qt3DAnimation15QClipBlendValue10metaObjectEv@Base 6.2.1
 _ZNK13Qt3DAnimation15QClipBlendValue4clipEv@Base 6.2.1
 _ZNK13Qt3DAnimation16QAnimationAspect10metaObjectEv@Base 6.2.1
 _ZNK13Qt3DAnimation16QCallbackMapping10metaObjectEv@Base 6.2.1
 _ZNK13Qt3DAnimation16QCallbackMapping11channelNameEv@Base 6.2.1
 _ZNK13Qt3DAnimation16QCallbackMapping8callbackEv@Base 6.2.1
 _ZNK13Qt3DAnimation16QSkeletonMapping10metaObjectEv@Base 6.2.1
 _ZNK13Qt3DAnimation16QSkeletonMapping8skeletonEv@Base 6.2.1
 _ZNK13Qt3DAnimation17QChannelComponent13keyFrameCountEv@Base 6.2.1
 _ZNK13Qt3DAnimation17QChannelComponent3endEv@Base 6.2.1
 _ZNK13Qt3DAnimation17QChannelComponent4nameEv@Base 6.2.1
 _ZNK13Qt3DAnimation17QChannelComponent5beginEv@Base 6.2.1
 _ZNK13Qt3DAnimation18QAbstractAnimation10metaObjectEv@Base 6.2.1
 _ZNK13Qt3DAnimation18QAbstractAnimation13animationNameEv@Base 6.2.1
 _ZNK13Qt3DAnimation18QAbstractAnimation13animationTypeEv@Base 6.2.1
 _ZNK13Qt3DAnimation18QAbstractAnimation8durationEv@Base 6.2.1
 _ZNK13Qt3DAnimation18QAbstractAnimation8positionEv@Base 6.2.1
 _ZNK13Qt3DAnimation18QAdditiveClipBlend10metaObjectEv@Base 6.2.1
 _ZNK13Qt3DAnimation18QAdditiveClipBlend12additiveClipEv@Base 6.2.1
 _ZNK13Qt3DAnimation18QAdditiveClipBlend14additiveFactorEv@Base 6.2.1
 _ZNK13Qt3DAnimation18QAdditiveClipBlend8baseClipEv@Base 6.2.1
 _ZNK13Qt3DAnimation18QAnimationClipData12channelCountEv@Base 6.2.1
 _ZNK13Qt3DAnimation18QAnimationClipData3endEv@Base 6.2.1
 _ZNK13Qt3DAnimation18QAnimationClipData4nameEv@Base 6.2.1
 _ZNK13Qt3DAnimation18QAnimationClipData5beginEv@Base 6.2.1
 _ZNK13Qt3DAnimation18QAnimationClipData7isValidEv@Base 6.2.1
 _ZNK13Qt3DAnimation18QKeyframeAnimation10metaObjectEv@Base 6.2.1
 _ZNK13Qt3DAnimation18QKeyframeAnimation10targetNameEv@Base 6.2.1
 _ZNK13Qt3DAnimation18QKeyframeAnimation12keyframeListEv@Base 6.2.1
 _ZNK13Qt3DAnimation18QKeyframeAnimation14framePositionsEv@Base 6.2.1
 _ZNK13Qt3DAnimation18QKeyframeAnimation6easingEv@Base 6.2.1
 _ZNK13Qt3DAnimation18QKeyframeAnimation6targetEv@Base 6.2.1
 _ZNK13Qt3DAnimation18QKeyframeAnimation7endModeEv@Base 6.2.1
 _ZNK13Qt3DAnimation18QKeyframeAnimation9startModeEv@Base 6.2.1
 _ZNK13Qt3DAnimation18QMorphingAnimation10metaObjectEv@Base 6.2.1
 _ZNK13Qt3DAnimation18QMorphingAnimation10targetNameEv@Base 6.2.1
 _ZNK13Qt3DAnimation18QMorphingAnimation12interpolatorEv@Base 6.2.1
 _ZNK13Qt3DAnimation18QMorphingAnimation15targetPositionsEv@Base 6.2.1
 _ZNK13Qt3DAnimation18QMorphingAnimation6easingEv@Base 6.2.1
 _ZNK13Qt3DAnimation18QMorphingAnimation6methodEv@Base 6.2.1
 _ZNK13Qt3DAnimation18QMorphingAnimation6targetEv@Base 6.2.1
 _ZNK13Qt3DAnimation20QAnimationClipLoader10metaObjectEv@Base 6.2.1
 _ZNK13Qt3DAnimation20QAnimationClipLoader6sourceEv@Base 6.2.1
 _ZNK13Qt3DAnimation20QAnimationClipLoader6statusEv@Base 6.2.1
 _ZNK13Qt3DAnimation20QAnimationController10metaObjectEv@Base 6.2.1
 _ZNK13Qt3DAnimation20QAnimationController13positionScaleEv@Base 6.2.1
 _ZNK13Qt3DAnimation20QAnimationController14positionOffsetEv@Base 6.2.1
 _ZNK13Qt3DAnimation20QAnimationController17getAnimationIndexERK7QString@Base 6.2.1
 _ZNK13Qt3DAnimation20QAnimationController20activeAnimationGroupEv@Base 6.2.1
 _ZNK13Qt3DAnimation20QAnimationController6entityEv@Base 6.2.1
 _ZNK13Qt3DAnimation20QAnimationController8getGroupEi@Base 6.2.1
 _ZNK13Qt3DAnimation20QAnimationController8positionEv@Base 6.2.1
 _ZNK13Qt3DAnimation20QAnimationController9recursiveEv@Base 6.2.1
 _ZNK13Qt3DAnimation20QBlendedClipAnimator10metaObjectEv@Base 6.2.1
 _ZNK13Qt3DAnimation20QBlendedClipAnimator9blendTreeEv@Base 6.2.1
 _ZNK13Qt3DAnimation21QAbstractClipAnimator10metaObjectEv@Base 6.2.1
 _ZNK13Qt3DAnimation21QAbstractClipAnimator13channelMapperEv@Base 6.2.1
 _ZNK13Qt3DAnimation21QAbstractClipAnimator14normalizedTimeEv@Base 6.2.1
 _ZNK13Qt3DAnimation21QAbstractClipAnimator5clockEv@Base 6.2.1
 _ZNK13Qt3DAnimation21QAbstractClipAnimator9isRunningEv@Base 6.2.1
 _ZNK13Qt3DAnimation21QAbstractClipAnimator9loopCountEv@Base 6.2.1
 _ZNK13Qt3DAnimation21QVertexBlendAnimation10metaObjectEv@Base 6.2.1
 _ZNK13Qt3DAnimation21QVertexBlendAnimation10targetNameEv@Base 6.2.1
 _ZNK13Qt3DAnimation21QVertexBlendAnimation12interpolatorEv@Base 6.2.1
 _ZNK13Qt3DAnimation21QVertexBlendAnimation15targetPositionsEv@Base 6.2.1
 _ZNK13Qt3DAnimation21QVertexBlendAnimation6targetEv@Base 6.2.1
 _ZNK13Qt3DAnimation22QAbstractAnimationClip10metaObjectEv@Base 6.2.1
 _ZNK13Qt3DAnimation22QAbstractAnimationClip8durationEv@Base 6.2.1
 _ZNK13Qt3DAnimation22QAbstractClipBlendNode10metaObjectEv@Base 6.2.1
 _ZNK13Qt3DAnimation23QAbstractChannelMapping10metaObjectEv@Base 6.2.1
 _ZNK13Qt3DAnimation6QClock10metaObjectEv@Base 6.2.1
 _ZNK13Qt3DAnimation6QClock12playbackRateEv@Base 6.2.1
 _ZNK13Qt3DAnimation8QChannel10jointIndexEv@Base 6.2.1
 _ZNK13Qt3DAnimation8QChannel21channelComponentCountEv@Base 6.2.1
 _ZNK13Qt3DAnimation8QChannel3endEv@Base 6.2.1
 _ZNK13Qt3DAnimation8QChannel4nameEv@Base 6.2.1
 _ZNK13Qt3DAnimation8QChannel5beginEv@Base 6.2.1
 _ZTIN13Qt3DAnimation12QMorphTargetE@Base 6.2.1
 _ZTIN13Qt3DAnimation13QClipAnimatorE@Base 6.2.1
 _ZTIN13Qt3DAnimation14QAnimationClipE@Base 6.2.1
 _ZTIN13Qt3DAnimation14QChannelMapperE@Base 6.2.1
 _ZTIN13Qt3DAnimation14QLerpClipBlendE@Base 6.2.1
 _ZTIN13Qt3DAnimation15QAnimationGroupE@Base 6.2.1
 _ZTIN13Qt3DAnimation15QChannelMappingE@Base 6.2.1
 _ZTIN13Qt3DAnimation15QClipBlendValueE@Base 6.2.1
 _ZTIN13Qt3DAnimation16QAnimationAspectE@Base 6.2.1
 _ZTIN13Qt3DAnimation16QCallbackMappingE@Base 6.2.1
 _ZTIN13Qt3DAnimation16QSkeletonMappingE@Base 6.2.1
 _ZTIN13Qt3DAnimation18QAbstractAnimationE@Base 6.2.1
 _ZTIN13Qt3DAnimation18QAdditiveClipBlendE@Base 6.2.1
 _ZTIN13Qt3DAnimation18QAnimationCallbackE@Base 6.4.0
 _ZTIN13Qt3DAnimation18QKeyframeAnimationE@Base 6.2.1
 _ZTIN13Qt3DAnimation18QMorphingAnimationE@Base 6.2.1
 _ZTIN13Qt3DAnimation20QAnimationClipLoaderE@Base 6.2.1
 _ZTIN13Qt3DAnimation20QAnimationControllerE@Base 6.2.1
 _ZTIN13Qt3DAnimation20QBlendedClipAnimatorE@Base 6.2.1
 _ZTIN13Qt3DAnimation21QAbstractClipAnimatorE@Base 6.2.1
 _ZTIN13Qt3DAnimation21QVertexBlendAnimationE@Base 6.2.1
 _ZTIN13Qt3DAnimation22QAbstractAnimationClipE@Base 6.2.1
 _ZTIN13Qt3DAnimation22QAbstractClipBlendNodeE@Base 6.2.1
 _ZTIN13Qt3DAnimation23QAbstractChannelMappingE@Base 6.2.1
 _ZTIN13Qt3DAnimation6QClockE@Base 6.2.1
 _ZTIZN9QMetaType17registerConverterI5QListIfE9QIterableI13QMetaSequenceEN9QtPrivate33QSequentialIterableConvertFunctorIS2_EEEEbT1_EUlPKvPvE_@Base 6.2.1
 _ZTIZN9QMetaType19registerMutableViewI5QListIfE9QIterableI13QMetaSequenceEN9QtPrivate37QSequentialIterableMutableViewFunctorIS2_EEEEbT1_EUlPvSA_E_@Base 6.2.1
 _ZTSN13Qt3DAnimation12QMorphTargetE@Base 6.2.1
 _ZTSN13Qt3DAnimation13QClipAnimatorE@Base 6.2.1
 _ZTSN13Qt3DAnimation14QAnimationClipE@Base 6.2.1
 _ZTSN13Qt3DAnimation14QChannelMapperE@Base 6.2.1
 _ZTSN13Qt3DAnimation14QLerpClipBlendE@Base 6.2.1
 _ZTSN13Qt3DAnimation15QAnimationGroupE@Base 6.2.1
 _ZTSN13Qt3DAnimation15QChannelMappingE@Base 6.2.1
 _ZTSN13Qt3DAnimation15QClipBlendValueE@Base 6.2.1
 _ZTSN13Qt3DAnimation16QAnimationAspectE@Base 6.2.1
 _ZTSN13Qt3DAnimation16QCallbackMappingE@Base 6.2.1
 _ZTSN13Qt3DAnimation16QSkeletonMappingE@Base 6.2.1
 _ZTSN13Qt3DAnimation18QAbstractAnimationE@Base 6.2.1
 _ZTSN13Qt3DAnimation18QAdditiveClipBlendE@Base 6.2.1
 _ZTSN13Qt3DAnimation18QAnimationCallbackE@Base 6.4.0
 _ZTSN13Qt3DAnimation18QKeyframeAnimationE@Base 6.2.1
 _ZTSN13Qt3DAnimation18QMorphingAnimationE@Base 6.2.1
 _ZTSN13Qt3DAnimation20QAnimationClipLoaderE@Base 6.2.1
 _ZTSN13Qt3DAnimation20QAnimationControllerE@Base 6.2.1
 _ZTSN13Qt3DAnimation20QBlendedClipAnimatorE@Base 6.2.1
 _ZTSN13Qt3DAnimation21QAbstractClipAnimatorE@Base 6.2.1
 _ZTSN13Qt3DAnimation21QVertexBlendAnimationE@Base 6.2.1
 _ZTSN13Qt3DAnimation22QAbstractAnimationClipE@Base 6.2.1
 _ZTSN13Qt3DAnimation22QAbstractClipBlendNodeE@Base 6.2.1
 _ZTSN13Qt3DAnimation23QAbstractChannelMappingE@Base 6.2.1
 _ZTSN13Qt3DAnimation6QClockE@Base 6.2.1
 _ZTSZN9QMetaType17registerConverterI5QListIfE9QIterableI13QMetaSequenceEN9QtPrivate33QSequentialIterableConvertFunctorIS2_EEEEbT1_EUlPKvPvE_@Base 6.2.1
 _ZTSZN9QMetaType19registerMutableViewI5QListIfE9QIterableI13QMetaSequenceEN9QtPrivate37QSequentialIterableMutableViewFunctorIS2_EEEEbT1_EUlPvSA_E_@Base 6.2.1
 _ZTVN13Qt3DAnimation12QMorphTargetE@Base 6.2.1
 _ZTVN13Qt3DAnimation13QClipAnimatorE@Base 6.2.1
 _ZTVN13Qt3DAnimation14QAnimationClipE@Base 6.2.1
 _ZTVN13Qt3DAnimation14QChannelMapperE@Base 6.2.1
 _ZTVN13Qt3DAnimation14QLerpClipBlendE@Base 6.2.1
 _ZTVN13Qt3DAnimation15QAnimationGroupE@Base 6.2.1
 _ZTVN13Qt3DAnimation15QChannelMappingE@Base 6.2.1
 _ZTVN13Qt3DAnimation15QClipBlendValueE@Base 6.2.1
 _ZTVN13Qt3DAnimation16QAnimationAspectE@Base 6.2.1
 _ZTVN13Qt3DAnimation16QCallbackMappingE@Base 6.2.1
 _ZTVN13Qt3DAnimation16QSkeletonMappingE@Base 6.2.1
 _ZTVN13Qt3DAnimation18QAbstractAnimationE@Base 6.2.1
 _ZTVN13Qt3DAnimation18QAdditiveClipBlendE@Base 6.2.1
 _ZTVN13Qt3DAnimation18QAnimationCallbackE@Base 6.4.0
 _ZTVN13Qt3DAnimation18QKeyframeAnimationE@Base 6.2.1
 _ZTVN13Qt3DAnimation18QMorphingAnimationE@Base 6.2.1
 _ZTVN13Qt3DAnimation20QAnimationClipLoaderE@Base 6.2.1
 _ZTVN13Qt3DAnimation20QAnimationControllerE@Base 6.2.1
 _ZTVN13Qt3DAnimation20QBlendedClipAnimatorE@Base 6.2.1
 _ZTVN13Qt3DAnimation21QAbstractClipAnimatorE@Base 6.2.1
 _ZTVN13Qt3DAnimation21QVertexBlendAnimationE@Base 6.2.1
 _ZTVN13Qt3DAnimation22QAbstractAnimationClipE@Base 6.2.1
 _ZTVN13Qt3DAnimation22QAbstractClipBlendNodeE@Base 6.2.1
 _ZTVN13Qt3DAnimation23QAbstractChannelMappingE@Base 6.2.1
 _ZTVN13Qt3DAnimation6QClockE@Base 6.2.1
 (optional=templinst)_ZZN9QMetaType21registerConverterImplI5QListIfE9QIterableI13QMetaSequenceEEEbSt8functionIFbPKvPvEES_S_E10unregister@Base 6.2.1
 (optional=templinst)_ZZN9QMetaType23registerMutableViewImplI5QListIfE9QIterableI13QMetaSequenceEEEbSt8functionIFbPvS7_EES_S_E10unregister@Base 6.2.1
