# SymbolsHelper-Confirmed: 6.2.1 amd64
libQt63DQuickInput.so.6 libqt63dquickinput6 #MINVER#
* Build-Depends-Package: qt6-3d-dev
 _ZN9Qt3DInput5Input5Quick11Quick3DAxis11qt_metacallEN11QMetaObject4CallEiPPv@Base 6.2.1
 _ZN9Qt3DInput5Input5Quick11Quick3DAxis11qt_metacastEPKc@Base 6.2.1
 _ZN9Qt3DInput5Input5Quick11Quick3DAxis13qmlAxisInputsEv@Base 6.2.1
 _ZN9Qt3DInput5Input5Quick11Quick3DAxis16staticMetaObjectE@Base 6.2.1
 _ZN9Qt3DInput5Input5Quick11Quick3DAxisC1EP7QObject@Base 6.2.1
 _ZN9Qt3DInput5Input5Quick11Quick3DAxisC2EP7QObject@Base 6.2.1
 _ZN9Qt3DInput5Input5Quick13Quick3DAction11qt_metacallEN11QMetaObject4CallEiPPv@Base 6.2.1
 _ZN9Qt3DInput5Input5Quick13Quick3DAction11qt_metacastEPKc@Base 6.2.1
 _ZN9Qt3DInput5Input5Quick13Quick3DAction15qmlActionInputsEv@Base 6.2.1
 _ZN9Qt3DInput5Input5Quick13Quick3DAction16staticMetaObjectE@Base 6.2.1
 _ZN9Qt3DInput5Input5Quick13Quick3DActionC1EP7QObject@Base 6.2.1
 _ZN9Qt3DInput5Input5Quick13Quick3DActionC2EP7QObject@Base 6.2.1
 _ZN9Qt3DInput5Input5Quick17Quick3DInputChord11qt_metacallEN11QMetaObject4CallEiPPv@Base 6.2.1
 _ZN9Qt3DInput5Input5Quick17Quick3DInputChord11qt_metacastEPKc@Base 6.2.1
 _ZN9Qt3DInput5Input5Quick17Quick3DInputChord15qmlActionInputsEv@Base 6.2.1
 _ZN9Qt3DInput5Input5Quick17Quick3DInputChord16staticMetaObjectE@Base 6.2.1
 _ZN9Qt3DInput5Input5Quick17Quick3DInputChordC1EP7QObject@Base 6.2.1
 _ZN9Qt3DInput5Input5Quick17Quick3DInputChordC2EP7QObject@Base 6.2.1
 _ZN9Qt3DInput5Input5Quick20Quick3DInputSequence11qt_metacallEN11QMetaObject4CallEiPPv@Base 6.2.1
 _ZN9Qt3DInput5Input5Quick20Quick3DInputSequence11qt_metacastEPKc@Base 6.2.1
 _ZN9Qt3DInput5Input5Quick20Quick3DInputSequence15qmlActionInputsEv@Base 6.2.1
 _ZN9Qt3DInput5Input5Quick20Quick3DInputSequence16staticMetaObjectE@Base 6.2.1
 _ZN9Qt3DInput5Input5Quick20Quick3DInputSequenceC1EP7QObject@Base 6.2.1
 _ZN9Qt3DInput5Input5Quick20Quick3DInputSequenceC2EP7QObject@Base 6.2.1
 _ZN9Qt3DInput5Input5Quick20Quick3DLogicalDevice10qmlActionsEv@Base 6.2.1
 _ZN9Qt3DInput5Input5Quick20Quick3DLogicalDevice11qt_metacallEN11QMetaObject4CallEiPPv@Base 6.2.1
 _ZN9Qt3DInput5Input5Quick20Quick3DLogicalDevice11qt_metacastEPKc@Base 6.2.1
 _ZN9Qt3DInput5Input5Quick20Quick3DLogicalDevice16staticMetaObjectE@Base 6.2.1
 _ZN9Qt3DInput5Input5Quick20Quick3DLogicalDevice7qmlAxesEv@Base 6.2.1
 _ZN9Qt3DInput5Input5Quick20Quick3DLogicalDeviceC1EP7QObject@Base 6.2.1
 _ZN9Qt3DInput5Input5Quick20Quick3DLogicalDeviceC2EP7QObject@Base 6.2.1
 _ZN9Qt3DInput5Input5Quick21Quick3DPhysicalDevice11qt_metacallEN11QMetaObject4CallEiPPv@Base 6.2.1
 _ZN9Qt3DInput5Input5Quick21Quick3DPhysicalDevice11qt_metacastEPKc@Base 6.2.1
 _ZN9Qt3DInput5Input5Quick21Quick3DPhysicalDevice12axisSettingsEv@Base 6.2.1
 _ZN9Qt3DInput5Input5Quick21Quick3DPhysicalDevice16staticMetaObjectE@Base 6.2.1
 _ZN9Qt3DInput5Input5Quick21Quick3DPhysicalDeviceC1EP7QObject@Base 6.2.1
 _ZN9Qt3DInput5Input5Quick21Quick3DPhysicalDeviceC2EP7QObject@Base 6.2.1
 _ZN9Qt3DInput5Quick23Quick3DInput_initializeEv@Base 6.2.1
 _ZN9Qt3DInput5Quick25Quick3DInput_registerTypeEPKcS2_ii@Base 6.2.1
 _ZNK9Qt3DInput5Input5Quick11Quick3DAxis10metaObjectEv@Base 6.2.1
 _ZNK9Qt3DInput5Input5Quick13Quick3DAction10metaObjectEv@Base 6.2.1
 _ZNK9Qt3DInput5Input5Quick17Quick3DInputChord10metaObjectEv@Base 6.2.1
 _ZNK9Qt3DInput5Input5Quick20Quick3DInputSequence10metaObjectEv@Base 6.2.1
 _ZNK9Qt3DInput5Input5Quick20Quick3DLogicalDevice10metaObjectEv@Base 6.2.1
 _ZNK9Qt3DInput5Input5Quick21Quick3DPhysicalDevice10metaObjectEv@Base 6.2.1
 _ZTIN9Qt3DInput5Input5Quick11Quick3DAxisE@Base 6.2.1
 _ZTIN9Qt3DInput5Input5Quick13Quick3DActionE@Base 6.2.1
 _ZTIN9Qt3DInput5Input5Quick17Quick3DInputChordE@Base 6.2.1
 _ZTIN9Qt3DInput5Input5Quick20Quick3DInputSequenceE@Base 6.2.1
 _ZTIN9Qt3DInput5Input5Quick20Quick3DLogicalDeviceE@Base 6.2.1
 _ZTIN9Qt3DInput5Input5Quick21Quick3DPhysicalDeviceE@Base 6.2.1
 _ZTSN9Qt3DInput5Input5Quick11Quick3DAxisE@Base 6.2.1
 _ZTSN9Qt3DInput5Input5Quick13Quick3DActionE@Base 6.2.1
 _ZTSN9Qt3DInput5Input5Quick17Quick3DInputChordE@Base 6.2.1
 _ZTSN9Qt3DInput5Input5Quick20Quick3DInputSequenceE@Base 6.2.1
 _ZTSN9Qt3DInput5Input5Quick20Quick3DLogicalDeviceE@Base 6.2.1
 _ZTSN9Qt3DInput5Input5Quick21Quick3DPhysicalDeviceE@Base 6.2.1
 _ZTVN9Qt3DInput5Input5Quick11Quick3DAxisE@Base 6.2.1
 _ZTVN9Qt3DInput5Input5Quick13Quick3DActionE@Base 6.2.1
 _ZTVN9Qt3DInput5Input5Quick17Quick3DInputChordE@Base 6.2.1
 _ZTVN9Qt3DInput5Input5Quick20Quick3DInputSequenceE@Base 6.2.1
 _ZTVN9Qt3DInput5Input5Quick20Quick3DLogicalDeviceE@Base 6.2.1
 _ZTVN9Qt3DInput5Input5Quick21Quick3DPhysicalDeviceE@Base 6.2.1
