# SymbolsHelper-Confirmed: 6.4.0 amd64
libQt63DQuick.so.6 libqt63dquick6 #MINVER#
* Build-Depends-Package: qt6-3d-dev
 _Z28qml_register_types_Qt3D_Corev@Base 6.2.1
 _ZGVZN9QMetaType21registerConverterImplI5QListI10QMatrix4x4E9QIterableI13QMetaSequenceEEEbSt8functionIFbPKvPvEES_S_E10unregister@Base 6.4.0
 _ZGVZN9QMetaType21registerConverterImplI5QListI11QQuaternionE9QIterableI13QMetaSequenceEEEbSt8functionIFbPKvPvEES_S_E10unregister@Base 6.4.0
 _ZGVZN9QMetaType21registerConverterImplI5QListI6QColorE9QIterableI13QMetaSequenceEEEbSt8functionIFbPKvPvEES_S_E10unregister@Base 6.4.0
 _ZGVZN9QMetaType21registerConverterImplI5QListI9QVector2DE9QIterableI13QMetaSequenceEEEbSt8functionIFbPKvPvEES_S_E10unregister@Base 6.4.0
 _ZGVZN9QMetaType21registerConverterImplI5QListI9QVector3DE9QIterableI13QMetaSequenceEEEbSt8functionIFbPKvPvEES_S_E10unregister@Base 6.4.0
 _ZGVZN9QMetaType21registerConverterImplI5QListI9QVector4DE9QIterableI13QMetaSequenceEEEbSt8functionIFbPKvPvEES_S_E10unregister@Base 6.4.0
 _ZGVZN9QMetaType23registerMutableViewImplI5QListI10QMatrix4x4E9QIterableI13QMetaSequenceEEEbSt8functionIFbPvS8_EES_S_E10unregister@Base 6.4.0
 _ZGVZN9QMetaType23registerMutableViewImplI5QListI11QQuaternionE9QIterableI13QMetaSequenceEEEbSt8functionIFbPvS8_EES_S_E10unregister@Base 6.4.0
 _ZGVZN9QMetaType23registerMutableViewImplI5QListI6QColorE9QIterableI13QMetaSequenceEEEbSt8functionIFbPvS8_EES_S_E10unregister@Base 6.4.0
 _ZGVZN9QMetaType23registerMutableViewImplI5QListI9QVector2DE9QIterableI13QMetaSequenceEEEbSt8functionIFbPvS8_EES_S_E10unregister@Base 6.4.0
 _ZGVZN9QMetaType23registerMutableViewImplI5QListI9QVector3DE9QIterableI13QMetaSequenceEEEbSt8functionIFbPvS8_EES_S_E10unregister@Base 6.4.0
 _ZGVZN9QMetaType23registerMutableViewImplI5QListI9QVector4DE9QIterableI13QMetaSequenceEEEbSt8functionIFbPvS8_EES_S_E10unregister@Base 6.4.0
 _ZN13QMetaSequence12MetaSequenceI5QListI10QMatrix4x4EE5valueE@Base 6.4.0
 _ZN13QMetaSequence12MetaSequenceI5QListI11QQuaternionEE5valueE@Base 6.4.0
 _ZN13QMetaSequence12MetaSequenceI5QListI6QColorEE5valueE@Base 6.4.0
 _ZN13QMetaSequence12MetaSequenceI5QListI9QVector2DEE5valueE@Base 6.4.0
 _ZN13QMetaSequence12MetaSequenceI5QListI9QVector3DEE5valueE@Base 6.4.0
 _ZN13QMetaSequence12MetaSequenceI5QListI9QVector4DEE5valueE@Base 6.4.0
 _ZN8Qt3DCore5Quick11Quick3DNode10childNodesEv@Base 6.2.1
 _ZN8Qt3DCore5Quick11Quick3DNode11qt_metacallEN11QMetaObject4CallEiPPv@Base 6.2.1
 _ZN8Qt3DCore5Quick11Quick3DNode11qt_metacastEPKc@Base 6.2.1
 _ZN8Qt3DCore5Quick11Quick3DNode12childRemovedEiP7QObject@Base 6.2.1
 _ZN8Qt3DCore5Quick11Quick3DNode13childAppendedEiP7QObject@Base 6.2.1
 _ZN8Qt3DCore5Quick11Quick3DNode16staticMetaObjectE@Base 6.2.1
 _ZN8Qt3DCore5Quick11Quick3DNode4dataEv@Base 6.2.1
 _ZN8Qt3DCore5Quick11Quick3DNodeC1EP7QObject@Base 6.2.1
 _ZN8Qt3DCore5Quick11Quick3DNodeC2EP7QObject@Base 6.2.1
 _ZN8Qt3DCore5Quick12Quick3DJoint11childJointsEv@Base 6.2.1
 _ZN8Qt3DCore5Quick12Quick3DJoint11qt_metacallEN11QMetaObject4CallEiPPv@Base 6.2.1
 _ZN8Qt3DCore5Quick12Quick3DJoint11qt_metacastEPKc@Base 6.2.1
 _ZN8Qt3DCore5Quick12Quick3DJoint16staticMetaObjectE@Base 6.2.1
 _ZN8Qt3DCore5Quick12Quick3DJointC1EP7QObject@Base 6.2.1
 _ZN8Qt3DCore5Quick12Quick3DJointC2EP7QObject@Base 6.2.1
 _ZN8Qt3DCore5Quick13Quick3DBuffer10updateDataEiRK8QVariant@Base 6.2.1
 _ZN8Qt3DCore5Quick13Quick3DBuffer11initEnginesEv@Base 6.2.1
 _ZN8Qt3DCore5Quick13Quick3DBuffer11qt_metacallEN11QMetaObject4CallEiPPv@Base 6.2.1
 _ZN8Qt3DCore5Quick13Quick3DBuffer11qt_metacastEPKc@Base 6.2.1
 _ZN8Qt3DCore5Quick13Quick3DBuffer13setBufferDataERK8QVariant@Base 6.2.1
 _ZN8Qt3DCore5Quick13Quick3DBuffer14readBinaryFileERK4QUrl@Base 6.2.1
 _ZN8Qt3DCore5Quick13Quick3DBuffer16convertToRawDataERK8QJSValue@Base 6.2.1
 _ZN8Qt3DCore5Quick13Quick3DBuffer16staticMetaObjectE@Base 6.2.1
 _ZN8Qt3DCore5Quick13Quick3DBuffer17bufferDataChangedEv@Base 6.2.1
 _ZN8Qt3DCore5Quick13Quick3DBufferC1EPNS_5QNodeE@Base 6.2.1
 _ZN8Qt3DCore5Quick13Quick3DBufferC2EPNS_5QNodeE@Base 6.2.1
 _ZN8Qt3DCore5Quick13Quick3DEntity11qt_metacallEN11QMetaObject4CallEiPPv@Base 6.2.1
 _ZN8Qt3DCore5Quick13Quick3DEntity11qt_metacastEPKc@Base 6.2.1
 _ZN8Qt3DCore5Quick13Quick3DEntity13componentListEv@Base 6.2.1
 _ZN8Qt3DCore5Quick13Quick3DEntity16staticMetaObjectE@Base 6.2.1
 _ZN8Qt3DCore5Quick13Quick3DEntityC1EP7QObject@Base 6.2.1
 _ZN8Qt3DCore5Quick13Quick3DEntityC2EP7QObject@Base 6.2.1
 _ZN8Qt3DCore5Quick15Quick3DGeometry11qt_metacallEN11QMetaObject4CallEiPPv@Base 6.2.1
 _ZN8Qt3DCore5Quick15Quick3DGeometry11qt_metacastEPKc@Base 6.2.1
 _ZN8Qt3DCore5Quick15Quick3DGeometry13attributeListEv@Base 6.2.1
 _ZN8Qt3DCore5Quick15Quick3DGeometry16staticMetaObjectE@Base 6.2.1
 _ZN8Qt3DCore5Quick15Quick3DGeometryC1EP7QObject@Base 6.2.1
 _ZN8Qt3DCore5Quick15Quick3DGeometryC2EP7QObject@Base 6.2.1
 _ZN8Qt3DCore5Quick16QQmlAspectEngine11qt_metacallEN11QMetaObject4CallEiPPv@Base 6.2.1
 _ZN8Qt3DCore5Quick16QQmlAspectEngine11qt_metacastEPKc@Base 6.2.1
 _ZN8Qt3DCore5Quick16QQmlAspectEngine12sceneCreatedEP7QObject@Base 6.2.1
 _ZN8Qt3DCore5Quick16QQmlAspectEngine13statusChangedENS1_6StatusE@Base 6.2.1
 _ZN8Qt3DCore5Quick16QQmlAspectEngine16staticMetaObjectE@Base 6.2.1
 _ZN8Qt3DCore5Quick16QQmlAspectEngine9setSourceERK4QUrl@Base 6.2.1
 _ZN8Qt3DCore5Quick16QQmlAspectEngineC1EP7QObject@Base 6.2.1
 _ZN8Qt3DCore5Quick16QQmlAspectEngineC2EP7QObject@Base 6.2.1
 _ZN8Qt3DCore5Quick16QQmlAspectEngineD0Ev@Base 6.2.1
 _ZN8Qt3DCore5Quick16QQmlAspectEngineD1Ev@Base 6.2.1
 _ZN8Qt3DCore5Quick16QQmlAspectEngineD2Ev@Base 6.2.1
 _ZN8Qt3DCore5Quick18Quick3D_initializeEv@Base 6.2.1
 _ZN8Qt3DCore5Quick19Quick3DEntityLoader11qt_metacallEN11QMetaObject4CallEiPPv@Base 6.2.1
 _ZN8Qt3DCore5Quick19Quick3DEntityLoader11qt_metacastEPKc@Base 6.2.1
 _ZN8Qt3DCore5Quick19Quick3DEntityLoader13entityChangedEv@Base 6.2.1
 _ZN8Qt3DCore5Quick19Quick3DEntityLoader13sourceChangedEv@Base 6.2.1
 _ZN8Qt3DCore5Quick19Quick3DEntityLoader13statusChangedENS1_6StatusE@Base 6.2.1
 _ZN8Qt3DCore5Quick19Quick3DEntityLoader16staticMetaObjectE@Base 6.2.1
 _ZN8Qt3DCore5Quick19Quick3DEntityLoader18setSourceComponentEP13QQmlComponent@Base 6.2.1
 _ZN8Qt3DCore5Quick19Quick3DEntityLoader22sourceComponentChangedEv@Base 6.2.1
 _ZN8Qt3DCore5Quick19Quick3DEntityLoader9setSourceERK4QUrl@Base 6.2.1
 _ZN8Qt3DCore5Quick19Quick3DEntityLoaderC1EPNS_5QNodeE@Base 6.2.1
 _ZN8Qt3DCore5Quick19Quick3DEntityLoaderC2EPNS_5QNodeE@Base 6.2.1
 _ZN8Qt3DCore5Quick19Quick3DEntityLoaderD0Ev@Base 6.2.1
 _ZN8Qt3DCore5Quick19Quick3DEntityLoaderD1Ev@Base 6.2.1
 _ZN8Qt3DCore5Quick19Quick3DEntityLoaderD2Ev@Base 6.2.1
 _ZN8Qt3DCore5Quick20QQuaternionAnimation11qt_metacallEN11QMetaObject4CallEiPPv@Base 6.2.1
 _ZN8Qt3DCore5Quick20QQuaternionAnimation11qt_metacastEPKc@Base 6.2.1
 _ZN8Qt3DCore5Quick20QQuaternionAnimation11typeChangedENS1_4TypeE@Base 6.2.1
 _ZN8Qt3DCore5Quick20QQuaternionAnimation14setToXRotationEf@Base 6.2.1
 _ZN8Qt3DCore5Quick20QQuaternionAnimation14setToYRotationEf@Base 6.2.1
 _ZN8Qt3DCore5Quick20QQuaternionAnimation14setToZRotationEf@Base 6.2.1
 _ZN8Qt3DCore5Quick20QQuaternionAnimation16setFromXRotationEf@Base 6.2.1
 _ZN8Qt3DCore5Quick20QQuaternionAnimation16setFromYRotationEf@Base 6.2.1
 _ZN8Qt3DCore5Quick20QQuaternionAnimation16setFromZRotationEf@Base 6.2.1
 _ZN8Qt3DCore5Quick20QQuaternionAnimation16staticMetaObjectE@Base 6.2.1
 _ZN8Qt3DCore5Quick20QQuaternionAnimation18toXRotationChangedEf@Base 6.2.1
 _ZN8Qt3DCore5Quick20QQuaternionAnimation18toYRotationChangedEf@Base 6.2.1
 _ZN8Qt3DCore5Quick20QQuaternionAnimation18toZRotationChangedEf@Base 6.2.1
 _ZN8Qt3DCore5Quick20QQuaternionAnimation20fromXRotationChangedEf@Base 6.2.1
 _ZN8Qt3DCore5Quick20QQuaternionAnimation20fromYRotationChangedEf@Base 6.2.1
 _ZN8Qt3DCore5Quick20QQuaternionAnimation20fromZRotationChangedEf@Base 6.2.1
 _ZN8Qt3DCore5Quick20QQuaternionAnimation5setToERK11QQuaternion@Base 6.2.1
 _ZN8Qt3DCore5Quick20QQuaternionAnimation7setFromERK11QQuaternion@Base 6.2.1
 _ZN8Qt3DCore5Quick20QQuaternionAnimation7setTypeENS1_4TypeE@Base 6.2.1
 _ZN8Qt3DCore5Quick20QQuaternionAnimationC1EP7QObject@Base 6.2.1
 _ZN8Qt3DCore5Quick20QQuaternionAnimationC2EP7QObject@Base 6.2.1
 _ZN8Qt3DCore5Quick20Quick3D_registerTypeEPKcS2_ii@Base 6.2.1
 _ZN8Qt3DCore5Quick20Quick3D_uninitializeEv@Base 6.2.1
 _ZN8Qt3DCore5Quick22QQuick3DColorValueType11setHsvValueEd@Base 6.2.1
 _ZN8Qt3DCore5Quick22QQuick3DColorValueType15setHslLightnessEd@Base 6.2.1
 _ZN8Qt3DCore5Quick22QQuick3DColorValueType16setHslSaturationEd@Base 6.2.1
 _ZN8Qt3DCore5Quick22QQuick3DColorValueType16setHsvSaturationEd@Base 6.2.1
 _ZN8Qt3DCore5Quick22QQuick3DColorValueType16staticMetaObjectE@Base 6.2.1
 _ZN8Qt3DCore5Quick22QQuick3DColorValueType4setAEd@Base 6.2.1
 _ZN8Qt3DCore5Quick22QQuick3DColorValueType4setBEd@Base 6.2.1
 _ZN8Qt3DCore5Quick22QQuick3DColorValueType4setGEd@Base 6.2.1
 _ZN8Qt3DCore5Quick22QQuick3DColorValueType4setREd@Base 6.2.1
 _ZN8Qt3DCore5Quick22QQuick3DColorValueType6createERK8QJSValue@Base 6.2.1
 _ZN8Qt3DCore5Quick22QQuick3DColorValueType9setHslHueEd@Base 6.2.1
 _ZN8Qt3DCore5Quick22QQuick3DColorValueType9setHsvHueEd@Base 6.2.1
 _ZN8Qt3DCore5Quick23Quick3DNodeInstantiator10classBeginEv@Base 6.2.1
 _ZN8Qt3DCore5Quick23Quick3DNodeInstantiator11objectAddedEiP7QObject@Base 6.2.1
 _ZN8Qt3DCore5Quick23Quick3DNodeInstantiator11qt_metacallEN11QMetaObject4CallEiPPv@Base 6.2.1
 _ZN8Qt3DCore5Quick23Quick3DNodeInstantiator11qt_metacastEPKc@Base 6.2.1
 _ZN8Qt3DCore5Quick23Quick3DNodeInstantiator11setDelegateEP13QQmlComponent@Base 6.2.1
 _ZN8Qt3DCore5Quick23Quick3DNodeInstantiator12countChangedEv@Base 6.2.1
 _ZN8Qt3DCore5Quick23Quick3DNodeInstantiator12modelChangedEv@Base 6.2.1
 _ZN8Qt3DCore5Quick23Quick3DNodeInstantiator13activeChangedEv@Base 6.2.1
 _ZN8Qt3DCore5Quick23Quick3DNodeInstantiator13objectChangedEv@Base 6.2.1
 _ZN8Qt3DCore5Quick23Quick3DNodeInstantiator13objectRemovedEiP7QObject@Base 6.2.1
 _ZN8Qt3DCore5Quick23Quick3DNodeInstantiator15delegateChangedEv@Base 6.2.1
 _ZN8Qt3DCore5Quick23Quick3DNodeInstantiator15onParentChangedEP7QObject@Base 6.2.1
 _ZN8Qt3DCore5Quick23Quick3DNodeInstantiator16staticMetaObjectE@Base 6.2.1
 _ZN8Qt3DCore5Quick23Quick3DNodeInstantiator17componentCompleteEv@Base 6.2.1
 _ZN8Qt3DCore5Quick23Quick3DNodeInstantiator19asynchronousChangedEv@Base 6.2.1
 _ZN8Qt3DCore5Quick23Quick3DNodeInstantiator8delegateEv@Base 6.2.1
 _ZN8Qt3DCore5Quick23Quick3DNodeInstantiator8setAsyncEb@Base 6.2.1
 _ZN8Qt3DCore5Quick23Quick3DNodeInstantiator8setModelERK8QVariant@Base 6.2.1
 _ZN8Qt3DCore5Quick23Quick3DNodeInstantiator9setActiveEb@Base 6.2.1
 _ZN8Qt3DCore5Quick23Quick3DNodeInstantiatorC1EPNS_5QNodeE@Base 6.2.1
 _ZN8Qt3DCore5Quick23Quick3DNodeInstantiatorC2EPNS_5QNodeE@Base 6.2.1
 _ZN8Qt3DCore5Quick24q_quaternionInterpolatorERK11QQuaternionS3_d@Base 6.2.1
 _ZN8Qt3DCore5Quick25QQuick3DVector2DValueType16staticMetaObjectE@Base 6.2.1
 _ZN8Qt3DCore5Quick25QQuick3DVector2DValueType4setXEd@Base 6.2.1
 _ZN8Qt3DCore5Quick25QQuick3DVector2DValueType4setYEd@Base 6.2.1
 _ZN8Qt3DCore5Quick25QQuick3DVector2DValueType6createERK8QJSValue@Base 6.2.1
 _ZN8Qt3DCore5Quick25QQuick3DVector3DValueType16staticMetaObjectE@Base 6.2.1
 _ZN8Qt3DCore5Quick25QQuick3DVector3DValueType4setXEd@Base 6.2.1
 _ZN8Qt3DCore5Quick25QQuick3DVector3DValueType4setYEd@Base 6.2.1
 _ZN8Qt3DCore5Quick25QQuick3DVector3DValueType4setZEd@Base 6.2.1
 _ZN8Qt3DCore5Quick25QQuick3DVector3DValueType6createERK8QJSValue@Base 6.2.1
 _ZN8Qt3DCore5Quick25QQuick3DVector4DValueType16staticMetaObjectE@Base 6.2.1
 _ZN8Qt3DCore5Quick25QQuick3DVector4DValueType4setWEd@Base 6.2.1
 _ZN8Qt3DCore5Quick25QQuick3DVector4DValueType4setXEd@Base 6.2.1
 _ZN8Qt3DCore5Quick25QQuick3DVector4DValueType4setYEd@Base 6.2.1
 _ZN8Qt3DCore5Quick25QQuick3DVector4DValueType4setZEd@Base 6.2.1
 _ZN8Qt3DCore5Quick25QQuick3DVector4DValueType6createERK8QJSValue@Base 6.2.1
 _ZN8Qt3DCore5Quick26QQuick3DMatrix4x4ValueType16staticMetaObjectE@Base 6.2.1
 _ZN8Qt3DCore5Quick26QQuick3DMatrix4x4ValueType6createERK8QJSValue@Base 6.2.1
 _ZN8Qt3DCore5Quick27QQuick3DQuaternionValueType16staticMetaObjectE@Base 6.2.1
 _ZN8Qt3DCore5Quick27QQuick3DQuaternionValueType4setXEd@Base 6.2.1
 _ZN8Qt3DCore5Quick27QQuick3DQuaternionValueType4setYEd@Base 6.2.1
 _ZN8Qt3DCore5Quick27QQuick3DQuaternionValueType4setZEd@Base 6.2.1
 _ZN8Qt3DCore5Quick27QQuick3DQuaternionValueType6createERK8QJSValue@Base 6.2.1
 _ZN8Qt3DCore5Quick27QQuick3DQuaternionValueType9setScalarEd@Base 6.2.1
 _ZNK8Qt3DCore5Quick11Quick3DNode10metaObjectEv@Base 6.2.1
 _ZNK8Qt3DCore5Quick12Quick3DJoint10metaObjectEv@Base 6.2.1
 _ZNK8Qt3DCore5Quick13Quick3DBuffer10bufferDataEv@Base 6.2.1
 _ZNK8Qt3DCore5Quick13Quick3DBuffer10metaObjectEv@Base 6.2.1
 _ZNK8Qt3DCore5Quick13Quick3DEntity10metaObjectEv@Base 6.2.1
 _ZNK8Qt3DCore5Quick15Quick3DGeometry10metaObjectEv@Base 6.2.1
 _ZNK8Qt3DCore5Quick16QQmlAspectEngine10metaObjectEv@Base 6.2.1
 _ZNK8Qt3DCore5Quick16QQmlAspectEngine12aspectEngineEv@Base 6.2.1
 _ZNK8Qt3DCore5Quick16QQmlAspectEngine6statusEv@Base 6.2.1
 _ZNK8Qt3DCore5Quick16QQmlAspectEngine9qmlEngineEv@Base 6.2.1
 _ZNK8Qt3DCore5Quick19Quick3DEntityLoader10metaObjectEv@Base 6.2.1
 _ZNK8Qt3DCore5Quick19Quick3DEntityLoader15sourceComponentEv@Base 6.2.1
 _ZNK8Qt3DCore5Quick19Quick3DEntityLoader6entityEv@Base 6.2.1
 _ZNK8Qt3DCore5Quick19Quick3DEntityLoader6sourceEv@Base 6.2.1
 _ZNK8Qt3DCore5Quick19Quick3DEntityLoader6statusEv@Base 6.2.1
 _ZNK8Qt3DCore5Quick20QQuaternionAnimation10metaObjectEv@Base 6.2.1
 _ZNK8Qt3DCore5Quick20QQuaternionAnimation11toXRotationEv@Base 6.2.1
 _ZNK8Qt3DCore5Quick20QQuaternionAnimation11toYRotationEv@Base 6.2.1
 _ZNK8Qt3DCore5Quick20QQuaternionAnimation11toZRotationEv@Base 6.2.1
 _ZNK8Qt3DCore5Quick20QQuaternionAnimation13fromXRotationEv@Base 6.2.1
 _ZNK8Qt3DCore5Quick20QQuaternionAnimation13fromYRotationEv@Base 6.2.1
 _ZNK8Qt3DCore5Quick20QQuaternionAnimation13fromZRotationEv@Base 6.2.1
 _ZNK8Qt3DCore5Quick20QQuaternionAnimation2toEv@Base 6.2.1
 _ZNK8Qt3DCore5Quick20QQuaternionAnimation4fromEv@Base 6.2.1
 _ZNK8Qt3DCore5Quick20QQuaternionAnimation4typeEv@Base 6.2.1
 _ZNK8Qt3DCore5Quick22QQuick3DColorValueType12hslLightnessEv@Base 6.2.1
 _ZNK8Qt3DCore5Quick22QQuick3DColorValueType13hslSaturationEv@Base 6.2.1
 _ZNK8Qt3DCore5Quick22QQuick3DColorValueType13hsvSaturationEv@Base 6.2.1
 _ZNK8Qt3DCore5Quick22QQuick3DColorValueType1aEv@Base 6.2.1
 _ZNK8Qt3DCore5Quick22QQuick3DColorValueType1bEv@Base 6.2.1
 _ZNK8Qt3DCore5Quick22QQuick3DColorValueType1gEv@Base 6.2.1
 _ZNK8Qt3DCore5Quick22QQuick3DColorValueType1rEv@Base 6.2.1
 _ZNK8Qt3DCore5Quick22QQuick3DColorValueType4tintE8QVariant@Base 6.2.1
 _ZNK8Qt3DCore5Quick22QQuick3DColorValueType5alphaEd@Base 6.2.1
 _ZNK8Qt3DCore5Quick22QQuick3DColorValueType6darkerEd@Base 6.2.1
 _ZNK8Qt3DCore5Quick22QQuick3DColorValueType6hslHueEv@Base 6.2.1
 _ZNK8Qt3DCore5Quick22QQuick3DColorValueType6hsvHueEv@Base 6.2.1
 _ZNK8Qt3DCore5Quick22QQuick3DColorValueType7isValidEv@Base 6.2.1
 _ZNK8Qt3DCore5Quick22QQuick3DColorValueType7lighterEd@Base 6.2.1
 _ZNK8Qt3DCore5Quick22QQuick3DColorValueType8hsvValueEv@Base 6.2.1
 _ZNK8Qt3DCore5Quick22QQuick3DColorValueType8toStringEv@Base 6.2.1
 _ZNK8Qt3DCore5Quick23Quick3DNodeInstantiator10metaObjectEv@Base 6.2.1
 _ZNK8Qt3DCore5Quick23Quick3DNodeInstantiator5countEv@Base 6.2.1
 _ZNK8Qt3DCore5Quick23Quick3DNodeInstantiator5modelEv@Base 6.2.1
 _ZNK8Qt3DCore5Quick23Quick3DNodeInstantiator6objectEv@Base 6.2.1
 _ZNK8Qt3DCore5Quick23Quick3DNodeInstantiator7isAsyncEv@Base 6.2.1
 _ZNK8Qt3DCore5Quick23Quick3DNodeInstantiator8isActiveEv@Base 6.2.1
 _ZNK8Qt3DCore5Quick23Quick3DNodeInstantiator8objectAtEi@Base 6.2.1
 _ZNK8Qt3DCore5Quick25QQuick3DVector2DValueType10dotProductERK9QVector2D@Base 6.2.1
 _ZNK8Qt3DCore5Quick25QQuick3DVector2DValueType10normalizedEv@Base 6.2.1
 _ZNK8Qt3DCore5Quick25QQuick3DVector2DValueType10toVector3dEv@Base 6.2.1
 _ZNK8Qt3DCore5Quick25QQuick3DVector2DValueType10toVector4dEv@Base 6.2.1
 _ZNK8Qt3DCore5Quick25QQuick3DVector2DValueType11fuzzyEqualsERK9QVector2D@Base 6.2.1
 _ZNK8Qt3DCore5Quick25QQuick3DVector2DValueType11fuzzyEqualsERK9QVector2Dd@Base 6.2.1
 _ZNK8Qt3DCore5Quick25QQuick3DVector2DValueType1xEv@Base 6.2.1
 _ZNK8Qt3DCore5Quick25QQuick3DVector2DValueType1yEv@Base 6.2.1
 _ZNK8Qt3DCore5Quick25QQuick3DVector2DValueType4plusERK9QVector2D@Base 6.2.1
 _ZNK8Qt3DCore5Quick25QQuick3DVector2DValueType5minusERK9QVector2D@Base 6.2.1
 _ZNK8Qt3DCore5Quick25QQuick3DVector2DValueType5timesERK9QVector2D@Base 6.2.1
 _ZNK8Qt3DCore5Quick25QQuick3DVector2DValueType5timesEd@Base 6.2.1
 _ZNK8Qt3DCore5Quick25QQuick3DVector2DValueType6lengthEv@Base 6.2.1
 _ZNK8Qt3DCore5Quick25QQuick3DVector2DValueType8toStringEv@Base 6.2.1
 _ZNK8Qt3DCore5Quick25QQuick3DVector3DValueType10dotProductERK9QVector3D@Base 6.2.1
 _ZNK8Qt3DCore5Quick25QQuick3DVector3DValueType10normalizedEv@Base 6.2.1
 _ZNK8Qt3DCore5Quick25QQuick3DVector3DValueType10toVector2dEv@Base 6.2.1
 _ZNK8Qt3DCore5Quick25QQuick3DVector3DValueType10toVector4dEv@Base 6.2.1
 _ZNK8Qt3DCore5Quick25QQuick3DVector3DValueType11fuzzyEqualsERK9QVector3D@Base 6.2.1
 _ZNK8Qt3DCore5Quick25QQuick3DVector3DValueType11fuzzyEqualsERK9QVector3Dd@Base 6.2.1
 _ZNK8Qt3DCore5Quick25QQuick3DVector3DValueType12crossProductERK9QVector3D@Base 6.2.1
 _ZNK8Qt3DCore5Quick25QQuick3DVector3DValueType1xEv@Base 6.2.1
 _ZNK8Qt3DCore5Quick25QQuick3DVector3DValueType1yEv@Base 6.2.1
 _ZNK8Qt3DCore5Quick25QQuick3DVector3DValueType1zEv@Base 6.2.1
 _ZNK8Qt3DCore5Quick25QQuick3DVector3DValueType4plusERK9QVector3D@Base 6.2.1
 _ZNK8Qt3DCore5Quick25QQuick3DVector3DValueType5minusERK9QVector3D@Base 6.2.1
 _ZNK8Qt3DCore5Quick25QQuick3DVector3DValueType5timesERK10QMatrix4x4@Base 6.2.1
 _ZNK8Qt3DCore5Quick25QQuick3DVector3DValueType5timesERK9QVector3D@Base 6.2.1
 _ZNK8Qt3DCore5Quick25QQuick3DVector3DValueType5timesEd@Base 6.2.1
 _ZNK8Qt3DCore5Quick25QQuick3DVector3DValueType6lengthEv@Base 6.2.1
 _ZNK8Qt3DCore5Quick25QQuick3DVector3DValueType8toStringEv@Base 6.2.1
 _ZNK8Qt3DCore5Quick25QQuick3DVector4DValueType10dotProductERK9QVector4D@Base 6.2.1
 _ZNK8Qt3DCore5Quick25QQuick3DVector4DValueType10normalizedEv@Base 6.2.1
 _ZNK8Qt3DCore5Quick25QQuick3DVector4DValueType10toVector2dEv@Base 6.2.1
 _ZNK8Qt3DCore5Quick25QQuick3DVector4DValueType10toVector3dEv@Base 6.2.1
 _ZNK8Qt3DCore5Quick25QQuick3DVector4DValueType11fuzzyEqualsERK9QVector4D@Base 6.2.1
 _ZNK8Qt3DCore5Quick25QQuick3DVector4DValueType11fuzzyEqualsERK9QVector4Dd@Base 6.2.1
 _ZNK8Qt3DCore5Quick25QQuick3DVector4DValueType1wEv@Base 6.2.1
 _ZNK8Qt3DCore5Quick25QQuick3DVector4DValueType1xEv@Base 6.2.1
 _ZNK8Qt3DCore5Quick25QQuick3DVector4DValueType1yEv@Base 6.2.1
 _ZNK8Qt3DCore5Quick25QQuick3DVector4DValueType1zEv@Base 6.2.1
 _ZNK8Qt3DCore5Quick25QQuick3DVector4DValueType4plusERK9QVector4D@Base 6.2.1
 _ZNK8Qt3DCore5Quick25QQuick3DVector4DValueType5minusERK9QVector4D@Base 6.2.1
 _ZNK8Qt3DCore5Quick25QQuick3DVector4DValueType5timesERK10QMatrix4x4@Base 6.2.1
 _ZNK8Qt3DCore5Quick25QQuick3DVector4DValueType5timesERK9QVector4D@Base 6.2.1
 _ZNK8Qt3DCore5Quick25QQuick3DVector4DValueType5timesEd@Base 6.2.1
 _ZNK8Qt3DCore5Quick25QQuick3DVector4DValueType6lengthEv@Base 6.2.1
 _ZNK8Qt3DCore5Quick25QQuick3DVector4DValueType8toStringEv@Base 6.2.1
 _ZNK8Qt3DCore5Quick26QQuick3DMatrix4x4ValueType10transposedEv@Base 6.2.1
 _ZNK8Qt3DCore5Quick26QQuick3DMatrix4x4ValueType11determinantEv@Base 6.2.1
 _ZNK8Qt3DCore5Quick26QQuick3DMatrix4x4ValueType11fuzzyEqualsERK10QMatrix4x4@Base 6.2.1
 _ZNK8Qt3DCore5Quick26QQuick3DMatrix4x4ValueType11fuzzyEqualsERK10QMatrix4x4d@Base 6.2.1
 _ZNK8Qt3DCore5Quick26QQuick3DMatrix4x4ValueType3rowEi@Base 6.2.1
 _ZNK8Qt3DCore5Quick26QQuick3DMatrix4x4ValueType4plusERK10QMatrix4x4@Base 6.2.1
 _ZNK8Qt3DCore5Quick26QQuick3DMatrix4x4ValueType5minusERK10QMatrix4x4@Base 6.2.1
 _ZNK8Qt3DCore5Quick26QQuick3DMatrix4x4ValueType5timesERK10QMatrix4x4@Base 6.2.1
 _ZNK8Qt3DCore5Quick26QQuick3DMatrix4x4ValueType5timesERK9QVector3D@Base 6.2.1
 _ZNK8Qt3DCore5Quick26QQuick3DMatrix4x4ValueType5timesERK9QVector4D@Base 6.2.1
 _ZNK8Qt3DCore5Quick26QQuick3DMatrix4x4ValueType5timesEd@Base 6.2.1
 _ZNK8Qt3DCore5Quick26QQuick3DMatrix4x4ValueType6columnEi@Base 6.2.1
 _ZNK8Qt3DCore5Quick26QQuick3DMatrix4x4ValueType8invertedEv@Base 6.2.1
 _ZNK8Qt3DCore5Quick27QQuick3DQuaternionValueType1xEv@Base 6.2.1
 _ZNK8Qt3DCore5Quick27QQuick3DQuaternionValueType1yEv@Base 6.2.1
 _ZNK8Qt3DCore5Quick27QQuick3DQuaternionValueType1zEv@Base 6.2.1
 _ZNK8Qt3DCore5Quick27QQuick3DQuaternionValueType6scalarEv@Base 6.2.1
 _ZNK8Qt3DCore5Quick27QQuick3DQuaternionValueType8toStringEv@Base 6.2.1
 _ZTIN8Qt3DCore5Quick11Quick3DNodeE@Base 6.2.1
 _ZTIN8Qt3DCore5Quick12Quick3DJointE@Base 6.2.1
 _ZTIN8Qt3DCore5Quick13Quick3DBufferE@Base 6.2.1
 _ZTIN8Qt3DCore5Quick13Quick3DEntityE@Base 6.2.1
 _ZTIN8Qt3DCore5Quick15Quick3DGeometryE@Base 6.2.1
 _ZTIN8Qt3DCore5Quick16QQmlAspectEngineE@Base 6.2.1
 _ZTIN8Qt3DCore5Quick19Quick3DEntityLoaderE@Base 6.2.1
 _ZTIN8Qt3DCore5Quick20QQuaternionAnimationE@Base 6.2.1
 _ZTIN8Qt3DCore5Quick23Quick3DNodeInstantiatorE@Base 6.2.1
 _ZTIZN9QMetaType17registerConverterI5QListI10QMatrix4x4E9QIterableI13QMetaSequenceEN9QtPrivate33QSequentialIterableConvertFunctorIS3_EEEEbT1_EUlPKvPvE_@Base 6.4.0
 _ZTIZN9QMetaType17registerConverterI5QListI11QQuaternionE9QIterableI13QMetaSequenceEN9QtPrivate33QSequentialIterableConvertFunctorIS3_EEEEbT1_EUlPKvPvE_@Base 6.4.0
 _ZTIZN9QMetaType17registerConverterI5QListI6QColorE9QIterableI13QMetaSequenceEN9QtPrivate33QSequentialIterableConvertFunctorIS3_EEEEbT1_EUlPKvPvE_@Base 6.4.0
 _ZTIZN9QMetaType17registerConverterI5QListI9QVector2DE9QIterableI13QMetaSequenceEN9QtPrivate33QSequentialIterableConvertFunctorIS3_EEEEbT1_EUlPKvPvE_@Base 6.4.0
 _ZTIZN9QMetaType17registerConverterI5QListI9QVector3DE9QIterableI13QMetaSequenceEN9QtPrivate33QSequentialIterableConvertFunctorIS3_EEEEbT1_EUlPKvPvE_@Base 6.4.0
 _ZTIZN9QMetaType17registerConverterI5QListI9QVector4DE9QIterableI13QMetaSequenceEN9QtPrivate33QSequentialIterableConvertFunctorIS3_EEEEbT1_EUlPKvPvE_@Base 6.4.0
 _ZTIZN9QMetaType19registerMutableViewI5QListI10QMatrix4x4E9QIterableI13QMetaSequenceEN9QtPrivate37QSequentialIterableMutableViewFunctorIS3_EEEEbT1_EUlPvSB_E_@Base 6.4.0
 _ZTIZN9QMetaType19registerMutableViewI5QListI11QQuaternionE9QIterableI13QMetaSequenceEN9QtPrivate37QSequentialIterableMutableViewFunctorIS3_EEEEbT1_EUlPvSB_E_@Base 6.4.0
 _ZTIZN9QMetaType19registerMutableViewI5QListI6QColorE9QIterableI13QMetaSequenceEN9QtPrivate37QSequentialIterableMutableViewFunctorIS3_EEEEbT1_EUlPvSB_E_@Base 6.4.0
 _ZTIZN9QMetaType19registerMutableViewI5QListI9QVector2DE9QIterableI13QMetaSequenceEN9QtPrivate37QSequentialIterableMutableViewFunctorIS3_EEEEbT1_EUlPvSB_E_@Base 6.4.0
 _ZTIZN9QMetaType19registerMutableViewI5QListI9QVector3DE9QIterableI13QMetaSequenceEN9QtPrivate37QSequentialIterableMutableViewFunctorIS3_EEEEbT1_EUlPvSB_E_@Base 6.4.0
 _ZTIZN9QMetaType19registerMutableViewI5QListI9QVector4DE9QIterableI13QMetaSequenceEN9QtPrivate37QSequentialIterableMutableViewFunctorIS3_EEEEbT1_EUlPvSB_E_@Base 6.4.0
 _ZTSN8Qt3DCore5Quick11Quick3DNodeE@Base 6.2.1
 _ZTSN8Qt3DCore5Quick12Quick3DJointE@Base 6.2.1
 _ZTSN8Qt3DCore5Quick13Quick3DBufferE@Base 6.2.1
 _ZTSN8Qt3DCore5Quick13Quick3DEntityE@Base 6.2.1
 _ZTSN8Qt3DCore5Quick15Quick3DGeometryE@Base 6.2.1
 _ZTSN8Qt3DCore5Quick16QQmlAspectEngineE@Base 6.2.1
 _ZTSN8Qt3DCore5Quick19Quick3DEntityLoaderE@Base 6.2.1
 _ZTSN8Qt3DCore5Quick20QQuaternionAnimationE@Base 6.2.1
 _ZTSN8Qt3DCore5Quick23Quick3DNodeInstantiatorE@Base 6.2.1
 _ZTSZN9QMetaType17registerConverterI5QListI10QMatrix4x4E9QIterableI13QMetaSequenceEN9QtPrivate33QSequentialIterableConvertFunctorIS3_EEEEbT1_EUlPKvPvE_@Base 6.4.0
 _ZTSZN9QMetaType17registerConverterI5QListI11QQuaternionE9QIterableI13QMetaSequenceEN9QtPrivate33QSequentialIterableConvertFunctorIS3_EEEEbT1_EUlPKvPvE_@Base 6.4.0
 _ZTSZN9QMetaType17registerConverterI5QListI6QColorE9QIterableI13QMetaSequenceEN9QtPrivate33QSequentialIterableConvertFunctorIS3_EEEEbT1_EUlPKvPvE_@Base 6.4.0
 _ZTSZN9QMetaType17registerConverterI5QListI9QVector2DE9QIterableI13QMetaSequenceEN9QtPrivate33QSequentialIterableConvertFunctorIS3_EEEEbT1_EUlPKvPvE_@Base 6.4.0
 _ZTSZN9QMetaType17registerConverterI5QListI9QVector3DE9QIterableI13QMetaSequenceEN9QtPrivate33QSequentialIterableConvertFunctorIS3_EEEEbT1_EUlPKvPvE_@Base 6.4.0
 _ZTSZN9QMetaType17registerConverterI5QListI9QVector4DE9QIterableI13QMetaSequenceEN9QtPrivate33QSequentialIterableConvertFunctorIS3_EEEEbT1_EUlPKvPvE_@Base 6.4.0
 _ZTSZN9QMetaType19registerMutableViewI5QListI10QMatrix4x4E9QIterableI13QMetaSequenceEN9QtPrivate37QSequentialIterableMutableViewFunctorIS3_EEEEbT1_EUlPvSB_E_@Base 6.4.0
 _ZTSZN9QMetaType19registerMutableViewI5QListI11QQuaternionE9QIterableI13QMetaSequenceEN9QtPrivate37QSequentialIterableMutableViewFunctorIS3_EEEEbT1_EUlPvSB_E_@Base 6.4.0
 _ZTSZN9QMetaType19registerMutableViewI5QListI6QColorE9QIterableI13QMetaSequenceEN9QtPrivate37QSequentialIterableMutableViewFunctorIS3_EEEEbT1_EUlPvSB_E_@Base 6.4.0
 _ZTSZN9QMetaType19registerMutableViewI5QListI9QVector2DE9QIterableI13QMetaSequenceEN9QtPrivate37QSequentialIterableMutableViewFunctorIS3_EEEEbT1_EUlPvSB_E_@Base 6.4.0
 _ZTSZN9QMetaType19registerMutableViewI5QListI9QVector3DE9QIterableI13QMetaSequenceEN9QtPrivate37QSequentialIterableMutableViewFunctorIS3_EEEEbT1_EUlPvSB_E_@Base 6.4.0
 _ZTSZN9QMetaType19registerMutableViewI5QListI9QVector4DE9QIterableI13QMetaSequenceEN9QtPrivate37QSequentialIterableMutableViewFunctorIS3_EEEEbT1_EUlPvSB_E_@Base 6.4.0
 _ZTVN8Qt3DCore5Quick11Quick3DNodeE@Base 6.2.1
 _ZTVN8Qt3DCore5Quick12Quick3DJointE@Base 6.2.1
 _ZTVN8Qt3DCore5Quick13Quick3DBufferE@Base 6.2.1
 _ZTVN8Qt3DCore5Quick13Quick3DEntityE@Base 6.2.1
 _ZTVN8Qt3DCore5Quick15Quick3DGeometryE@Base 6.2.1
 _ZTVN8Qt3DCore5Quick16QQmlAspectEngineE@Base 6.2.1
 _ZTVN8Qt3DCore5Quick19Quick3DEntityLoaderE@Base 6.2.1
 _ZTVN8Qt3DCore5Quick20QQuaternionAnimationE@Base 6.2.1
 _ZTVN8Qt3DCore5Quick23Quick3DNodeInstantiatorE@Base 6.2.1
 (optional=templinst)_ZZN9QMetaType21registerConverterImplI5QListI10QMatrix4x4E9QIterableI13QMetaSequenceEEEbSt8functionIFbPKvPvEES_S_E10unregister@Base 6.4.0
 (optional=templinst)_ZZN9QMetaType21registerConverterImplI5QListI11QQuaternionE9QIterableI13QMetaSequenceEEEbSt8functionIFbPKvPvEES_S_E10unregister@Base 6.4.0
 (optional=templinst)_ZZN9QMetaType21registerConverterImplI5QListI6QColorE9QIterableI13QMetaSequenceEEEbSt8functionIFbPKvPvEES_S_E10unregister@Base 6.4.0
 (optional=templinst)_ZZN9QMetaType21registerConverterImplI5QListI9QVector2DE9QIterableI13QMetaSequenceEEEbSt8functionIFbPKvPvEES_S_E10unregister@Base 6.4.0
 (optional=templinst)_ZZN9QMetaType21registerConverterImplI5QListI9QVector3DE9QIterableI13QMetaSequenceEEEbSt8functionIFbPKvPvEES_S_E10unregister@Base 6.4.0
 (optional=templinst)_ZZN9QMetaType21registerConverterImplI5QListI9QVector4DE9QIterableI13QMetaSequenceEEEbSt8functionIFbPKvPvEES_S_E10unregister@Base 6.4.0
 (optional=templinst)_ZZN9QMetaType23registerMutableViewImplI5QListI10QMatrix4x4E9QIterableI13QMetaSequenceEEEbSt8functionIFbPvS8_EES_S_E10unregister@Base 6.4.0
 (optional=templinst)_ZZN9QMetaType23registerMutableViewImplI5QListI11QQuaternionE9QIterableI13QMetaSequenceEEEbSt8functionIFbPvS8_EES_S_E10unregister@Base 6.4.0
 (optional=templinst)_ZZN9QMetaType23registerMutableViewImplI5QListI6QColorE9QIterableI13QMetaSequenceEEEbSt8functionIFbPvS8_EES_S_E10unregister@Base 6.4.0
 (optional=templinst)_ZZN9QMetaType23registerMutableViewImplI5QListI9QVector2DE9QIterableI13QMetaSequenceEEEbSt8functionIFbPvS8_EES_S_E10unregister@Base 6.4.0
 (optional=templinst)_ZZN9QMetaType23registerMutableViewImplI5QListI9QVector3DE9QIterableI13QMetaSequenceEEEbSt8functionIFbPvS8_EES_S_E10unregister@Base 6.4.0
 (optional=templinst)_ZZN9QMetaType23registerMutableViewImplI5QListI9QVector4DE9QIterableI13QMetaSequenceEEEbSt8functionIFbPvS8_EES_S_E10unregister@Base 6.4.0
 (c++)"non-virtual thunk to Qt3DCore::Quick::Quick3DNodeInstantiator::classBegin()@Base" 6.2.1
 (c++)"non-virtual thunk to Qt3DCore::Quick::Quick3DNodeInstantiator::componentComplete()@Base" 6.2.1
