# SymbolsHelper-Confirmed: 6.4.0 amd64
libQt63DInput.so.6 libqt63dinput6 #MINVER#
* Build-Depends-Package: qt6-3d-dev
 _ZGVZN9QMetaType21registerConverterImplI5QListIiE9QIterableI13QMetaSequenceEEEbSt8functionIFbPKvPvEES_S_E10unregister@Base 6.2.1
 _ZGVZN9QMetaType23registerMutableViewImplI5QListIiE9QIterableI13QMetaSequenceEEEbSt8functionIFbPvS7_EES_S_E10unregister@Base 6.2.1
 _ZN13QMetaSequence12MetaSequenceI5QListIiEE5valueE@Base 6.2.1
 _ZN9Qt3DInput11QInputChord10setTimeoutEi@Base 6.2.1
 _ZN9Qt3DInput11QInputChord11qt_metacallEN11QMetaObject4CallEiPPv@Base 6.2.1
 _ZN9Qt3DInput11QInputChord11qt_metacastEPKc@Base 6.2.1
 _ZN9Qt3DInput11QInputChord11removeChordEPNS_20QAbstractActionInputE@Base 6.2.1
 _ZN9Qt3DInput11QInputChord14timeoutChangedEi@Base 6.2.1
 _ZN9Qt3DInput11QInputChord16staticMetaObjectE@Base 6.2.1
 _ZN9Qt3DInput11QInputChord8addChordEPNS_20QAbstractActionInputE@Base 6.2.1
 _ZN9Qt3DInput11QInputChordC1EPN8Qt3DCore5QNodeE@Base 6.2.1
 _ZN9Qt3DInput11QInputChordC2EPN8Qt3DCore5QNodeE@Base 6.2.1
 _ZN9Qt3DInput11QInputChordD0Ev@Base 6.2.1
 _ZN9Qt3DInput11QInputChordD1Ev@Base 6.2.1
 _ZN9Qt3DInput11QInputChordD2Ev@Base 6.2.1
 _ZN9Qt3DInput11QMouseEvent11qt_metacallEN11QMetaObject4CallEiPPv@Base 6.2.1
 _ZN9Qt3DInput11QMouseEvent11qt_metacastEPKc@Base 6.2.1
 _ZN9Qt3DInput11QMouseEvent16staticMetaObjectE@Base 6.2.1
 _ZN9Qt3DInput11QMouseEventC1ERK11QMouseEvent@Base 6.2.1
 _ZN9Qt3DInput11QMouseEventC2ERK11QMouseEvent@Base 6.2.1
 _ZN9Qt3DInput11QMouseEventD0Ev@Base 6.2.1
 _ZN9Qt3DInput11QMouseEventD1Ev@Base 6.2.1
 _ZN9Qt3DInput11QMouseEventD2Ev@Base 6.2.1
 _ZN9Qt3DInput11QWheelEvent11qt_metacallEN11QMetaObject4CallEiPPv@Base 6.2.1
 _ZN9Qt3DInput11QWheelEvent11qt_metacastEPKc@Base 6.2.1
 _ZN9Qt3DInput11QWheelEvent16staticMetaObjectE@Base 6.2.1
 _ZN9Qt3DInput11QWheelEventC1ERK11QWheelEvent@Base 6.2.1
 _ZN9Qt3DInput11QWheelEventC2ERK11QWheelEvent@Base 6.2.1
 _ZN9Qt3DInput11QWheelEventD0Ev@Base 6.2.1
 _ZN9Qt3DInput11QWheelEventD1Ev@Base 6.2.1
 _ZN9Qt3DInput11QWheelEventD2Ev@Base 6.2.1
 _ZN9Qt3DInput12QActionInput10setButtonsERK5QListIiE@Base 6.2.1
 _ZN9Qt3DInput12QActionInput11qt_metacallEN11QMetaObject4CallEiPPv@Base 6.2.1
 _ZN9Qt3DInput12QActionInput11qt_metacastEPKc@Base 6.2.1
 _ZN9Qt3DInput12QActionInput14buttonsChangedERK5QListIiE@Base 6.2.1
 _ZN9Qt3DInput12QActionInput15setSourceDeviceEPNS_23QAbstractPhysicalDeviceE@Base 6.2.1
 _ZN9Qt3DInput12QActionInput16staticMetaObjectE@Base 6.2.1
 _ZN9Qt3DInput12QActionInput19sourceDeviceChangedEPNS_23QAbstractPhysicalDeviceE@Base 6.2.1
 _ZN9Qt3DInput12QActionInputC1EPN8Qt3DCore5QNodeE@Base 6.2.1
 _ZN9Qt3DInput12QActionInputC2EPN8Qt3DCore5QNodeE@Base 6.2.1
 _ZN9Qt3DInput12QActionInputD0Ev@Base 6.2.1
 _ZN9Qt3DInput12QActionInputD1Ev@Base 6.2.1
 _ZN9Qt3DInput12QActionInputD2Ev@Base 6.2.1
 _ZN9Qt3DInput12QAxisSetting11axesChangedERK5QListIiE@Base 6.2.1
 _ZN9Qt3DInput12QAxisSetting11qt_metacallEN11QMetaObject4CallEiPPv@Base 6.2.1
 _ZN9Qt3DInput12QAxisSetting11qt_metacastEPKc@Base 6.2.1
 _ZN9Qt3DInput12QAxisSetting13smoothChangedEb@Base 6.2.1
 _ZN9Qt3DInput12QAxisSetting16setSmoothEnabledEb@Base 6.2.1
 _ZN9Qt3DInput12QAxisSetting16staticMetaObjectE@Base 6.2.1
 _ZN9Qt3DInput12QAxisSetting17setDeadZoneRadiusEf@Base 6.2.1
 _ZN9Qt3DInput12QAxisSetting21deadZoneRadiusChangedEf@Base 6.2.1
 _ZN9Qt3DInput12QAxisSetting7setAxesERK5QListIiE@Base 6.2.1
 _ZN9Qt3DInput12QAxisSettingC1EPN8Qt3DCore5QNodeE@Base 6.2.1
 _ZN9Qt3DInput12QAxisSettingC2EPN8Qt3DCore5QNodeE@Base 6.2.1
 _ZN9Qt3DInput12QAxisSettingD0Ev@Base 6.2.1
 _ZN9Qt3DInput12QAxisSettingD1Ev@Base 6.2.1
 _ZN9Qt3DInput12QAxisSettingD2Ev@Base 6.2.1
 _ZN9Qt3DInput12QInputAspect11qt_metacallEN11QMetaObject4CallEiPPv@Base 6.2.1
 _ZN9Qt3DInput12QInputAspect11qt_metacastEPKc@Base 6.2.1
 _ZN9Qt3DInput12QInputAspect12onRegisteredEv@Base 6.2.1
 _ZN9Qt3DInput12QInputAspect13jobsToExecuteEx@Base 6.2.1
 _ZN9Qt3DInput12QInputAspect14onUnregisteredEv@Base 6.2.1
 _ZN9Qt3DInput12QInputAspect15onEngineStartupEv@Base 6.2.1
 _ZN9Qt3DInput12QInputAspect16staticMetaObjectE@Base 6.2.1
 _ZN9Qt3DInput12QInputAspect20createPhysicalDeviceERK7QString@Base 6.2.1
 _ZN9Qt3DInput12QInputAspect8jobsDoneEv@Base 6.2.1
 _ZN9Qt3DInput12QInputAspectC1EP7QObject@Base 6.2.1
 _ZN9Qt3DInput12QInputAspectC1ERNS_19QInputAspectPrivateEP7QObject@Base 6.2.1
 _ZN9Qt3DInput12QInputAspectC2EP7QObject@Base 6.2.1
 _ZN9Qt3DInput12QInputAspectC2ERNS_19QInputAspectPrivateEP7QObject@Base 6.2.1
 _ZN9Qt3DInput12QInputAspectD0Ev@Base 6.2.1
 _ZN9Qt3DInput12QInputAspectD1Ev@Base 6.2.1
 _ZN9Qt3DInput12QInputAspectD2Ev@Base 6.2.1
 _ZN9Qt3DInput12QMouseDevice11qt_metacallEN11QMetaObject4CallEiPPv@Base 6.2.1
 _ZN9Qt3DInput12QMouseDevice11qt_metacastEPKc@Base 6.2.1
 _ZN9Qt3DInput12QMouseDevice14setSensitivityEf@Base 6.2.1
 _ZN9Qt3DInput12QMouseDevice16staticMetaObjectE@Base 6.2.1
 _ZN9Qt3DInput12QMouseDevice18sensitivityChangedEf@Base 6.2.1
 _ZN9Qt3DInput12QMouseDevice25setUpdateAxesContinuouslyEb@Base 6.2.1
 _ZN9Qt3DInput12QMouseDevice29updateAxesContinuouslyChangedEb@Base 6.2.1
 _ZN9Qt3DInput12QMouseDeviceC1EPN8Qt3DCore5QNodeE@Base 6.2.1
 _ZN9Qt3DInput12QMouseDeviceC2EPN8Qt3DCore5QNodeE@Base 6.2.1
 _ZN9Qt3DInput12QMouseDeviceD0Ev@Base 6.2.1
 _ZN9Qt3DInput12QMouseDeviceD1Ev@Base 6.2.1
 _ZN9Qt3DInput12QMouseDeviceD2Ev@Base 6.2.1
 _ZN9Qt3DInput13QMouseHandler11qt_metacallEN11QMetaObject4CallEiPPv@Base 6.2.1
 _ZN9Qt3DInput13QMouseHandler11qt_metacastEPKc@Base 6.2.1
 _ZN9Qt3DInput13QMouseHandler12pressAndHoldEPNS_11QMouseEventE@Base 6.2.1
 _ZN9Qt3DInput13QMouseHandler13doubleClickedEPNS_11QMouseEventE@Base 6.2.1
 _ZN9Qt3DInput13QMouseHandler15positionChangedEPNS_11QMouseEventE@Base 6.2.1
 _ZN9Qt3DInput13QMouseHandler15setSourceDeviceEPNS_12QMouseDeviceE@Base 6.2.1
 _ZN9Qt3DInput13QMouseHandler16setContainsMouseEb@Base 6.2.1
 _ZN9Qt3DInput13QMouseHandler16staticMetaObjectE@Base 6.2.1
 _ZN9Qt3DInput13QMouseHandler19sourceDeviceChangedEPNS_12QMouseDeviceE@Base 6.2.1
 _ZN9Qt3DInput13QMouseHandler20containsMouseChangedEb@Base 6.2.1
 _ZN9Qt3DInput13QMouseHandler5wheelEPNS_11QWheelEventE@Base 6.2.1
 _ZN9Qt3DInput13QMouseHandler6exitedEv@Base 6.2.1
 _ZN9Qt3DInput13QMouseHandler7clickedEPNS_11QMouseEventE@Base 6.2.1
 _ZN9Qt3DInput13QMouseHandler7enteredEv@Base 6.2.1
 _ZN9Qt3DInput13QMouseHandler7pressedEPNS_11QMouseEventE@Base 6.2.1
 _ZN9Qt3DInput13QMouseHandler8releasedEPNS_11QMouseEventE@Base 6.2.1
 _ZN9Qt3DInput13QMouseHandlerC1EPN8Qt3DCore5QNodeE@Base 6.2.1
 _ZN9Qt3DInput13QMouseHandlerC2EPN8Qt3DCore5QNodeE@Base 6.2.1
 _ZN9Qt3DInput13QMouseHandlerD0Ev@Base 6.2.1
 _ZN9Qt3DInput13QMouseHandlerD1Ev@Base 6.2.1
 _ZN9Qt3DInput13QMouseHandlerD2Ev@Base 6.2.1
 _ZN9Qt3DInput14QInputSequence10setTimeoutEi@Base 6.2.1
 _ZN9Qt3DInput14QInputSequence11addSequenceEPNS_20QAbstractActionInputE@Base 6.2.1
 _ZN9Qt3DInput14QInputSequence11qt_metacallEN11QMetaObject4CallEiPPv@Base 6.2.1
 _ZN9Qt3DInput14QInputSequence11qt_metacastEPKc@Base 6.2.1
 _ZN9Qt3DInput14QInputSequence14removeSequenceEPNS_20QAbstractActionInputE@Base 6.2.1
 _ZN9Qt3DInput14QInputSequence14timeoutChangedEi@Base 6.2.1
 _ZN9Qt3DInput14QInputSequence16staticMetaObjectE@Base 6.2.1
 _ZN9Qt3DInput14QInputSequence17setButtonIntervalEi@Base 6.2.1
 _ZN9Qt3DInput14QInputSequence21buttonIntervalChangedEi@Base 6.2.1
 _ZN9Qt3DInput14QInputSequenceC1EPN8Qt3DCore5QNodeE@Base 6.2.1
 _ZN9Qt3DInput14QInputSequenceC2EPN8Qt3DCore5QNodeE@Base 6.2.1
 _ZN9Qt3DInput14QInputSequenceD0Ev@Base 6.2.1
 _ZN9Qt3DInput14QInputSequenceD1Ev@Base 6.2.1
 _ZN9Qt3DInput14QInputSequenceD2Ev@Base 6.2.1
 _ZN9Qt3DInput14QInputSettings11qt_metacallEN11QMetaObject4CallEiPPv@Base 6.2.1
 _ZN9Qt3DInput14QInputSettings11qt_metacastEPKc@Base 6.2.1
 _ZN9Qt3DInput14QInputSettings14setEventSourceEP7QObject@Base 6.2.1
 _ZN9Qt3DInput14QInputSettings16staticMetaObjectE@Base 6.2.1
 _ZN9Qt3DInput14QInputSettings18eventSourceChangedEP7QObject@Base 6.2.1
 _ZN9Qt3DInput14QInputSettings20eventSourceDestroyedEv@Base 6.2.1
 _ZN9Qt3DInput14QInputSettingsC1EPN8Qt3DCore5QNodeE@Base 6.2.1
 _ZN9Qt3DInput14QInputSettingsC2EPN8Qt3DCore5QNodeE@Base 6.2.1
 _ZN9Qt3DInput14QInputSettingsD0Ev@Base 6.2.1
 _ZN9Qt3DInput14QInputSettingsD1Ev@Base 6.2.1
 _ZN9Qt3DInput14QInputSettingsD2Ev@Base 6.2.1
 _ZN9Qt3DInput14QLogicalDevice10removeAxisEPNS_5QAxisE@Base 6.2.1
 _ZN9Qt3DInput14QLogicalDevice11qt_metacallEN11QMetaObject4CallEiPPv@Base 6.2.1
 _ZN9Qt3DInput14QLogicalDevice11qt_metacastEPKc@Base 6.2.1
 _ZN9Qt3DInput14QLogicalDevice12removeActionEPNS_7QActionE@Base 6.2.1
 _ZN9Qt3DInput14QLogicalDevice16staticMetaObjectE@Base 6.2.1
 _ZN9Qt3DInput14QLogicalDevice7addAxisEPNS_5QAxisE@Base 6.2.1
 _ZN9Qt3DInput14QLogicalDevice9addActionEPNS_7QActionE@Base 6.2.1
 _ZN9Qt3DInput14QLogicalDeviceC1EPN8Qt3DCore5QNodeE@Base 6.2.1
 _ZN9Qt3DInput14QLogicalDeviceC2EPN8Qt3DCore5QNodeE@Base 6.2.1
 _ZN9Qt3DInput14QLogicalDeviceD0Ev@Base 6.2.1
 _ZN9Qt3DInput14QLogicalDeviceD1Ev@Base 6.2.1
 _ZN9Qt3DInput14QLogicalDeviceD2Ev@Base 6.2.1
 _ZN9Qt3DInput15QKeyboardDevice11qt_metacallEN11QMetaObject4CallEiPPv@Base 6.2.1
 _ZN9Qt3DInput15QKeyboardDevice11qt_metacastEPKc@Base 6.2.1
 _ZN9Qt3DInput15QKeyboardDevice14setActiveInputEPNS_16QKeyboardHandlerE@Base 6.2.1
 _ZN9Qt3DInput15QKeyboardDevice16staticMetaObjectE@Base 6.2.1
 _ZN9Qt3DInput15QKeyboardDevice18activeInputChangedEPNS_16QKeyboardHandlerE@Base 6.2.1
 _ZN9Qt3DInput15QKeyboardDeviceC1EPN8Qt3DCore5QNodeE@Base 6.2.1
 _ZN9Qt3DInput15QKeyboardDeviceC1ERNS_22QKeyboardDevicePrivateEPN8Qt3DCore5QNodeE@Base 6.2.1
 _ZN9Qt3DInput15QKeyboardDeviceC2EPN8Qt3DCore5QNodeE@Base 6.2.1
 _ZN9Qt3DInput15QKeyboardDeviceC2ERNS_22QKeyboardDevicePrivateEPN8Qt3DCore5QNodeE@Base 6.2.1
 _ZN9Qt3DInput15QKeyboardDeviceD0Ev@Base 6.2.1
 _ZN9Qt3DInput15QKeyboardDeviceD1Ev@Base 6.2.1
 _ZN9Qt3DInput15QKeyboardDeviceD2Ev@Base 6.2.1
 _ZN9Qt3DInput16QAnalogAxisInput11axisChangedEi@Base 6.2.1
 _ZN9Qt3DInput16QAnalogAxisInput11qt_metacallEN11QMetaObject4CallEiPPv@Base 6.2.1
 _ZN9Qt3DInput16QAnalogAxisInput11qt_metacastEPKc@Base 6.2.1
 _ZN9Qt3DInput16QAnalogAxisInput16staticMetaObjectE@Base 6.2.1
 _ZN9Qt3DInput16QAnalogAxisInput7setAxisEi@Base 6.2.1
 _ZN9Qt3DInput16QAnalogAxisInputC1EPN8Qt3DCore5QNodeE@Base 6.2.1
 _ZN9Qt3DInput16QAnalogAxisInputC2EPN8Qt3DCore5QNodeE@Base 6.2.1
 _ZN9Qt3DInput16QAnalogAxisInputD0Ev@Base 6.2.1
 _ZN9Qt3DInput16QAnalogAxisInputD1Ev@Base 6.2.1
 _ZN9Qt3DInput16QAnalogAxisInputD2Ev@Base 6.2.1
 _ZN9Qt3DInput16QAxisAccumulator11qt_metacallEN11QMetaObject4CallEiPPv@Base 6.2.1
 _ZN9Qt3DInput16QAxisAccumulator11qt_metacastEPKc@Base 6.2.1
 _ZN9Qt3DInput16QAxisAccumulator12scaleChangedEf@Base 6.2.1
 _ZN9Qt3DInput16QAxisAccumulator12valueChangedEf@Base 6.2.1
 _ZN9Qt3DInput16QAxisAccumulator13setSourceAxisEPNS_5QAxisE@Base 6.2.1
 _ZN9Qt3DInput16QAxisAccumulator15velocityChangedEf@Base 6.2.1
 _ZN9Qt3DInput16QAxisAccumulator16staticMetaObjectE@Base 6.2.1
 _ZN9Qt3DInput16QAxisAccumulator17setSourceAxisTypeENS0_14SourceAxisTypeE@Base 6.2.1
 _ZN9Qt3DInput16QAxisAccumulator17sourceAxisChangedEPNS_5QAxisE@Base 6.2.1
 _ZN9Qt3DInput16QAxisAccumulator21sourceAxisTypeChangedENS0_14SourceAxisTypeE@Base 6.2.1
 _ZN9Qt3DInput16QAxisAccumulator8setScaleEf@Base 6.2.1
 _ZN9Qt3DInput16QAxisAccumulatorC1EPN8Qt3DCore5QNodeE@Base 6.2.1
 _ZN9Qt3DInput16QAxisAccumulatorC2EPN8Qt3DCore5QNodeE@Base 6.2.1
 _ZN9Qt3DInput16QAxisAccumulatorD0Ev@Base 6.2.1
 _ZN9Qt3DInput16QAxisAccumulatorD1Ev@Base 6.2.1
 _ZN9Qt3DInput16QAxisAccumulatorD2Ev@Base 6.2.1
 _ZN9Qt3DInput16QButtonAxisInput10setButtonsERK5QListIiE@Base 6.2.1
 _ZN9Qt3DInput16QButtonAxisInput11qt_metacallEN11QMetaObject4CallEiPPv@Base 6.2.1
 _ZN9Qt3DInput16QButtonAxisInput11qt_metacastEPKc@Base 6.2.1
 _ZN9Qt3DInput16QButtonAxisInput12scaleChangedEf@Base 6.2.1
 _ZN9Qt3DInput16QButtonAxisInput14buttonsChangedERK5QListIiE@Base 6.2.1
 _ZN9Qt3DInput16QButtonAxisInput15setAccelerationEf@Base 6.2.1
 _ZN9Qt3DInput16QButtonAxisInput15setDecelerationEf@Base 6.2.1
 _ZN9Qt3DInput16QButtonAxisInput16staticMetaObjectE@Base 6.2.1
 _ZN9Qt3DInput16QButtonAxisInput19accelerationChangedEf@Base 6.2.1
 _ZN9Qt3DInput16QButtonAxisInput19decelerationChangedEf@Base 6.2.1
 _ZN9Qt3DInput16QButtonAxisInput8setScaleEf@Base 6.2.1
 _ZN9Qt3DInput16QButtonAxisInputC1EPN8Qt3DCore5QNodeE@Base 6.2.1
 _ZN9Qt3DInput16QButtonAxisInputC2EPN8Qt3DCore5QNodeE@Base 6.2.1
 _ZN9Qt3DInput16QButtonAxisInputD0Ev@Base 6.2.1
 _ZN9Qt3DInput16QButtonAxisInputD1Ev@Base 6.2.1
 _ZN9Qt3DInput16QButtonAxisInputD2Ev@Base 6.2.1
 _ZN9Qt3DInput16QKeyboardHandler10tabPressedEPNS_9QKeyEventE@Base 6.2.1
 _ZN9Qt3DInput16QKeyboardHandler10yesPressedEPNS_9QKeyEventE@Base 6.2.1
 _ZN9Qt3DInput16QKeyboardHandler11backPressedEPNS_9QKeyEventE@Base 6.2.1
 _ZN9Qt3DInput16QKeyboardHandler11callPressedEPNS_9QKeyEventE@Base 6.2.1
 _ZN9Qt3DInput16QKeyboardHandler11downPressedEPNS_9QKeyEventE@Base 6.2.1
 _ZN9Qt3DInput16QKeyboardHandler11flipPressedEPNS_9QKeyEventE@Base 6.2.1
 _ZN9Qt3DInput16QKeyboardHandler11leftPressedEPNS_9QKeyEventE@Base 6.2.1
 _ZN9Qt3DInput16QKeyboardHandler11menuPressedEPNS_9QKeyEventE@Base 6.2.1
 _ZN9Qt3DInput16QKeyboardHandler11qt_metacallEN11QMetaObject4CallEiPPv@Base 6.2.1
 _ZN9Qt3DInput16QKeyboardHandler11qt_metacastEPKc@Base 6.2.1
 _ZN9Qt3DInput16QKeyboardHandler12enterPressedEPNS_9QKeyEventE@Base 6.2.1
 _ZN9Qt3DInput16QKeyboardHandler12focusChangedEb@Base 6.2.1
 _ZN9Qt3DInput16QKeyboardHandler12rightPressedEPNS_9QKeyEventE@Base 6.2.1
 _ZN9Qt3DInput16QKeyboardHandler12spacePressedEPNS_9QKeyEventE@Base 6.2.1
 _ZN9Qt3DInput16QKeyboardHandler13cancelPressedEPNS_9QKeyEventE@Base 6.2.1
 _ZN9Qt3DInput16QKeyboardHandler13deletePressedEPNS_9QKeyEventE@Base 6.2.1
 _ZN9Qt3DInput16QKeyboardHandler13digit0PressedEPNS_9QKeyEventE@Base 6.2.1
 _ZN9Qt3DInput16QKeyboardHandler13digit1PressedEPNS_9QKeyEventE@Base 6.2.1
 _ZN9Qt3DInput16QKeyboardHandler13digit2PressedEPNS_9QKeyEventE@Base 6.2.1
 _ZN9Qt3DInput16QKeyboardHandler13digit3PressedEPNS_9QKeyEventE@Base 6.2.1
 _ZN9Qt3DInput16QKeyboardHandler13digit4PressedEPNS_9QKeyEventE@Base 6.2.1
 _ZN9Qt3DInput16QKeyboardHandler13digit5PressedEPNS_9QKeyEventE@Base 6.2.1
 _ZN9Qt3DInput16QKeyboardHandler13digit6PressedEPNS_9QKeyEventE@Base 6.2.1
 _ZN9Qt3DInput16QKeyboardHandler13digit7PressedEPNS_9QKeyEventE@Base 6.2.1
 _ZN9Qt3DInput16QKeyboardHandler13digit8PressedEPNS_9QKeyEventE@Base 6.2.1
 _ZN9Qt3DInput16QKeyboardHandler13digit9PressedEPNS_9QKeyEventE@Base 6.2.1
 _ZN9Qt3DInput16QKeyboardHandler13escapePressedEPNS_9QKeyEventE@Base 6.2.1
 _ZN9Qt3DInput16QKeyboardHandler13hangupPressedEPNS_9QKeyEventE@Base 6.2.1
 _ZN9Qt3DInput16QKeyboardHandler13returnPressedEPNS_9QKeyEventE@Base 6.2.1
 _ZN9Qt3DInput16QKeyboardHandler13selectPressedEPNS_9QKeyEventE@Base 6.2.1
 _ZN9Qt3DInput16QKeyboardHandler14backtabPressedEPNS_9QKeyEventE@Base 6.2.1
 _ZN9Qt3DInput16QKeyboardHandler15asteriskPressedEPNS_9QKeyEventE@Base 6.2.1
 _ZN9Qt3DInput16QKeyboardHandler15context1PressedEPNS_9QKeyEventE@Base 6.2.1
 _ZN9Qt3DInput16QKeyboardHandler15context2PressedEPNS_9QKeyEventE@Base 6.2.1
 _ZN9Qt3DInput16QKeyboardHandler15context3PressedEPNS_9QKeyEventE@Base 6.2.1
 _ZN9Qt3DInput16QKeyboardHandler15context4PressedEPNS_9QKeyEventE@Base 6.2.1
 _ZN9Qt3DInput16QKeyboardHandler15setSourceDeviceEPNS_15QKeyboardDeviceE@Base 6.2.1
 _ZN9Qt3DInput16QKeyboardHandler15volumeUpPressedEPNS_9QKeyEventE@Base 6.2.1
 _ZN9Qt3DInput16QKeyboardHandler16staticMetaObjectE@Base 6.2.1
 _ZN9Qt3DInput16QKeyboardHandler17numberSignPressedEPNS_9QKeyEventE@Base 6.2.1
 _ZN9Qt3DInput16QKeyboardHandler17volumeDownPressedEPNS_9QKeyEventE@Base 6.2.1
 _ZN9Qt3DInput16QKeyboardHandler19sourceDeviceChangedEPNS_15QKeyboardDeviceE@Base 6.2.1
 _ZN9Qt3DInput16QKeyboardHandler7pressedEPNS_9QKeyEventE@Base 6.2.1
 _ZN9Qt3DInput16QKeyboardHandler8releasedEPNS_9QKeyEventE@Base 6.2.1
 _ZN9Qt3DInput16QKeyboardHandler8setFocusEb@Base 6.2.1
 _ZN9Qt3DInput16QKeyboardHandler9noPressedEPNS_9QKeyEventE@Base 6.2.1
 _ZN9Qt3DInput16QKeyboardHandler9upPressedEPNS_9QKeyEventE@Base 6.2.1
 _ZN9Qt3DInput16QKeyboardHandlerC1EPN8Qt3DCore5QNodeE@Base 6.2.1
 _ZN9Qt3DInput16QKeyboardHandlerC2EPN8Qt3DCore5QNodeE@Base 6.2.1
 _ZN9Qt3DInput16QKeyboardHandlerD0Ev@Base 6.2.1
 _ZN9Qt3DInput16QKeyboardHandlerD1Ev@Base 6.2.1
 _ZN9Qt3DInput16QKeyboardHandlerD2Ev@Base 6.2.1
 _ZN9Qt3DInput18QAbstractAxisInput11qt_metacallEN11QMetaObject4CallEiPPv@Base 6.2.1
 _ZN9Qt3DInput18QAbstractAxisInput11qt_metacastEPKc@Base 6.2.1
 _ZN9Qt3DInput18QAbstractAxisInput15setSourceDeviceEPNS_23QAbstractPhysicalDeviceE@Base 6.2.1
 _ZN9Qt3DInput18QAbstractAxisInput16staticMetaObjectE@Base 6.2.1
 _ZN9Qt3DInput18QAbstractAxisInput19sourceDeviceChangedEPNS_23QAbstractPhysicalDeviceE@Base 6.2.1
 _ZN9Qt3DInput18QAbstractAxisInputC1ERNS_25QAbstractAxisInputPrivateEPN8Qt3DCore5QNodeE@Base 6.2.1
 _ZN9Qt3DInput18QAbstractAxisInputC2ERNS_25QAbstractAxisInputPrivateEPN8Qt3DCore5QNodeE@Base 6.2.1
 _ZN9Qt3DInput18QAbstractAxisInputD0Ev@Base 6.2.1
 _ZN9Qt3DInput18QAbstractAxisInputD1Ev@Base 6.2.1
 _ZN9Qt3DInput18QAbstractAxisInputD2Ev@Base 6.2.1
 _ZN9Qt3DInput18QInputDevicePlugin11qt_metacallEN11QMetaObject4CallEiPPv@Base 6.2.1
 _ZN9Qt3DInput18QInputDevicePlugin11qt_metacastEPKc@Base 6.2.1
 _ZN9Qt3DInput18QInputDevicePlugin16staticMetaObjectE@Base 6.2.1
 _ZN9Qt3DInput18QInputDevicePlugin6createERK7QStringRK5QListIS1_E@Base 6.2.1
 _ZN9Qt3DInput18QInputDevicePluginC1EP7QObject@Base 6.2.1
 _ZN9Qt3DInput18QInputDevicePluginC2EP7QObject@Base 6.2.1
 _ZN9Qt3DInput18QInputDevicePluginD0Ev@Base 6.2.1
 _ZN9Qt3DInput18QInputDevicePluginD1Ev@Base 6.2.1
 _ZN9Qt3DInput18QInputDevicePluginD2Ev@Base 6.2.1
 _ZN9Qt3DInput19QGenericInputDevice10setAxesMapERK4QMapI7QString8QVariantE@Base 6.2.1
 _ZN9Qt3DInput19QGenericInputDevice11qt_metacallEN11QMetaObject4CallEiPPv@Base 6.2.1
 _ZN9Qt3DInput19QGenericInputDevice11qt_metacastEPKc@Base 6.2.1
 _ZN9Qt3DInput19QGenericInputDevice13setButtonsMapERK4QMapI7QString8QVariantE@Base 6.2.1
 _ZN9Qt3DInput19QGenericInputDevice14axesMapChangedEv@Base 6.2.1
 _ZN9Qt3DInput19QGenericInputDevice16staticMetaObjectE@Base 6.2.1
 _ZN9Qt3DInput19QGenericInputDevice17buttonsMapChangedEv@Base 6.2.1
 _ZN9Qt3DInput19QGenericInputDeviceC1EPN8Qt3DCore5QNodeE@Base 6.2.1
 _ZN9Qt3DInput19QGenericInputDeviceC2EPN8Qt3DCore5QNodeE@Base 6.2.1
 _ZN9Qt3DInput20QAbstractActionInput11qt_metacallEN11QMetaObject4CallEiPPv@Base 6.2.1
 _ZN9Qt3DInput20QAbstractActionInput11qt_metacastEPKc@Base 6.2.1
 _ZN9Qt3DInput20QAbstractActionInput16staticMetaObjectE@Base 6.2.1
 _ZN9Qt3DInput20QAbstractActionInputC1ERNS_27QAbstractActionInputPrivateEPN8Qt3DCore5QNodeE@Base 6.2.1
 _ZN9Qt3DInput20QAbstractActionInputC2ERNS_27QAbstractActionInputPrivateEPN8Qt3DCore5QNodeE@Base 6.2.1
 _ZN9Qt3DInput20QAbstractActionInputD0Ev@Base 6.2.1
 _ZN9Qt3DInput20QAbstractActionInputD1Ev@Base 6.2.1
 _ZN9Qt3DInput20QAbstractActionInputD2Ev@Base 6.2.1
 _ZN9Qt3DInput23QAbstractPhysicalDevice11qt_metacallEN11QMetaObject4CallEiPPv@Base 6.2.1
 _ZN9Qt3DInput23QAbstractPhysicalDevice11qt_metacastEPKc@Base 6.2.1
 _ZN9Qt3DInput23QAbstractPhysicalDevice14addAxisSettingEPNS_12QAxisSettingE@Base 6.2.1
 _ZN9Qt3DInput23QAbstractPhysicalDevice16staticMetaObjectE@Base 6.2.1
 _ZN9Qt3DInput23QAbstractPhysicalDevice17removeAxisSettingEPNS_12QAxisSettingE@Base 6.2.1
 _ZN9Qt3DInput23QAbstractPhysicalDeviceC1EPN8Qt3DCore5QNodeE@Base 6.2.1
 _ZN9Qt3DInput23QAbstractPhysicalDeviceC1ERNS_30QAbstractPhysicalDevicePrivateEPN8Qt3DCore5QNodeE@Base 6.2.1
 _ZN9Qt3DInput23QAbstractPhysicalDeviceC2EPN8Qt3DCore5QNodeE@Base 6.2.1
 _ZN9Qt3DInput23QAbstractPhysicalDeviceC2ERNS_30QAbstractPhysicalDevicePrivateEPN8Qt3DCore5QNodeE@Base 6.2.1
 _ZN9Qt3DInput23QAbstractPhysicalDeviceD0Ev@Base 6.2.1
 _ZN9Qt3DInput23QAbstractPhysicalDeviceD1Ev@Base 6.2.1
 _ZN9Qt3DInput23QAbstractPhysicalDeviceD2Ev@Base 6.2.1
 _ZN9Qt3DInput23QInputDeviceIntegration10initializeEPNS_12QInputAspectE@Base 6.2.1
 _ZN9Qt3DInput23QInputDeviceIntegration11qt_metacallEN11QMetaObject4CallEiPPv@Base 6.2.1
 _ZN9Qt3DInput23QInputDeviceIntegration11qt_metacastEPKc@Base 6.2.1
 _ZN9Qt3DInput23QInputDeviceIntegration16staticMetaObjectE@Base 6.2.1
 _ZN9Qt3DInput23QInputDeviceIntegration19registerBackendTypeERK11QMetaObjectRK14QSharedPointerIN8Qt3DCore18QBackendNodeMapperEE@Base 6.2.1
 _ZN9Qt3DInput23QInputDeviceIntegrationC1EP7QObject@Base 6.2.1
 _ZN9Qt3DInput23QInputDeviceIntegrationC1ERNS_30QInputDeviceIntegrationPrivateEP7QObject@Base 6.2.1
 _ZN9Qt3DInput23QInputDeviceIntegrationC2EP7QObject@Base 6.2.1
 _ZN9Qt3DInput23QInputDeviceIntegrationC2ERNS_30QInputDeviceIntegrationPrivateEP7QObject@Base 6.2.1
 _ZN9Qt3DInput28QAbstractPhysicalDeviceProxy11qt_metacallEN11QMetaObject4CallEiPPv@Base 6.2.1
 _ZN9Qt3DInput28QAbstractPhysicalDeviceProxy11qt_metacastEPKc@Base 6.2.1
 _ZN9Qt3DInput28QAbstractPhysicalDeviceProxy13statusChangedENS0_12DeviceStatusE@Base 6.2.1
 _ZN9Qt3DInput28QAbstractPhysicalDeviceProxy16staticMetaObjectE@Base 6.2.1
 _ZN9Qt3DInput28QAbstractPhysicalDeviceProxyC1ERNS_35QAbstractPhysicalDeviceProxyPrivateEPN8Qt3DCore5QNodeE@Base 6.2.1
 _ZN9Qt3DInput28QAbstractPhysicalDeviceProxyC2ERNS_35QAbstractPhysicalDeviceProxyPrivateEPN8Qt3DCore5QNodeE@Base 6.2.1
 _ZN9Qt3DInput30QAbstractPhysicalDevicePrivate13postAxisEventEid@Base 6.2.1
 _ZN9Qt3DInput30QAbstractPhysicalDevicePrivate15postButtonEventEid@Base 6.2.1
 _ZN9Qt3DInput30QAbstractPhysicalDevicePrivateC1Ev@Base 6.2.1
 _ZN9Qt3DInput30QAbstractPhysicalDevicePrivateC2Ev@Base 6.2.1
 _ZN9Qt3DInput30QAbstractPhysicalDevicePrivateD0Ev@Base 6.2.1
 _ZN9Qt3DInput30QAbstractPhysicalDevicePrivateD1Ev@Base 6.2.1
 _ZN9Qt3DInput30QAbstractPhysicalDevicePrivateD2Ev@Base 6.2.1
 _ZN9Qt3DInput30QInputDeviceIntegrationPrivateC1Ev@Base 6.2.1
 _ZN9Qt3DInput30QInputDeviceIntegrationPrivateC2Ev@Base 6.2.1
 _ZN9Qt3DInput34QAbstractPhysicalDeviceBackendNode14setInputAspectEPNS_12QInputAspectE@Base 6.2.1
 _ZN9Qt3DInput34QAbstractPhysicalDeviceBackendNode16syncFromFrontEndEPKN8Qt3DCore5QNodeEb@Base 6.2.1
 _ZN9Qt3DInput34QAbstractPhysicalDeviceBackendNode18processedAxisValueEi@Base 6.2.1
 _ZN9Qt3DInput34QAbstractPhysicalDeviceBackendNode7cleanupEv@Base 6.2.1
 _ZN9Qt3DInput34QAbstractPhysicalDeviceBackendNodeC1EN8Qt3DCore12QBackendNode4ModeE@Base 6.2.1
 _ZN9Qt3DInput34QAbstractPhysicalDeviceBackendNodeC1ERNS_41QAbstractPhysicalDeviceBackendNodePrivateE@Base 6.2.1
 _ZN9Qt3DInput34QAbstractPhysicalDeviceBackendNodeC2EN8Qt3DCore12QBackendNode4ModeE@Base 6.2.1
 _ZN9Qt3DInput34QAbstractPhysicalDeviceBackendNodeC2ERNS_41QAbstractPhysicalDeviceBackendNodePrivateE@Base 6.2.1
 _ZN9Qt3DInput35QAbstractPhysicalDeviceProxyPrivate11resetDeviceEPNS_23QAbstractPhysicalDeviceE@Base 6.2.1
 _ZN9Qt3DInput35QAbstractPhysicalDeviceProxyPrivate9setDeviceEPNS_23QAbstractPhysicalDeviceE@Base 6.2.1
 _ZN9Qt3DInput35QAbstractPhysicalDeviceProxyPrivate9setStatusENS_28QAbstractPhysicalDeviceProxy12DeviceStatusE@Base 6.2.1
 _ZN9Qt3DInput35QAbstractPhysicalDeviceProxyPrivateC1ERK7QString@Base 6.2.1
 _ZN9Qt3DInput35QAbstractPhysicalDeviceProxyPrivateC2ERK7QString@Base 6.2.1
 _ZN9Qt3DInput35QAbstractPhysicalDeviceProxyPrivateD0Ev@Base 6.2.1
 _ZN9Qt3DInput35QAbstractPhysicalDeviceProxyPrivateD1Ev@Base 6.2.1
 _ZN9Qt3DInput35QAbstractPhysicalDeviceProxyPrivateD2Ev@Base 6.2.1
 _ZN9Qt3DInput41QAbstractPhysicalDeviceBackendNodePrivate14addAxisSettingEiN8Qt3DCore7QNodeIdE@Base 6.2.1
 _ZN9Qt3DInput41QAbstractPhysicalDeviceBackendNodePrivate17getOrCreateFilterEi@Base 6.2.1
 _ZN9Qt3DInput41QAbstractPhysicalDeviceBackendNodePrivate17removeAxisSettingEN8Qt3DCore7QNodeIdE@Base 6.2.1
 _ZN9Qt3DInput41QAbstractPhysicalDeviceBackendNodePrivateC1EN8Qt3DCore12QBackendNode4ModeE@Base 6.2.1
 _ZN9Qt3DInput41QAbstractPhysicalDeviceBackendNodePrivateC2EN8Qt3DCore12QBackendNode4ModeE@Base 6.2.1
 _ZN9Qt3DInput5Input11BackendNode16syncFromFrontEndEPKN8Qt3DCore5QNodeEb@Base 6.2.1
 _ZN9Qt3DInput5Input11BackendNodeC1EN8Qt3DCore12QBackendNode4ModeE@Base 6.2.1
 _ZN9Qt3DInput5Input11BackendNodeC1ERN8Qt3DCore19QBackendNodePrivateE@Base 6.2.1
 _ZN9Qt3DInput5Input11BackendNodeC2EN8Qt3DCore12QBackendNode4ModeE@Base 6.2.1
 _ZN9Qt3DInput5Input11BackendNodeC2ERN8Qt3DCore19QBackendNodePrivateE@Base 6.2.1
 _ZN9Qt3DInput5Input11BackendNodeD0Ev@Base 6.2.1
 _ZN9Qt3DInput5Input11BackendNodeD1Ev@Base 6.2.1
 _ZN9Qt3DInput5Input11BackendNodeD2Ev@Base 6.2.1
 _ZN9Qt3DInput5QAxis11qt_metacallEN11QMetaObject4CallEiPPv@Base 6.2.1
 _ZN9Qt3DInput5QAxis11qt_metacastEPKc@Base 6.2.1
 _ZN9Qt3DInput5QAxis11removeInputEPNS_18QAbstractAxisInputE@Base 6.2.1
 _ZN9Qt3DInput5QAxis12valueChangedEf@Base 6.2.1
 _ZN9Qt3DInput5QAxis16staticMetaObjectE@Base 6.2.1
 _ZN9Qt3DInput5QAxis8addInputEPNS_18QAbstractAxisInputE@Base 6.2.1
 _ZN9Qt3DInput5QAxisC1EPN8Qt3DCore5QNodeE@Base 6.2.1
 _ZN9Qt3DInput5QAxisC2EPN8Qt3DCore5QNodeE@Base 6.2.1
 _ZN9Qt3DInput5QAxisD0Ev@Base 6.2.1
 _ZN9Qt3DInput5QAxisD1Ev@Base 6.2.1
 _ZN9Qt3DInput5QAxisD2Ev@Base 6.2.1
 _ZN9Qt3DInput7QAction11qt_metacallEN11QMetaObject4CallEiPPv@Base 6.2.1
 _ZN9Qt3DInput7QAction11qt_metacastEPKc@Base 6.2.1
 _ZN9Qt3DInput7QAction11removeInputEPNS_20QAbstractActionInputE@Base 6.2.1
 _ZN9Qt3DInput7QAction13activeChangedEb@Base 6.2.1
 _ZN9Qt3DInput7QAction16staticMetaObjectE@Base 6.2.1
 _ZN9Qt3DInput7QAction8addInputEPNS_20QAbstractActionInputE@Base 6.2.1
 _ZN9Qt3DInput7QActionC1EPN8Qt3DCore5QNodeE@Base 6.2.1
 _ZN9Qt3DInput7QActionC2EPN8Qt3DCore5QNodeE@Base 6.2.1
 _ZN9Qt3DInput7QActionD0Ev@Base 6.2.1
 _ZN9Qt3DInput7QActionD1Ev@Base 6.2.1
 _ZN9Qt3DInput7QActionD2Ev@Base 6.2.1
 _ZN9Qt3DInput9QKeyEvent11qt_metacallEN11QMetaObject4CallEiPPv@Base 6.2.1
 _ZN9Qt3DInput9QKeyEvent11qt_metacastEPKc@Base 6.2.1
 _ZN9Qt3DInput9QKeyEvent16staticMetaObjectE@Base 6.2.1
 _ZN9Qt3DInput9QKeyEventC1EN6QEvent4TypeEi6QFlagsIN2Qt16KeyboardModifierEERK7QStringbt@Base 6.2.1
 _ZN9Qt3DInput9QKeyEventC1ERK9QKeyEvent@Base 6.2.1
 _ZN9Qt3DInput9QKeyEventC2EN6QEvent4TypeEi6QFlagsIN2Qt16KeyboardModifierEERK7QStringbt@Base 6.2.1
 _ZN9Qt3DInput9QKeyEventC2ERK9QKeyEvent@Base 6.2.1
 _ZN9Qt3DInput9QKeyEventD0Ev@Base 6.2.1
 _ZN9Qt3DInput9QKeyEventD1Ev@Base 6.2.1
 _ZN9Qt3DInput9QKeyEventD2Ev@Base 6.2.1
 _ZNK9Qt3DInput11QInputChord10metaObjectEv@Base 6.2.1
 _ZNK9Qt3DInput11QInputChord6chordsEv@Base 6.2.1
 _ZNK9Qt3DInput11QInputChord7timeoutEv@Base 6.2.1
 _ZNK9Qt3DInput11QMouseEvent10metaObjectEv@Base 6.2.1
 _ZNK9Qt3DInput11QMouseEvent6buttonEv@Base 6.2.1
 _ZNK9Qt3DInput11QMouseEvent7buttonsEv@Base 6.2.1
 _ZNK9Qt3DInput11QMouseEvent9modifiersEv@Base 6.2.1
 _ZNK9Qt3DInput11QWheelEvent10metaObjectEv@Base 6.2.1
 _ZNK9Qt3DInput11QWheelEvent7buttonsEv@Base 6.2.1
 _ZNK9Qt3DInput11QWheelEvent9modifiersEv@Base 6.2.1
 _ZNK9Qt3DInput12QActionInput10metaObjectEv@Base 6.2.1
 _ZNK9Qt3DInput12QActionInput12sourceDeviceEv@Base 6.2.1
 _ZNK9Qt3DInput12QActionInput7buttonsEv@Base 6.2.1
 _ZNK9Qt3DInput12QAxisSetting10metaObjectEv@Base 6.2.1
 _ZNK9Qt3DInput12QAxisSetting14deadZoneRadiusEv@Base 6.2.1
 _ZNK9Qt3DInput12QAxisSetting15isSmoothEnabledEv@Base 6.2.1
 _ZNK9Qt3DInput12QAxisSetting4axesEv@Base 6.2.1
 _ZNK9Qt3DInput12QInputAspect10metaObjectEv@Base 6.2.1
 _ZNK9Qt3DInput12QInputAspect24availablePhysicalDevicesEv@Base 6.2.1
 _ZNK9Qt3DInput12QMouseDevice10metaObjectEv@Base 6.2.1
 _ZNK9Qt3DInput12QMouseDevice11buttonCountEv@Base 6.2.1
 _ZNK9Qt3DInput12QMouseDevice11buttonNamesEv@Base 6.2.1
 _ZNK9Qt3DInput12QMouseDevice11sensitivityEv@Base 6.2.1
 _ZNK9Qt3DInput12QMouseDevice14axisIdentifierERK7QString@Base 6.2.1
 _ZNK9Qt3DInput12QMouseDevice16buttonIdentifierERK7QString@Base 6.2.1
 _ZNK9Qt3DInput12QMouseDevice22updateAxesContinuouslyEv@Base 6.2.1
 _ZNK9Qt3DInput12QMouseDevice9axisCountEv@Base 6.2.1
 _ZNK9Qt3DInput12QMouseDevice9axisNamesEv@Base 6.2.1
 _ZNK9Qt3DInput13QMouseHandler10metaObjectEv@Base 6.2.1
 _ZNK9Qt3DInput13QMouseHandler12sourceDeviceEv@Base 6.2.1
 _ZNK9Qt3DInput13QMouseHandler13containsMouseEv@Base 6.2.1
 _ZNK9Qt3DInput14QInputSequence10metaObjectEv@Base 6.2.1
 _ZNK9Qt3DInput14QInputSequence14buttonIntervalEv@Base 6.2.1
 _ZNK9Qt3DInput14QInputSequence7timeoutEv@Base 6.2.1
 _ZNK9Qt3DInput14QInputSequence9sequencesEv@Base 6.2.1
 _ZNK9Qt3DInput14QInputSettings10metaObjectEv@Base 6.2.1
 _ZNK9Qt3DInput14QInputSettings11eventSourceEv@Base 6.2.1
 _ZNK9Qt3DInput14QLogicalDevice10metaObjectEv@Base 6.2.1
 _ZNK9Qt3DInput14QLogicalDevice4axesEv@Base 6.2.1
 _ZNK9Qt3DInput14QLogicalDevice7actionsEv@Base 6.2.1
 _ZNK9Qt3DInput15QKeyboardDevice10metaObjectEv@Base 6.2.1
 _ZNK9Qt3DInput15QKeyboardDevice11activeInputEv@Base 6.2.1
 _ZNK9Qt3DInput15QKeyboardDevice11buttonCountEv@Base 6.2.1
 _ZNK9Qt3DInput15QKeyboardDevice11buttonNamesEv@Base 6.2.1
 _ZNK9Qt3DInput15QKeyboardDevice14axisIdentifierERK7QString@Base 6.2.1
 _ZNK9Qt3DInput15QKeyboardDevice16buttonIdentifierERK7QString@Base 6.2.1
 _ZNK9Qt3DInput15QKeyboardDevice9axisCountEv@Base 6.2.1
 _ZNK9Qt3DInput15QKeyboardDevice9axisNamesEv@Base 6.2.1
 _ZNK9Qt3DInput16QAnalogAxisInput10metaObjectEv@Base 6.2.1
 _ZNK9Qt3DInput16QAnalogAxisInput4axisEv@Base 6.2.1
 _ZNK9Qt3DInput16QAxisAccumulator10metaObjectEv@Base 6.2.1
 _ZNK9Qt3DInput16QAxisAccumulator10sourceAxisEv@Base 6.2.1
 _ZNK9Qt3DInput16QAxisAccumulator14sourceAxisTypeEv@Base 6.2.1
 _ZNK9Qt3DInput16QAxisAccumulator5scaleEv@Base 6.2.1
 _ZNK9Qt3DInput16QAxisAccumulator5valueEv@Base 6.2.1
 _ZNK9Qt3DInput16QAxisAccumulator8velocityEv@Base 6.2.1
 _ZNK9Qt3DInput16QButtonAxisInput10metaObjectEv@Base 6.2.1
 _ZNK9Qt3DInput16QButtonAxisInput12accelerationEv@Base 6.2.1
 _ZNK9Qt3DInput16QButtonAxisInput12decelerationEv@Base 6.2.1
 _ZNK9Qt3DInput16QButtonAxisInput5scaleEv@Base 6.2.1
 _ZNK9Qt3DInput16QButtonAxisInput7buttonsEv@Base 6.2.1
 _ZNK9Qt3DInput16QKeyboardHandler10metaObjectEv@Base 6.2.1
 _ZNK9Qt3DInput16QKeyboardHandler12sourceDeviceEv@Base 6.2.1
 _ZNK9Qt3DInput16QKeyboardHandler5focusEv@Base 6.2.1
 _ZNK9Qt3DInput18QAbstractAxisInput10metaObjectEv@Base 6.2.1
 _ZNK9Qt3DInput18QAbstractAxisInput12sourceDeviceEv@Base 6.2.1
 _ZNK9Qt3DInput18QInputDevicePlugin10metaObjectEv@Base 6.2.1
 _ZNK9Qt3DInput19QGenericInputDevice10buttonsMapEv@Base 6.2.1
 _ZNK9Qt3DInput19QGenericInputDevice10metaObjectEv@Base 6.2.1
 _ZNK9Qt3DInput19QGenericInputDevice7axesMapEv@Base 6.2.1
 _ZNK9Qt3DInput20QAbstractActionInput10metaObjectEv@Base 6.2.1
 _ZNK9Qt3DInput23QAbstractPhysicalDevice10metaObjectEv@Base 6.2.1
 _ZNK9Qt3DInput23QAbstractPhysicalDevice11buttonCountEv@Base 6.2.1
 _ZNK9Qt3DInput23QAbstractPhysicalDevice11buttonNamesEv@Base 6.2.1
 _ZNK9Qt3DInput23QAbstractPhysicalDevice12axisSettingsEv@Base 6.2.1
 _ZNK9Qt3DInput23QAbstractPhysicalDevice14axisIdentifierERK7QString@Base 6.2.1
 _ZNK9Qt3DInput23QAbstractPhysicalDevice16buttonIdentifierERK7QString@Base 6.2.1
 _ZNK9Qt3DInput23QAbstractPhysicalDevice9axisCountEv@Base 6.2.1
 _ZNK9Qt3DInput23QAbstractPhysicalDevice9axisNamesEv@Base 6.2.1
 _ZNK9Qt3DInput23QInputDeviceIntegration10metaObjectEv@Base 6.2.1
 _ZNK9Qt3DInput23QInputDeviceIntegration11inputAspectEv@Base 6.2.1
 _ZNK9Qt3DInput28QAbstractPhysicalDeviceProxy10deviceNameEv@Base 6.2.1
 _ZNK9Qt3DInput28QAbstractPhysicalDeviceProxy10metaObjectEv@Base 6.2.1
 _ZNK9Qt3DInput28QAbstractPhysicalDeviceProxy11buttonCountEv@Base 6.2.1
 _ZNK9Qt3DInput28QAbstractPhysicalDeviceProxy11buttonNamesEv@Base 6.2.1
 _ZNK9Qt3DInput28QAbstractPhysicalDeviceProxy14axisIdentifierERK7QString@Base 6.2.1
 _ZNK9Qt3DInput28QAbstractPhysicalDeviceProxy16buttonIdentifierERK7QString@Base 6.2.1
 _ZNK9Qt3DInput28QAbstractPhysicalDeviceProxy6statusEv@Base 6.2.1
 _ZNK9Qt3DInput28QAbstractPhysicalDeviceProxy9axisCountEv@Base 6.2.1
 _ZNK9Qt3DInput28QAbstractPhysicalDeviceProxy9axisNamesEv@Base 6.2.1
 _ZNK9Qt3DInput34QAbstractPhysicalDeviceBackendNode11inputAspectEv@Base 6.2.1
 _ZNK9Qt3DInput41QAbstractPhysicalDeviceBackendNodePrivate14getAxisSettingEN8Qt3DCore7QNodeIdE@Base 6.2.1
 _ZNK9Qt3DInput5QAxis10metaObjectEv@Base 6.2.1
 _ZNK9Qt3DInput5QAxis5valueEv@Base 6.2.1
 _ZNK9Qt3DInput5QAxis6inputsEv@Base 6.2.1
 _ZNK9Qt3DInput7QAction10metaObjectEv@Base 6.2.1
 _ZNK9Qt3DInput7QAction6inputsEv@Base 6.2.1
 _ZNK9Qt3DInput7QAction8isActiveEv@Base 6.2.1
 _ZNK9Qt3DInput9QKeyEvent10metaObjectEv@Base 6.2.1
 _ZTIN9Qt3DInput11QInputChordE@Base 6.2.1
 _ZTIN9Qt3DInput11QMouseEventE@Base 6.2.1
 _ZTIN9Qt3DInput11QWheelEventE@Base 6.2.1
 _ZTIN9Qt3DInput12QActionInputE@Base 6.2.1
 _ZTIN9Qt3DInput12QAxisSettingE@Base 6.2.1
 _ZTIN9Qt3DInput12QInputAspectE@Base 6.2.1
 _ZTIN9Qt3DInput12QMouseDeviceE@Base 6.2.1
 _ZTIN9Qt3DInput13QMouseHandlerE@Base 6.2.1
 _ZTIN9Qt3DInput14QInputSequenceE@Base 6.2.1
 _ZTIN9Qt3DInput14QInputSettingsE@Base 6.2.1
 _ZTIN9Qt3DInput14QLogicalDeviceE@Base 6.2.1
 _ZTIN9Qt3DInput15QKeyboardDeviceE@Base 6.2.1
 _ZTIN9Qt3DInput16QAnalogAxisInputE@Base 6.2.1
 _ZTIN9Qt3DInput16QAxisAccumulatorE@Base 6.2.1
 _ZTIN9Qt3DInput16QButtonAxisInputE@Base 6.2.1
 _ZTIN9Qt3DInput16QKeyboardHandlerE@Base 6.2.1
 _ZTIN9Qt3DInput18QAbstractAxisInputE@Base 6.2.1
 _ZTIN9Qt3DInput18QInputDevicePluginE@Base 6.2.1
 _ZTIN9Qt3DInput19QGenericInputDeviceE@Base 6.2.1
 _ZTIN9Qt3DInput20QAbstractActionInputE@Base 6.2.1
 _ZTIN9Qt3DInput23QAbstractPhysicalDeviceE@Base 6.2.1
 _ZTIN9Qt3DInput23QInputDeviceIntegrationE@Base 6.2.1
 _ZTIN9Qt3DInput28QAbstractPhysicalDeviceProxyE@Base 6.2.1
 _ZTIN9Qt3DInput30QAbstractPhysicalDevicePrivateE@Base 6.2.1
 _ZTIN9Qt3DInput34QAbstractPhysicalDeviceBackendNodeE@Base 6.2.1
 _ZTIN9Qt3DInput35QAbstractPhysicalDeviceProxyPrivateE@Base 6.2.1
 _ZTIN9Qt3DInput5Input11BackendNodeE@Base 6.2.1
 _ZTIN9Qt3DInput5QAxisE@Base 6.2.1
 _ZTIN9Qt3DInput7QActionE@Base 6.2.1
 _ZTIN9Qt3DInput9QKeyEventE@Base 6.2.1
 _ZTIZN9QMetaType17registerConverterI5QListIiE9QIterableI13QMetaSequenceEN9QtPrivate33QSequentialIterableConvertFunctorIS2_EEEEbT1_EUlPKvPvE_@Base 6.2.1
 _ZTIZN9QMetaType19registerMutableViewI5QListIiE9QIterableI13QMetaSequenceEN9QtPrivate37QSequentialIterableMutableViewFunctorIS2_EEEEbT1_EUlPvSA_E_@Base 6.2.1
 _ZTSN9Qt3DInput11QInputChordE@Base 6.2.1
 _ZTSN9Qt3DInput11QMouseEventE@Base 6.2.1
 _ZTSN9Qt3DInput11QWheelEventE@Base 6.2.1
 _ZTSN9Qt3DInput12QActionInputE@Base 6.2.1
 _ZTSN9Qt3DInput12QAxisSettingE@Base 6.2.1
 _ZTSN9Qt3DInput12QInputAspectE@Base 6.2.1
 _ZTSN9Qt3DInput12QMouseDeviceE@Base 6.2.1
 _ZTSN9Qt3DInput13QMouseHandlerE@Base 6.2.1
 _ZTSN9Qt3DInput14QInputSequenceE@Base 6.2.1
 _ZTSN9Qt3DInput14QInputSettingsE@Base 6.2.1
 _ZTSN9Qt3DInput14QLogicalDeviceE@Base 6.2.1
 _ZTSN9Qt3DInput15QKeyboardDeviceE@Base 6.2.1
 _ZTSN9Qt3DInput16QAnalogAxisInputE@Base 6.2.1
 _ZTSN9Qt3DInput16QAxisAccumulatorE@Base 6.2.1
 _ZTSN9Qt3DInput16QButtonAxisInputE@Base 6.2.1
 _ZTSN9Qt3DInput16QKeyboardHandlerE@Base 6.2.1
 _ZTSN9Qt3DInput18QAbstractAxisInputE@Base 6.2.1
 _ZTSN9Qt3DInput18QInputDevicePluginE@Base 6.2.1
 _ZTSN9Qt3DInput19QGenericInputDeviceE@Base 6.2.1
 _ZTSN9Qt3DInput20QAbstractActionInputE@Base 6.2.1
 _ZTSN9Qt3DInput23QAbstractPhysicalDeviceE@Base 6.2.1
 _ZTSN9Qt3DInput23QInputDeviceIntegrationE@Base 6.2.1
 _ZTSN9Qt3DInput28QAbstractPhysicalDeviceProxyE@Base 6.2.1
 _ZTSN9Qt3DInput30QAbstractPhysicalDevicePrivateE@Base 6.2.1
 _ZTSN9Qt3DInput30QInputDeviceIntegrationPrivateE@Base 6.2.1
 _ZTSN9Qt3DInput34QAbstractPhysicalDeviceBackendNodeE@Base 6.2.1
 _ZTSN9Qt3DInput35QAbstractPhysicalDeviceProxyPrivateE@Base 6.2.1
 _ZTSN9Qt3DInput41QAbstractPhysicalDeviceBackendNodePrivateE@Base 6.2.1
 _ZTSN9Qt3DInput5Input11BackendNodeE@Base 6.2.1
 _ZTSN9Qt3DInput5QAxisE@Base 6.2.1
 _ZTSN9Qt3DInput7QActionE@Base 6.2.1
 _ZTSN9Qt3DInput9QKeyEventE@Base 6.2.1
 _ZTSZN9QMetaType17registerConverterI5QListIiE9QIterableI13QMetaSequenceEN9QtPrivate33QSequentialIterableConvertFunctorIS2_EEEEbT1_EUlPKvPvE_@Base 6.2.1
 _ZTSZN9QMetaType19registerMutableViewI5QListIiE9QIterableI13QMetaSequenceEN9QtPrivate37QSequentialIterableMutableViewFunctorIS2_EEEEbT1_EUlPvSA_E_@Base 6.2.1
 _ZTVN9Qt3DInput11QInputChordE@Base 6.2.1
 _ZTVN9Qt3DInput11QMouseEventE@Base 6.2.1
 _ZTVN9Qt3DInput11QWheelEventE@Base 6.2.1
 _ZTVN9Qt3DInput12QActionInputE@Base 6.2.1
 _ZTVN9Qt3DInput12QAxisSettingE@Base 6.2.1
 _ZTVN9Qt3DInput12QInputAspectE@Base 6.2.1
 _ZTVN9Qt3DInput12QMouseDeviceE@Base 6.2.1
 _ZTVN9Qt3DInput13QMouseHandlerE@Base 6.2.1
 _ZTVN9Qt3DInput14QInputSequenceE@Base 6.2.1
 _ZTVN9Qt3DInput14QInputSettingsE@Base 6.2.1
 _ZTVN9Qt3DInput14QLogicalDeviceE@Base 6.2.1
 _ZTVN9Qt3DInput15QKeyboardDeviceE@Base 6.2.1
 _ZTVN9Qt3DInput16QAnalogAxisInputE@Base 6.2.1
 _ZTVN9Qt3DInput16QAxisAccumulatorE@Base 6.2.1
 _ZTVN9Qt3DInput16QButtonAxisInputE@Base 6.2.1
 _ZTVN9Qt3DInput16QKeyboardHandlerE@Base 6.2.1
 _ZTVN9Qt3DInput18QAbstractAxisInputE@Base 6.2.1
 _ZTVN9Qt3DInput18QInputDevicePluginE@Base 6.2.1
 _ZTVN9Qt3DInput19QGenericInputDeviceE@Base 6.2.1
 _ZTVN9Qt3DInput20QAbstractActionInputE@Base 6.2.1
 _ZTVN9Qt3DInput23QAbstractPhysicalDeviceE@Base 6.2.1
 _ZTVN9Qt3DInput23QInputDeviceIntegrationE@Base 6.2.1
 _ZTVN9Qt3DInput28QAbstractPhysicalDeviceProxyE@Base 6.2.1
 _ZTVN9Qt3DInput30QAbstractPhysicalDevicePrivateE@Base 6.2.1
 _ZTVN9Qt3DInput34QAbstractPhysicalDeviceBackendNodeE@Base 6.2.1
 _ZTVN9Qt3DInput35QAbstractPhysicalDeviceProxyPrivateE@Base 6.2.1
 _ZTVN9Qt3DInput5Input11BackendNodeE@Base 6.2.1
 _ZTVN9Qt3DInput5QAxisE@Base 6.2.1
 _ZTVN9Qt3DInput7QActionE@Base 6.2.1
 _ZTVN9Qt3DInput9QKeyEventE@Base 6.2.1
 (optional=templinst)_ZZN9QMetaType21registerConverterImplI5QListIiE9QIterableI13QMetaSequenceEEEbSt8functionIFbPKvPvEES_S_E10unregister@Base 6.2.1
 (optional=templinst)_ZZN9QMetaType23registerMutableViewImplI5QListIiE9QIterableI13QMetaSequenceEEEbSt8functionIFbPvS7_EES_S_E10unregister@Base 6.2.1
