# SymbolsHelper-Confirmed: 6.6.1 amd64
libQt63DQuickExtras.so.6 libqt63dquickextras6 #MINVER#
* Build-Depends-Package: qt6-3d-dev
 Qt_6@Qt_6 6.6.1
 Qt_6_PRIVATE_API@Qt_6_PRIVATE_API 6.6.1
 _ZGVZN9QMetaType21registerConverterImplI5QListIdE9QIterableI13QMetaSequenceEEEbSt8functionIFbPKvPvEES_S_E10unregister@Qt_6 6.6.1
 _ZGVZN9QMetaType23registerMutableViewImplI5QListIdE9QIterableI13QMetaSequenceEEEbSt8functionIFbPvS7_EES_S_E10unregister@Qt_6 6.6.1
 _ZN10Qt3DExtras5Quick15Qt3DQuickWindow11qt_metacallEN11QMetaObject4CallEiPPv@Qt_6 6.6.1
 _ZN10Qt3DExtras5Quick15Qt3DQuickWindow11qt_metacastEPKc@Qt_6 6.6.1
 _ZN10Qt3DExtras5Quick15Qt3DQuickWindow14onSceneCreatedEP7QObject@Qt_6 6.6.1
 _ZN10Qt3DExtras5Quick15Qt3DQuickWindow14registerAspectEPN8Qt3DCore15QAbstractAspectE@Qt_6 6.6.1
 _ZN10Qt3DExtras5Quick15Qt3DQuickWindow14registerAspectERK7QString@Qt_6 6.6.1
 _ZN10Qt3DExtras5Quick15Qt3DQuickWindow16setWindowSurfaceEP7QObject@Qt_6 6.6.1
 _ZN10Qt3DExtras5Quick15Qt3DQuickWindow16staticMetaObjectE@Qt_6 6.6.1
 _ZN10Qt3DExtras5Quick15Qt3DQuickWindow23updateCameraAspectRatioEv@Qt_6 6.6.1
 _ZN10Qt3DExtras5Quick15Qt3DQuickWindow24setCameraAspectRatioModeENS1_21CameraAspectRatioModeE@Qt_6 6.6.1
 _ZN10Qt3DExtras5Quick15Qt3DQuickWindow25setCameraAspectModeHelperEv@Qt_6 6.6.1
 _ZN10Qt3DExtras5Quick15Qt3DQuickWindow28cameraAspectRatioModeChangedENS1_21CameraAspectRatioModeE@Qt_6 6.6.1
 _ZN10Qt3DExtras5Quick15Qt3DQuickWindow9setSourceERK4QUrl@Qt_6 6.6.1
 _ZN10Qt3DExtras5Quick15Qt3DQuickWindow9showEventEP10QShowEvent@Qt_6 6.6.1
 _ZN10Qt3DExtras5Quick15Qt3DQuickWindowC1EP7QWindow@Qt_6 6.6.1
 _ZN10Qt3DExtras5Quick15Qt3DQuickWindowC2EP7QWindow@Qt_6 6.6.1
 _ZN10Qt3DExtras5Quick15Qt3DQuickWindowD0Ev@Qt_6 6.6.1
 _ZN10Qt3DExtras5Quick15Qt3DQuickWindowD1Ev@Qt_6 6.6.1
 _ZN10Qt3DExtras5Quick15Qt3DQuickWindowD2Ev@Qt_6 6.6.1
 _ZN10Qt3DExtras5Quick24Quick3DExtras_initializeEv@Qt_6 6.6.1
 _ZN10Qt3DExtras5Quick26Quick3DExtras_registerTypeEPKcS2_ii@Qt_6 6.6.1
 _ZN10Qt3DExtras6Extras5Quick18Quick3DSpriteSheet11qt_metacallEN11QMetaObject4CallEiPPv@Qt_6_PRIVATE_API 6.6.1
 _ZN10Qt3DExtras6Extras5Quick18Quick3DSpriteSheet11qt_metacastEPKc@Qt_6_PRIVATE_API 6.6.1
 _ZN10Qt3DExtras6Extras5Quick18Quick3DSpriteSheet16staticMetaObjectE@Qt_6_PRIVATE_API 6.6.1
 _ZN10Qt3DExtras6Extras5Quick18Quick3DSpriteSheet7spritesEv@Qt_6_PRIVATE_API 6.6.1
 _ZN10Qt3DExtras6Extras5Quick18Quick3DSpriteSheetC1EP7QObject@Qt_6_PRIVATE_API 6.6.1
 _ZN10Qt3DExtras6Extras5Quick18Quick3DSpriteSheetC2EP7QObject@Qt_6_PRIVATE_API 6.6.1
 _ZN10Qt3DExtras6Extras5Quick18Quick3DSpriteSheetD0Ev@Qt_6_PRIVATE_API 6.6.1
 _ZN10Qt3DExtras6Extras5Quick18Quick3DSpriteSheetD1Ev@Qt_6_PRIVATE_API 6.6.1
 _ZN10Qt3DExtras6Extras5Quick18Quick3DSpriteSheetD2Ev@Qt_6_PRIVATE_API 6.6.1
 _ZN10Qt3DExtras6Extras5Quick26Quick3DLevelOfDetailLoader10setSourcesERK5QListI8QVariantE@Qt_6_PRIVATE_API 6.6.1
 _ZN10Qt3DExtras6Extras5Quick26Quick3DLevelOfDetailLoader11qt_metacallEN11QMetaObject4CallEiPPv@Qt_6_PRIVATE_API 6.6.1
 _ZN10Qt3DExtras6Extras5Quick26Quick3DLevelOfDetailLoader11qt_metacastEPKc@Qt_6_PRIVATE_API 6.6.1
 _ZN10Qt3DExtras6Extras5Quick26Quick3DLevelOfDetailLoader13cameraChangedEv@Qt_6_PRIVATE_API 6.6.1
 _ZN10Qt3DExtras6Extras5Quick26Quick3DLevelOfDetailLoader13entityChangedEv@Qt_6_PRIVATE_API 6.6.1
 _ZN10Qt3DExtras6Extras5Quick26Quick3DLevelOfDetailLoader13setThresholdsERK5QListIdE@Qt_6_PRIVATE_API 6.6.1
 _ZN10Qt3DExtras6Extras5Quick26Quick3DLevelOfDetailLoader13sourceChangedEv@Qt_6_PRIVATE_API 6.6.1
 _ZN10Qt3DExtras6Extras5Quick26Quick3DLevelOfDetailLoader14sourcesChangedEv@Qt_6_PRIVATE_API 6.6.1
 _ZN10Qt3DExtras6Extras5Quick26Quick3DLevelOfDetailLoader15setCurrentIndexEi@Qt_6_PRIVATE_API 6.6.1
 _ZN10Qt3DExtras6Extras5Quick26Quick3DLevelOfDetailLoader16setThresholdTypeEN10Qt3DRender14QLevelOfDetail13ThresholdTypeE@Qt_6_PRIVATE_API 6.6.1
 _ZN10Qt3DExtras6Extras5Quick26Quick3DLevelOfDetailLoader16staticMetaObjectE@Qt_6_PRIVATE_API 6.6.1
 _ZN10Qt3DExtras6Extras5Quick26Quick3DLevelOfDetailLoader17setVolumeOverrideERKN10Qt3DRender28QLevelOfDetailBoundingSphereE@Qt_6_PRIVATE_API 6.6.1
 _ZN10Qt3DExtras6Extras5Quick26Quick3DLevelOfDetailLoader17thresholdsChangedEv@Qt_6_PRIVATE_API 6.6.1
 _ZN10Qt3DExtras6Extras5Quick26Quick3DLevelOfDetailLoader19currentIndexChangedEv@Qt_6_PRIVATE_API 6.6.1
 _ZN10Qt3DExtras6Extras5Quick26Quick3DLevelOfDetailLoader20createBoundingSphereERK9QVector3Df@Qt_6_PRIVATE_API 6.6.1
 _ZN10Qt3DExtras6Extras5Quick26Quick3DLevelOfDetailLoader20thresholdTypeChangedEv@Qt_6_PRIVATE_API 6.6.1
 _ZN10Qt3DExtras6Extras5Quick26Quick3DLevelOfDetailLoader21volumeOverrideChangedEv@Qt_6_PRIVATE_API 6.6.1
 _ZN10Qt3DExtras6Extras5Quick26Quick3DLevelOfDetailLoader9setCameraEPN10Qt3DRender7QCameraE@Qt_6_PRIVATE_API 6.6.1
 _ZN10Qt3DExtras6Extras5Quick26Quick3DLevelOfDetailLoaderC1EPN8Qt3DCore5QNodeE@Qt_6_PRIVATE_API 6.6.1
 _ZN10Qt3DExtras6Extras5Quick26Quick3DLevelOfDetailLoaderC2EPN8Qt3DCore5QNodeE@Qt_6_PRIVATE_API 6.6.1
 _ZN13QMetaSequence12MetaSequenceI5QListIdEE5valueE@Qt_6 6.6.1
 _ZNK10Qt3DExtras5Quick15Qt3DQuickWindow10metaObjectEv@Qt_6 6.6.1
 _ZNK10Qt3DExtras5Quick15Qt3DQuickWindow21cameraAspectRatioModeEv@Qt_6 6.6.1
 _ZNK10Qt3DExtras5Quick15Qt3DQuickWindow6engineEv@Qt_6 6.6.1
 _ZNK10Qt3DExtras6Extras5Quick18Quick3DSpriteSheet10metaObjectEv@Qt_6_PRIVATE_API 6.6.1
 _ZNK10Qt3DExtras6Extras5Quick26Quick3DLevelOfDetailLoader10metaObjectEv@Qt_6_PRIVATE_API 6.6.1
 _ZNK10Qt3DExtras6Extras5Quick26Quick3DLevelOfDetailLoader10thresholdsEv@Qt_6_PRIVATE_API 6.6.1
 _ZNK10Qt3DExtras6Extras5Quick26Quick3DLevelOfDetailLoader12currentIndexEv@Qt_6_PRIVATE_API 6.6.1
 _ZNK10Qt3DExtras6Extras5Quick26Quick3DLevelOfDetailLoader13thresholdTypeEv@Qt_6_PRIVATE_API 6.6.1
 _ZNK10Qt3DExtras6Extras5Quick26Quick3DLevelOfDetailLoader14volumeOverrideEv@Qt_6_PRIVATE_API 6.6.1
 _ZNK10Qt3DExtras6Extras5Quick26Quick3DLevelOfDetailLoader6cameraEv@Qt_6_PRIVATE_API 6.6.1
 _ZNK10Qt3DExtras6Extras5Quick26Quick3DLevelOfDetailLoader6entityEv@Qt_6_PRIVATE_API 6.6.1
 _ZNK10Qt3DExtras6Extras5Quick26Quick3DLevelOfDetailLoader6sourceEv@Qt_6_PRIVATE_API 6.6.1
 _ZNK10Qt3DExtras6Extras5Quick26Quick3DLevelOfDetailLoader7sourcesEv@Qt_6_PRIVATE_API 6.6.1
 _ZTIN10Qt3DExtras5Quick15Qt3DQuickWindowE@Qt_6 6.6.1
 _ZTIN10Qt3DExtras6Extras5Quick18Quick3DSpriteSheetE@Qt_6_PRIVATE_API 6.6.1
 _ZTIN10Qt3DExtras6Extras5Quick26Quick3DLevelOfDetailLoaderE@Qt_6_PRIVATE_API 6.6.1
 _ZTIZN9QMetaType17registerConverterI5QListIdE9QIterableI13QMetaSequenceEN9QtPrivate33QSequentialIterableConvertFunctorIS2_EEEEbT1_EUlPKvPvE_@Qt_6 6.6.1
 _ZTIZN9QMetaType19registerMutableViewI5QListIdE9QIterableI13QMetaSequenceEN9QtPrivate37QSequentialIterableMutableViewFunctorIS2_EEEEbT1_EUlPvSA_E_@Qt_6 6.6.1
 _ZTSN10Qt3DExtras5Quick15Qt3DQuickWindowE@Qt_6 6.6.1
 _ZTSN10Qt3DExtras6Extras5Quick18Quick3DSpriteSheetE@Qt_6_PRIVATE_API 6.6.1
 _ZTSN10Qt3DExtras6Extras5Quick26Quick3DLevelOfDetailLoaderE@Qt_6_PRIVATE_API 6.6.1
 _ZTSZN9QMetaType17registerConverterI5QListIdE9QIterableI13QMetaSequenceEN9QtPrivate33QSequentialIterableConvertFunctorIS2_EEEEbT1_EUlPKvPvE_@Qt_6 6.6.1
 _ZTSZN9QMetaType19registerMutableViewI5QListIdE9QIterableI13QMetaSequenceEN9QtPrivate37QSequentialIterableMutableViewFunctorIS2_EEEEbT1_EUlPvSA_E_@Qt_6 6.6.1
 _ZTVN10Qt3DExtras5Quick15Qt3DQuickWindowE@Qt_6 6.6.1
 _ZTVN10Qt3DExtras6Extras5Quick18Quick3DSpriteSheetE@Qt_6_PRIVATE_API 6.6.1
 _ZTVN10Qt3DExtras6Extras5Quick26Quick3DLevelOfDetailLoaderE@Qt_6_PRIVATE_API 6.6.1
 (optional=templinst)_ZZN9QMetaType21registerConverterImplI5QListIdE9QIterableI13QMetaSequenceEEEbSt8functionIFbPKvPvEES_S_E10unregister@Qt_6 6.6.1
 (optional=templinst)_ZZN9QMetaType23registerMutableViewImplI5QListIdE9QIterableI13QMetaSequenceEEEbSt8functionIFbPvS7_EES_S_E10unregister@Qt_6 6.6.1
 (c++)"non-virtual thunk to Qt3DExtras::Quick::Qt3DQuickWindow::~Qt3DQuickWindow()@Qt_6" 6.6.1
