# SymbolsHelper-Confirmed: 6.2.1 amd64
libQt63DQuickAnimation.so.6 libqt63dquickanimation6 #MINVER#
* Build-Depends-Package: qt6-3d-dev
 _ZN13Qt3DAnimation5Quick19QQuick3DMorphTarget10attributesEv@Base 6.2.1
 _ZN13Qt3DAnimation5Quick19QQuick3DMorphTarget11qt_metacallEN11QMetaObject4CallEiPPv@Base 6.2.1
 _ZN13Qt3DAnimation5Quick19QQuick3DMorphTarget11qt_metacastEPKc@Base 6.2.1
 _ZN13Qt3DAnimation5Quick19QQuick3DMorphTarget16staticMetaObjectE@Base 6.2.1
 _ZN13Qt3DAnimation5Quick19QQuick3DMorphTargetC1EP7QObject@Base 6.2.1
 _ZN13Qt3DAnimation5Quick19QQuick3DMorphTargetC2EP7QObject@Base 6.2.1
 _ZN13Qt3DAnimation5Quick22QQuick3DAnimationGroup10animationsEv@Base 6.2.1
 _ZN13Qt3DAnimation5Quick22QQuick3DAnimationGroup11qt_metacallEN11QMetaObject4CallEiPPv@Base 6.2.1
 _ZN13Qt3DAnimation5Quick22QQuick3DAnimationGroup11qt_metacastEPKc@Base 6.2.1
 _ZN13Qt3DAnimation5Quick22QQuick3DAnimationGroup16staticMetaObjectE@Base 6.2.1
 _ZN13Qt3DAnimation5Quick22QQuick3DAnimationGroupC1EP7QObject@Base 6.2.1
 _ZN13Qt3DAnimation5Quick22QQuick3DAnimationGroupC2EP7QObject@Base 6.2.1
 _ZN13Qt3DAnimation5Quick25QQuick3DKeyframeAnimation11qt_metacallEN11QMetaObject4CallEiPPv@Base 6.2.1
 _ZN13Qt3DAnimation5Quick25QQuick3DKeyframeAnimation11qt_metacastEPKc@Base 6.2.1
 _ZN13Qt3DAnimation5Quick25QQuick3DKeyframeAnimation16staticMetaObjectE@Base 6.2.1
 _ZN13Qt3DAnimation5Quick25QQuick3DKeyframeAnimation9keyframesEv@Base 6.2.1
 _ZN13Qt3DAnimation5Quick25QQuick3DKeyframeAnimationC1EP7QObject@Base 6.2.1
 _ZN13Qt3DAnimation5Quick25QQuick3DKeyframeAnimationC2EP7QObject@Base 6.2.1
 _ZN13Qt3DAnimation5Quick25QQuick3DMorphingAnimation11qt_metacallEN11QMetaObject4CallEiPPv@Base 6.2.1
 _ZN13Qt3DAnimation5Quick25QQuick3DMorphingAnimation11qt_metacastEPKc@Base 6.2.1
 _ZN13Qt3DAnimation5Quick25QQuick3DMorphingAnimation12morphTargetsEv@Base 6.2.1
 _ZN13Qt3DAnimation5Quick25QQuick3DMorphingAnimation16staticMetaObjectE@Base 6.2.1
 _ZN13Qt3DAnimation5Quick25QQuick3DMorphingAnimationC1EP7QObject@Base 6.2.1
 _ZN13Qt3DAnimation5Quick25QQuick3DMorphingAnimationC2EP7QObject@Base 6.2.1
 _ZN13Qt3DAnimation5Quick27QQuick3DAnimationController11qt_metacallEN11QMetaObject4CallEiPPv@Base 6.2.1
 _ZN13Qt3DAnimation5Quick27QQuick3DAnimationController11qt_metacastEPKc@Base 6.2.1
 _ZN13Qt3DAnimation5Quick27QQuick3DAnimationController15animationGroupsEv@Base 6.2.1
 _ZN13Qt3DAnimation5Quick27QQuick3DAnimationController16staticMetaObjectE@Base 6.2.1
 _ZN13Qt3DAnimation5Quick27QQuick3DAnimationControllerC1EP7QObject@Base 6.2.1
 _ZN13Qt3DAnimation5Quick27QQuick3DAnimationControllerC2EP7QObject@Base 6.2.1
 _ZN13Qt3DAnimation5Quick27Quick3DAnimation_initializeEv@Base 6.2.1
 _ZN13Qt3DAnimation5Quick28QQuick3DVertexBlendAnimation11qt_metacallEN11QMetaObject4CallEiPPv@Base 6.2.1
 _ZN13Qt3DAnimation5Quick28QQuick3DVertexBlendAnimation11qt_metacastEPKc@Base 6.2.1
 _ZN13Qt3DAnimation5Quick28QQuick3DVertexBlendAnimation12morphTargetsEv@Base 6.2.1
 _ZN13Qt3DAnimation5Quick28QQuick3DVertexBlendAnimation16staticMetaObjectE@Base 6.2.1
 _ZN13Qt3DAnimation5Quick28QQuick3DVertexBlendAnimationC1EP7QObject@Base 6.2.1
 _ZN13Qt3DAnimation5Quick28QQuick3DVertexBlendAnimationC2EP7QObject@Base 6.2.1
 _ZN13Qt3DAnimation5Quick29Quick3DAnimation_registerTypeEPKcS2_ii@Base 6.2.1
 _ZN13Qt3DAnimation9Animation5Quick20Quick3DChannelMapper11qmlMappingsEv@Base 6.2.1
 _ZN13Qt3DAnimation9Animation5Quick20Quick3DChannelMapper11qt_metacallEN11QMetaObject4CallEiPPv@Base 6.2.1
 _ZN13Qt3DAnimation9Animation5Quick20Quick3DChannelMapper11qt_metacastEPKc@Base 6.2.1
 _ZN13Qt3DAnimation9Animation5Quick20Quick3DChannelMapper16staticMetaObjectE@Base 6.2.1
 _ZN13Qt3DAnimation9Animation5Quick20Quick3DChannelMapperC1EP7QObject@Base 6.2.1
 _ZN13Qt3DAnimation9Animation5Quick20Quick3DChannelMapperC2EP7QObject@Base 6.2.1
 _ZNK13Qt3DAnimation5Quick19QQuick3DMorphTarget10metaObjectEv@Base 6.2.1
 _ZNK13Qt3DAnimation5Quick22QQuick3DAnimationGroup10metaObjectEv@Base 6.2.1
 _ZNK13Qt3DAnimation5Quick25QQuick3DKeyframeAnimation10metaObjectEv@Base 6.2.1
 _ZNK13Qt3DAnimation5Quick25QQuick3DMorphingAnimation10metaObjectEv@Base 6.2.1
 _ZNK13Qt3DAnimation5Quick27QQuick3DAnimationController10metaObjectEv@Base 6.2.1
 _ZNK13Qt3DAnimation5Quick28QQuick3DVertexBlendAnimation10metaObjectEv@Base 6.2.1
 _ZNK13Qt3DAnimation9Animation5Quick20Quick3DChannelMapper10metaObjectEv@Base 6.2.1
 _ZTIN13Qt3DAnimation5Quick19QQuick3DMorphTargetE@Base 6.2.1
 _ZTIN13Qt3DAnimation5Quick22QQuick3DAnimationGroupE@Base 6.2.1
 _ZTIN13Qt3DAnimation5Quick25QQuick3DKeyframeAnimationE@Base 6.2.1
 _ZTIN13Qt3DAnimation5Quick25QQuick3DMorphingAnimationE@Base 6.2.1
 _ZTIN13Qt3DAnimation5Quick27QQuick3DAnimationControllerE@Base 6.2.1
 _ZTIN13Qt3DAnimation5Quick28QQuick3DVertexBlendAnimationE@Base 6.2.1
 _ZTIN13Qt3DAnimation9Animation5Quick20Quick3DChannelMapperE@Base 6.2.1
 _ZTSN13Qt3DAnimation5Quick19QQuick3DMorphTargetE@Base 6.2.1
 _ZTSN13Qt3DAnimation5Quick22QQuick3DAnimationGroupE@Base 6.2.1
 _ZTSN13Qt3DAnimation5Quick25QQuick3DKeyframeAnimationE@Base 6.2.1
 _ZTSN13Qt3DAnimation5Quick25QQuick3DMorphingAnimationE@Base 6.2.1
 _ZTSN13Qt3DAnimation5Quick27QQuick3DAnimationControllerE@Base 6.2.1
 _ZTSN13Qt3DAnimation5Quick28QQuick3DVertexBlendAnimationE@Base 6.2.1
 _ZTSN13Qt3DAnimation9Animation5Quick20Quick3DChannelMapperE@Base 6.2.1
 _ZTVN13Qt3DAnimation5Quick19QQuick3DMorphTargetE@Base 6.2.1
 _ZTVN13Qt3DAnimation5Quick22QQuick3DAnimationGroupE@Base 6.2.1
 _ZTVN13Qt3DAnimation5Quick25QQuick3DKeyframeAnimationE@Base 6.2.1
 _ZTVN13Qt3DAnimation5Quick25QQuick3DMorphingAnimationE@Base 6.2.1
 _ZTVN13Qt3DAnimation5Quick27QQuick3DAnimationControllerE@Base 6.2.1
 _ZTVN13Qt3DAnimation5Quick28QQuick3DVertexBlendAnimationE@Base 6.2.1
 _ZTVN13Qt3DAnimation9Animation5Quick20Quick3DChannelMapperE@Base 6.2.1
