# SymbolsHelper-Confirmed: 6.4.0 amd64
libQt63DQuickRender.so.6 libqt63dquickrender6 #MINVER#
* Build-Depends-Package: qt6-3d-dev
 _ZGVZN9QMetaType21registerConverterImplI5QListIPN10Qt3DRender11QShaderDataEE9QIterableI13QMetaSequenceEEEbSt8functionIFbPKvPvEES_S_E10unregister@Base 6.2.1
 _ZGVZN9QMetaType23registerMutableViewImplI5QListIPN10Qt3DRender11QShaderDataEE9QIterableI13QMetaSequenceEEEbSt8functionIFbPvSA_EES_S_E10unregister@Base 6.2.1
 _ZN10Qt3DRender5Quick24Quick3DRender_initializeEv@Base 6.2.1
 _ZN10Qt3DRender5Quick26Quick3DRender_registerTypeEPKcS2_ii@Base 6.2.1
 _ZN10Qt3DRender6Render5Quick12Quick3DScene11qt_metacallEN11QMetaObject4CallEiPPv@Base 6.2.1
 _ZN10Qt3DRender6Render5Quick12Quick3DScene11qt_metacastEPKc@Base 6.2.1
 _ZN10Qt3DRender6Render5Quick12Quick3DScene16staticMetaObjectE@Base 6.2.1
 _ZN10Qt3DRender6Render5Quick12Quick3DSceneC1EP7QObject@Base 6.2.1
 _ZN10Qt3DRender6Render5Quick12Quick3DSceneC2EP7QObject@Base 6.2.1
 _ZN10Qt3DRender6Render5Quick13Quick3DEffect11qt_metacallEN11QMetaObject4CallEiPPv@Base 6.2.1
 _ZN10Qt3DRender6Render5Quick13Quick3DEffect11qt_metacastEPKc@Base 6.2.1
 _ZN10Qt3DRender6Render5Quick13Quick3DEffect13parameterListEv@Base 6.2.1
 _ZN10Qt3DRender6Render5Quick13Quick3DEffect13techniqueListEv@Base 6.2.1
 _ZN10Qt3DRender6Render5Quick13Quick3DEffect16staticMetaObjectE@Base 6.2.1
 _ZN10Qt3DRender6Render5Quick13Quick3DEffectC1EP7QObject@Base 6.2.1
 _ZN10Qt3DRender6Render5Quick13Quick3DEffectC2EP7QObject@Base 6.2.1
 _ZN10Qt3DRender6Render5Quick15Quick3DMaterial11qt_metacallEN11QMetaObject4CallEiPPv@Base 6.2.1
 _ZN10Qt3DRender6Render5Quick15Quick3DMaterial11qt_metacastEPKc@Base 6.2.1
 _ZN10Qt3DRender6Render5Quick15Quick3DMaterial13qmlParametersEv@Base 6.2.1
 _ZN10Qt3DRender6Render5Quick15Quick3DMaterial16staticMetaObjectE@Base 6.2.1
 _ZN10Qt3DRender6Render5Quick15Quick3DMaterialC1EP7QObject@Base 6.2.1
 _ZN10Qt3DRender6Render5Quick15Quick3DMaterialC2EP7QObject@Base 6.2.1
 _ZN10Qt3DRender6Render5Quick15Quick3DStateSet11qt_metacallEN11QMetaObject4CallEiPPv@Base 6.2.1
 _ZN10Qt3DRender6Render5Quick15Quick3DStateSet11qt_metacastEPKc@Base 6.2.1
 _ZN10Qt3DRender6Render5Quick15Quick3DStateSet15renderStateListEv@Base 6.2.1
 _ZN10Qt3DRender6Render5Quick15Quick3DStateSet16staticMetaObjectE@Base 6.2.1
 _ZN10Qt3DRender6Render5Quick15Quick3DStateSetC1EP7QObject@Base 6.2.1
 _ZN10Qt3DRender6Render5Quick15Quick3DStateSetC2EP7QObject@Base 6.2.1
 _ZN10Qt3DRender6Render5Quick15Quick3DStateSetD0Ev@Base 6.2.1
 _ZN10Qt3DRender6Render5Quick15Quick3DStateSetD1Ev@Base 6.2.1
 _ZN10Qt3DRender6Render5Quick15Quick3DStateSetD2Ev@Base 6.2.1
 _ZN10Qt3DRender6Render5Quick15Quick3DViewport11qt_metacallEN11QMetaObject4CallEiPPv@Base 6.2.1
 _ZN10Qt3DRender6Render5Quick15Quick3DViewport11qt_metacastEPKc@Base 6.2.1
 _ZN10Qt3DRender6Render5Quick15Quick3DViewport16staticMetaObjectE@Base 6.2.1
 _ZN10Qt3DRender6Render5Quick15Quick3DViewportC1EP7QObject@Base 6.2.1
 _ZN10Qt3DRender6Render5Quick15Quick3DViewportC2EP7QObject@Base 6.2.1
 _ZN10Qt3DRender6Render5Quick16Quick3DParameter11qt_metacallEN11QMetaObject4CallEiPPv@Base 6.2.1
 _ZN10Qt3DRender6Render5Quick16Quick3DParameter11qt_metacastEPKc@Base 6.2.1
 _ZN10Qt3DRender6Render5Quick16Quick3DParameter16staticMetaObjectE@Base 6.2.1
 _ZN10Qt3DRender6Render5Quick16Quick3DParameterC1EPN8Qt3DCore5QNodeE@Base 6.2.1
 _ZN10Qt3DRender6Render5Quick16Quick3DParameterC1ERNS1_23Quick3DParameterPrivateEPN8Qt3DCore5QNodeE@Base 6.2.1
 _ZN10Qt3DRender6Render5Quick16Quick3DParameterC2EPN8Qt3DCore5QNodeE@Base 6.2.1
 _ZN10Qt3DRender6Render5Quick16Quick3DParameterC2ERNS1_23Quick3DParameterPrivateEPN8Qt3DCore5QNodeE@Base 6.2.1
 _ZN10Qt3DRender6Render5Quick16Quick3DRayCaster11qt_metacallEN11QMetaObject4CallEiPPv@Base 6.2.1
 _ZN10Qt3DRender6Render5Quick16Quick3DRayCaster11qt_metacastEPKc@Base 6.2.1
 _ZN10Qt3DRender6Render5Quick16Quick3DRayCaster16staticMetaObjectE@Base 6.2.1
 _ZN10Qt3DRender6Render5Quick16Quick3DRayCaster9qmlLayersEv@Base 6.2.1
 _ZN10Qt3DRender6Render5Quick16Quick3DRayCasterC1EP7QObject@Base 6.2.1
 _ZN10Qt3DRender6Render5Quick16Quick3DRayCasterC2EP7QObject@Base 6.2.1
 _ZN10Qt3DRender6Render5Quick16Quick3DTechnique11qt_metacallEN11QMetaObject4CallEiPPv@Base 6.2.1
 _ZN10Qt3DRender6Render5Quick16Quick3DTechnique11qt_metacastEPKc@Base 6.2.1
 _ZN10Qt3DRender6Render5Quick16Quick3DTechnique13filterKeyListEv@Base 6.2.1
 _ZN10Qt3DRender6Render5Quick16Quick3DTechnique13parameterListEv@Base 6.2.1
 _ZN10Qt3DRender6Render5Quick16Quick3DTechnique14renderPassListEv@Base 6.2.1
 _ZN10Qt3DRender6Render5Quick16Quick3DTechnique16staticMetaObjectE@Base 6.2.1
 _ZN10Qt3DRender6Render5Quick16Quick3DTechniqueC1EP7QObject@Base 6.2.1
 _ZN10Qt3DRender6Render5Quick16Quick3DTechniqueC2EP7QObject@Base 6.2.1
 _ZN10Qt3DRender6Render5Quick17Quick3DRenderPass11qt_metacallEN11QMetaObject4CallEiPPv@Base 6.2.1
 _ZN10Qt3DRender6Render5Quick17Quick3DRenderPass11qt_metacastEPKc@Base 6.2.1
 _ZN10Qt3DRender6Render5Quick17Quick3DRenderPass13filterKeyListEv@Base 6.2.1
 _ZN10Qt3DRender6Render5Quick17Quick3DRenderPass13parameterListEv@Base 6.2.1
 _ZN10Qt3DRender6Render5Quick17Quick3DRenderPass15renderStateListEv@Base 6.2.1
 _ZN10Qt3DRender6Render5Quick17Quick3DRenderPass16staticMetaObjectE@Base 6.2.1
 _ZN10Qt3DRender6Render5Quick17Quick3DRenderPassC1EP7QObject@Base 6.2.1
 _ZN10Qt3DRender6Render5Quick17Quick3DRenderPassC2EP7QObject@Base 6.2.1
 _ZN10Qt3DRender6Render5Quick17Quick3DShaderData11qt_metacallEN11QMetaObject4CallEiPPv@Base 6.2.1
 _ZN10Qt3DRender6Render5Quick17Quick3DShaderData11qt_metacastEPKc@Base 6.2.1
 _ZN10Qt3DRender6Render5Quick17Quick3DShaderData16staticMetaObjectE@Base 6.2.1
 _ZN10Qt3DRender6Render5Quick17Quick3DShaderDataC1EPN8Qt3DCore5QNodeE@Base 6.2.1
 _ZN10Qt3DRender6Render5Quick17Quick3DShaderDataC2EPN8Qt3DCore5QNodeE@Base 6.2.1
 _ZN10Qt3DRender6Render5Quick18Quick3DLayerFilter11qt_metacallEN11QMetaObject4CallEiPPv@Base 6.2.1
 _ZN10Qt3DRender6Render5Quick18Quick3DLayerFilter11qt_metacastEPKc@Base 6.2.1
 _ZN10Qt3DRender6Render5Quick18Quick3DLayerFilter16staticMetaObjectE@Base 6.2.1
 _ZN10Qt3DRender6Render5Quick18Quick3DLayerFilter9qmlLayersEv@Base 6.2.1
 _ZN10Qt3DRender6Render5Quick18Quick3DLayerFilterC1EP7QObject@Base 6.2.1
 _ZN10Qt3DRender6Render5Quick18Quick3DLayerFilterC2EP7QObject@Base 6.2.1
 _ZN10Qt3DRender6Render5Quick20Quick3DMemoryBarrier10setWaitForEi@Base 6.2.1
 _ZN10Qt3DRender6Render5Quick20Quick3DMemoryBarrier11qt_metacallEN11QMetaObject4CallEiPPv@Base 6.2.1
 _ZN10Qt3DRender6Render5Quick20Quick3DMemoryBarrier11qt_metacastEPKc@Base 6.2.1
 _ZN10Qt3DRender6Render5Quick20Quick3DMemoryBarrier16staticMetaObjectE@Base 6.2.1
 _ZN10Qt3DRender6Render5Quick20Quick3DMemoryBarrierC1EP7QObject@Base 6.2.1
 _ZN10Qt3DRender6Render5Quick20Quick3DMemoryBarrierC2EP7QObject@Base 6.2.1
 _ZN10Qt3DRender6Render5Quick20Quick3DMemoryBarrierD0Ev@Base 6.2.1
 _ZN10Qt3DRender6Render5Quick20Quick3DMemoryBarrierD1Ev@Base 6.2.1
 _ZN10Qt3DRender6Render5Quick20Quick3DMemoryBarrierD2Ev@Base 6.2.1
 _ZN10Qt3DRender6Render5Quick22Quick3DScreenRayCaster11qt_metacallEN11QMetaObject4CallEiPPv@Base 6.2.1
 _ZN10Qt3DRender6Render5Quick22Quick3DScreenRayCaster11qt_metacastEPKc@Base 6.2.1
 _ZN10Qt3DRender6Render5Quick22Quick3DScreenRayCaster16staticMetaObjectE@Base 6.2.1
 _ZN10Qt3DRender6Render5Quick22Quick3DScreenRayCaster9qmlLayersEv@Base 6.2.1
 _ZN10Qt3DRender6Render5Quick22Quick3DScreenRayCasterC1EP7QObject@Base 6.2.1
 _ZN10Qt3DRender6Render5Quick22Quick3DScreenRayCasterC2EP7QObject@Base 6.2.1
 _ZN10Qt3DRender6Render5Quick22Quick3DShaderDataArray10valuesListEv@Base 6.2.1
 _ZN10Qt3DRender6Render5Quick22Quick3DShaderDataArray11qt_metacallEN11QMetaObject4CallEiPPv@Base 6.2.1
 _ZN10Qt3DRender6Render5Quick22Quick3DShaderDataArray11qt_metacastEPKc@Base 6.2.1
 _ZN10Qt3DRender6Render5Quick22Quick3DShaderDataArray16staticMetaObjectE@Base 6.2.1
 _ZN10Qt3DRender6Render5Quick22Quick3DShaderDataArrayC1EPN8Qt3DCore5QNodeE@Base 6.2.1
 _ZN10Qt3DRender6Render5Quick22Quick3DShaderDataArrayC2EPN8Qt3DCore5QNodeE@Base 6.2.1
 _ZN10Qt3DRender6Render5Quick22Quick3DTechniqueFilter11qt_metacallEN11QMetaObject4CallEiPPv@Base 6.2.1
 _ZN10Qt3DRender6Render5Quick22Quick3DTechniqueFilter11qt_metacastEPKc@Base 6.2.1
 _ZN10Qt3DRender6Render5Quick22Quick3DTechniqueFilter13parameterListEv@Base 6.2.1
 _ZN10Qt3DRender6Render5Quick22Quick3DTechniqueFilter16staticMetaObjectE@Base 6.2.1
 _ZN10Qt3DRender6Render5Quick22Quick3DTechniqueFilter9matchListEv@Base 6.2.1
 _ZN10Qt3DRender6Render5Quick22Quick3DTechniqueFilterC1EP7QObject@Base 6.2.1
 _ZN10Qt3DRender6Render5Quick22Quick3DTechniqueFilterC2EP7QObject@Base 6.2.1
 _ZN10Qt3DRender6Render5Quick23Quick3DRenderPassFilter11includeListEv@Base 6.2.1
 _ZN10Qt3DRender6Render5Quick23Quick3DRenderPassFilter11qt_metacallEN11QMetaObject4CallEiPPv@Base 6.2.1
 _ZN10Qt3DRender6Render5Quick23Quick3DRenderPassFilter11qt_metacastEPKc@Base 6.2.1
 _ZN10Qt3DRender6Render5Quick23Quick3DRenderPassFilter13parameterListEv@Base 6.2.1
 _ZN10Qt3DRender6Render5Quick23Quick3DRenderPassFilter16staticMetaObjectE@Base 6.2.1
 _ZN10Qt3DRender6Render5Quick23Quick3DRenderPassFilterC1EP7QObject@Base 6.2.1
 _ZN10Qt3DRender6Render5Quick23Quick3DRenderPassFilterC2EP7QObject@Base 6.2.1
 _ZN10Qt3DRender6Render5Quick23Quick3DTextureExtension11qt_metacallEN11QMetaObject4CallEiPPv@Base 6.2.1
 _ZN10Qt3DRender6Render5Quick23Quick3DTextureExtension11qt_metacastEPKc@Base 6.2.1
 _ZN10Qt3DRender6Render5Quick23Quick3DTextureExtension13textureImagesEv@Base 6.2.1
 _ZN10Qt3DRender6Render5Quick23Quick3DTextureExtension16staticMetaObjectE@Base 6.2.1
 _ZN10Qt3DRender6Render5Quick23Quick3DTextureExtensionC1EP7QObject@Base 6.2.1
 _ZN10Qt3DRender6Render5Quick23Quick3DTextureExtensionC2EP7QObject@Base 6.2.1
 _ZN10Qt3DRender6Render5Quick25Quick3DRenderTargetOutput11qt_metacallEN11QMetaObject4CallEiPPv@Base 6.2.1
 _ZN10Qt3DRender6Render5Quick25Quick3DRenderTargetOutput11qt_metacastEPKc@Base 6.2.1
 _ZN10Qt3DRender6Render5Quick25Quick3DRenderTargetOutput14qmlAttachmentsEv@Base 6.2.1
 _ZN10Qt3DRender6Render5Quick25Quick3DRenderTargetOutput16staticMetaObjectE@Base 6.2.1
 _ZN10Qt3DRender6Render5Quick25Quick3DRenderTargetOutputC1EP7QObject@Base 6.2.1
 _ZN10Qt3DRender6Render5Quick25Quick3DRenderTargetOutputC2EP7QObject@Base 6.2.1
 _ZN13QMetaSequence12MetaSequenceI5QListIPN10Qt3DRender11QShaderDataEEE5valueE@Base 6.2.1
 _ZNK10Qt3DRender6Render5Quick12Quick3DScene10metaObjectEv@Base 6.2.1
 _ZNK10Qt3DRender6Render5Quick13Quick3DEffect10metaObjectEv@Base 6.2.1
 _ZNK10Qt3DRender6Render5Quick15Quick3DMaterial10metaObjectEv@Base 6.2.1
 _ZNK10Qt3DRender6Render5Quick15Quick3DStateSet10metaObjectEv@Base 6.2.1
 _ZNK10Qt3DRender6Render5Quick15Quick3DViewport10metaObjectEv@Base 6.2.1
 _ZNK10Qt3DRender6Render5Quick16Quick3DParameter10metaObjectEv@Base 6.2.1
 _ZNK10Qt3DRender6Render5Quick16Quick3DRayCaster10metaObjectEv@Base 6.2.1
 _ZNK10Qt3DRender6Render5Quick16Quick3DTechnique10metaObjectEv@Base 6.2.1
 _ZNK10Qt3DRender6Render5Quick17Quick3DRenderPass10metaObjectEv@Base 6.2.1
 _ZNK10Qt3DRender6Render5Quick17Quick3DShaderData10metaObjectEv@Base 6.2.1
 _ZNK10Qt3DRender6Render5Quick18Quick3DLayerFilter10metaObjectEv@Base 6.2.1
 _ZNK10Qt3DRender6Render5Quick20Quick3DMemoryBarrier10metaObjectEv@Base 6.2.1
 _ZNK10Qt3DRender6Render5Quick20Quick3DMemoryBarrier7waitForEv@Base 6.2.1
 _ZNK10Qt3DRender6Render5Quick22Quick3DScreenRayCaster10metaObjectEv@Base 6.2.1
 _ZNK10Qt3DRender6Render5Quick22Quick3DShaderDataArray10metaObjectEv@Base 6.2.1
 _ZNK10Qt3DRender6Render5Quick22Quick3DShaderDataArray6valuesEv@Base 6.2.1
 _ZNK10Qt3DRender6Render5Quick22Quick3DTechniqueFilter10metaObjectEv@Base 6.2.1
 _ZNK10Qt3DRender6Render5Quick23Quick3DRenderPassFilter10metaObjectEv@Base 6.2.1
 _ZNK10Qt3DRender6Render5Quick23Quick3DTextureExtension10metaObjectEv@Base 6.2.1
 _ZNK10Qt3DRender6Render5Quick25Quick3DRenderTargetOutput10metaObjectEv@Base 6.2.1
 _ZTIN10Qt3DRender6Render5Quick12Quick3DSceneE@Base 6.2.1
 _ZTIN10Qt3DRender6Render5Quick13Quick3DEffectE@Base 6.2.1
 _ZTIN10Qt3DRender6Render5Quick15Quick3DMaterialE@Base 6.2.1
 _ZTIN10Qt3DRender6Render5Quick15Quick3DStateSetE@Base 6.2.1
 _ZTIN10Qt3DRender6Render5Quick15Quick3DViewportE@Base 6.2.1
 _ZTIN10Qt3DRender6Render5Quick16Quick3DParameterE@Base 6.2.1
 _ZTIN10Qt3DRender6Render5Quick16Quick3DRayCasterE@Base 6.2.1
 _ZTIN10Qt3DRender6Render5Quick16Quick3DTechniqueE@Base 6.2.1
 _ZTIN10Qt3DRender6Render5Quick17Quick3DRenderPassE@Base 6.2.1
 _ZTIN10Qt3DRender6Render5Quick17Quick3DShaderDataE@Base 6.2.1
 _ZTIN10Qt3DRender6Render5Quick18Quick3DLayerFilterE@Base 6.2.1
 _ZTIN10Qt3DRender6Render5Quick20Quick3DMemoryBarrierE@Base 6.2.1
 _ZTIN10Qt3DRender6Render5Quick22Quick3DScreenRayCasterE@Base 6.2.1
 _ZTIN10Qt3DRender6Render5Quick22Quick3DShaderDataArrayE@Base 6.2.1
 _ZTIN10Qt3DRender6Render5Quick22Quick3DTechniqueFilterE@Base 6.2.1
 _ZTIN10Qt3DRender6Render5Quick23Quick3DRenderPassFilterE@Base 6.2.1
 _ZTIN10Qt3DRender6Render5Quick23Quick3DTextureExtensionE@Base 6.2.1
 _ZTIN10Qt3DRender6Render5Quick25Quick3DRenderTargetOutputE@Base 6.2.1
 _ZTIZN9QMetaType17registerConverterI5QListIPN10Qt3DRender11QShaderDataEE9QIterableI13QMetaSequenceEN9QtPrivate33QSequentialIterableConvertFunctorIS5_EEEEbT1_EUlPKvPvE_@Base 6.2.1
 _ZTIZN9QMetaType19registerMutableViewI5QListIPN10Qt3DRender11QShaderDataEE9QIterableI13QMetaSequenceEN9QtPrivate37QSequentialIterableMutableViewFunctorIS5_EEEEbT1_EUlPvSD_E_@Base 6.2.1
 _ZTSN10Qt3DRender6Render5Quick12Quick3DSceneE@Base 6.2.1
 _ZTSN10Qt3DRender6Render5Quick13Quick3DEffectE@Base 6.2.1
 _ZTSN10Qt3DRender6Render5Quick15Quick3DMaterialE@Base 6.2.1
 _ZTSN10Qt3DRender6Render5Quick15Quick3DStateSetE@Base 6.2.1
 _ZTSN10Qt3DRender6Render5Quick15Quick3DViewportE@Base 6.2.1
 _ZTSN10Qt3DRender6Render5Quick16Quick3DParameterE@Base 6.2.1
 _ZTSN10Qt3DRender6Render5Quick16Quick3DRayCasterE@Base 6.2.1
 _ZTSN10Qt3DRender6Render5Quick16Quick3DTechniqueE@Base 6.2.1
 _ZTSN10Qt3DRender6Render5Quick17Quick3DRenderPassE@Base 6.2.1
 _ZTSN10Qt3DRender6Render5Quick17Quick3DShaderDataE@Base 6.2.1
 _ZTSN10Qt3DRender6Render5Quick18Quick3DLayerFilterE@Base 6.2.1
 _ZTSN10Qt3DRender6Render5Quick20Quick3DMemoryBarrierE@Base 6.2.1
 _ZTSN10Qt3DRender6Render5Quick22Quick3DScreenRayCasterE@Base 6.2.1
 _ZTSN10Qt3DRender6Render5Quick22Quick3DShaderDataArrayE@Base 6.2.1
 _ZTSN10Qt3DRender6Render5Quick22Quick3DTechniqueFilterE@Base 6.2.1
 _ZTSN10Qt3DRender6Render5Quick23Quick3DRayCasterPrivateE@Base 6.2.1
 _ZTSN10Qt3DRender6Render5Quick23Quick3DRenderPassFilterE@Base 6.2.1
 _ZTSN10Qt3DRender6Render5Quick23Quick3DTextureExtensionE@Base 6.2.1
 _ZTSN10Qt3DRender6Render5Quick25Quick3DRenderTargetOutputE@Base 6.2.1
 _ZTSN10Qt3DRender6Render5Quick29Quick3DScreenRayCasterPrivateE@Base 6.2.1
 _ZTSZN9QMetaType17registerConverterI5QListIPN10Qt3DRender11QShaderDataEE9QIterableI13QMetaSequenceEN9QtPrivate33QSequentialIterableConvertFunctorIS5_EEEEbT1_EUlPKvPvE_@Base 6.2.1
 _ZTSZN9QMetaType19registerMutableViewI5QListIPN10Qt3DRender11QShaderDataEE9QIterableI13QMetaSequenceEN9QtPrivate37QSequentialIterableMutableViewFunctorIS5_EEEEbT1_EUlPvSD_E_@Base 6.2.1
 _ZTVN10Qt3DRender6Render5Quick12Quick3DSceneE@Base 6.2.1
 _ZTVN10Qt3DRender6Render5Quick13Quick3DEffectE@Base 6.2.1
 _ZTVN10Qt3DRender6Render5Quick15Quick3DMaterialE@Base 6.2.1
 _ZTVN10Qt3DRender6Render5Quick15Quick3DStateSetE@Base 6.2.1
 _ZTVN10Qt3DRender6Render5Quick15Quick3DViewportE@Base 6.2.1
 _ZTVN10Qt3DRender6Render5Quick16Quick3DParameterE@Base 6.2.1
 _ZTVN10Qt3DRender6Render5Quick16Quick3DRayCasterE@Base 6.2.1
 _ZTVN10Qt3DRender6Render5Quick16Quick3DTechniqueE@Base 6.2.1
 _ZTVN10Qt3DRender6Render5Quick17Quick3DRenderPassE@Base 6.2.1
 _ZTVN10Qt3DRender6Render5Quick17Quick3DShaderDataE@Base 6.2.1
 _ZTVN10Qt3DRender6Render5Quick18Quick3DLayerFilterE@Base 6.2.1
 _ZTVN10Qt3DRender6Render5Quick20Quick3DMemoryBarrierE@Base 6.2.1
 _ZTVN10Qt3DRender6Render5Quick22Quick3DScreenRayCasterE@Base 6.2.1
 _ZTVN10Qt3DRender6Render5Quick22Quick3DShaderDataArrayE@Base 6.2.1
 _ZTVN10Qt3DRender6Render5Quick22Quick3DTechniqueFilterE@Base 6.2.1
 _ZTVN10Qt3DRender6Render5Quick23Quick3DRenderPassFilterE@Base 6.2.1
 _ZTVN10Qt3DRender6Render5Quick23Quick3DTextureExtensionE@Base 6.2.1
 _ZTVN10Qt3DRender6Render5Quick25Quick3DRenderTargetOutputE@Base 6.2.1
 (optional=templinst)_ZZN9QMetaType21registerConverterImplI5QListIPN10Qt3DRender11QShaderDataEE9QIterableI13QMetaSequenceEEEbSt8functionIFbPKvPvEES_S_E10unregister@Base 6.2.1
 (optional=templinst)_ZZN9QMetaType23registerMutableViewImplI5QListIPN10Qt3DRender11QShaderDataEE9QIterableI13QMetaSequenceEEEbSt8functionIFbPvSA_EES_S_E10unregister@Base 6.2.1
