# SymbolsHelper-Confirmed: 6.2.4 amd64
libQt63DRender.so.6 libqt63drender6 #MINVER#
* Build-Depends-Package: qt6-3d-dev
 _ZGVZN9QMetaType21registerConverterImplI5QListIN10Qt3DRender11QSortPolicy8SortTypeEE9QIterableI13QMetaSequenceEEEbSt8functionIFbPKvPvEES_S_E10unregister@Base 6.2.1
 _ZGVZN9QMetaType21registerConverterImplI5QListIN10Qt3DRender13QRayCasterHitEE9QIterableI13QMetaSequenceEEEbSt8functionIFbPKvPvEES_S_E10unregister@Base 6.2.1
 _ZGVZN9QMetaType21registerConverterImplI5QListIPN10Qt3DRender11QShaderDataEE9QIterableI13QMetaSequenceEEEbSt8functionIFbPKvPvEES_S_E10unregister@Base 6.2.1
 _ZGVZN9QMetaType21registerConverterImplI5QListIdE9QIterableI13QMetaSequenceEEEbSt8functionIFbPKvPvEES_S_E10unregister@Base 6.2.1
 _ZGVZN9QMetaType21registerConverterImplI5QListIiE9QIterableI13QMetaSequenceEEEbSt8functionIFbPKvPvEES_S_E10unregister@Base 6.2.1
 _ZGVZN9QMetaType23registerMutableViewImplI5QListIN10Qt3DRender11QSortPolicy8SortTypeEE9QIterableI13QMetaSequenceEEEbSt8functionIFbPvSA_EES_S_E10unregister@Base 6.2.1
 _ZGVZN9QMetaType23registerMutableViewImplI5QListIN10Qt3DRender13QRayCasterHitEE9QIterableI13QMetaSequenceEEEbSt8functionIFbPvS9_EES_S_E10unregister@Base 6.2.1
 _ZGVZN9QMetaType23registerMutableViewImplI5QListIPN10Qt3DRender11QShaderDataEE9QIterableI13QMetaSequenceEEEbSt8functionIFbPvSA_EES_S_E10unregister@Base 6.2.1
 _ZGVZN9QMetaType23registerMutableViewImplI5QListIdE9QIterableI13QMetaSequenceEEEbSt8functionIFbPvS7_EES_S_E10unregister@Base 6.2.1
 _ZGVZN9QMetaType23registerMutableViewImplI5QListIiE9QIterableI13QMetaSequenceEEEbSt8functionIFbPvS7_EES_S_E10unregister@Base 6.2.1
 _ZN10Qt3DRender10QAlphaTest11qt_metacallEN11QMetaObject4CallEiPPv@Base 6.2.1
 _ZN10Qt3DRender10QAlphaTest11qt_metacastEPKc@Base 6.2.1
 _ZN10Qt3DRender10QAlphaTest16setAlphaFunctionENS0_13AlphaFunctionE@Base 6.2.1
 _ZN10Qt3DRender10QAlphaTest16staticMetaObjectE@Base 6.2.1
 _ZN10Qt3DRender10QAlphaTest17setReferenceValueEf@Base 6.2.1
 _ZN10Qt3DRender10QAlphaTest20alphaFunctionChangedENS0_13AlphaFunctionE@Base 6.2.1
 _ZN10Qt3DRender10QAlphaTest21referenceValueChangedEf@Base 6.2.1
 _ZN10Qt3DRender10QAlphaTestC1EPN8Qt3DCore5QNodeE@Base 6.2.1
 _ZN10Qt3DRender10QAlphaTestC2EPN8Qt3DCore5QNodeE@Base 6.2.1
 _ZN10Qt3DRender10QAlphaTestD0Ev@Base 6.2.1
 _ZN10Qt3DRender10QAlphaTestD1Ev@Base 6.2.1
 _ZN10Qt3DRender10QAlphaTestD2Ev@Base 6.2.1
 _ZN10Qt3DRender10QClipPlane11qt_metacallEN11QMetaObject4CallEiPPv@Base 6.2.1
 _ZN10Qt3DRender10QClipPlane11qt_metacastEPKc@Base 6.2.1
 _ZN10Qt3DRender10QClipPlane11setDistanceEf@Base 6.2.1
 _ZN10Qt3DRender10QClipPlane13normalChangedE9QVector3D@Base 6.2.1
 _ZN10Qt3DRender10QClipPlane13setPlaneIndexEi@Base 6.2.1
 _ZN10Qt3DRender10QClipPlane15distanceChangedEf@Base 6.2.1
 _ZN10Qt3DRender10QClipPlane16staticMetaObjectE@Base 6.2.1
 _ZN10Qt3DRender10QClipPlane17planeIndexChangedEi@Base 6.2.1
 _ZN10Qt3DRender10QClipPlane9setNormalE9QVector3D@Base 6.2.1
 _ZN10Qt3DRender10QClipPlaneC1EPN8Qt3DCore5QNodeE@Base 6.2.1
 _ZN10Qt3DRender10QClipPlaneC2EPN8Qt3DCore5QNodeE@Base 6.2.1
 _ZN10Qt3DRender10QClipPlaneD0Ev@Base 6.2.1
 _ZN10Qt3DRender10QClipPlaneD1Ev@Base 6.2.1
 _ZN10Qt3DRender10QClipPlaneD2Ev@Base 6.2.1
 _ZN10Qt3DRender10QColorMask11qt_metacallEN11QMetaObject4CallEiPPv@Base 6.2.1
 _ZN10Qt3DRender10QColorMask11qt_metacastEPKc@Base 6.2.1
 _ZN10Qt3DRender10QColorMask12setRedMaskedEb@Base 6.2.1
 _ZN10Qt3DRender10QColorMask13setBlueMaskedEb@Base 6.2.1
 _ZN10Qt3DRender10QColorMask14setAlphaMaskedEb@Base 6.2.1
 _ZN10Qt3DRender10QColorMask14setGreenMaskedEb@Base 6.2.1
 _ZN10Qt3DRender10QColorMask16redMaskedChangedEb@Base 6.2.1
 _ZN10Qt3DRender10QColorMask16staticMetaObjectE@Base 6.2.1
 _ZN10Qt3DRender10QColorMask17blueMaskedChangedEb@Base 6.2.1
 _ZN10Qt3DRender10QColorMask18alphaMaskedChangedEb@Base 6.2.1
 _ZN10Qt3DRender10QColorMask18greenMaskedChangedEb@Base 6.2.1
 _ZN10Qt3DRender10QColorMaskC1EPN8Qt3DCore5QNodeE@Base 6.2.1
 _ZN10Qt3DRender10QColorMaskC2EPN8Qt3DCore5QNodeE@Base 6.2.1
 _ZN10Qt3DRender10QColorMaskD0Ev@Base 6.2.1
 _ZN10Qt3DRender10QColorMaskD1Ev@Base 6.2.1
 _ZN10Qt3DRender10QColorMaskD2Ev@Base 6.2.1
 _ZN10Qt3DRender10QDepthTest11qt_metacallEN11QMetaObject4CallEiPPv@Base 6.2.1
 _ZN10Qt3DRender10QDepthTest11qt_metacastEPKc@Base 6.2.1
 _ZN10Qt3DRender10QDepthTest16setDepthFunctionENS0_13DepthFunctionE@Base 6.2.1
 _ZN10Qt3DRender10QDepthTest16staticMetaObjectE@Base 6.2.1
 _ZN10Qt3DRender10QDepthTest20depthFunctionChangedENS0_13DepthFunctionE@Base 6.2.1
 _ZN10Qt3DRender10QDepthTestC1EPN8Qt3DCore5QNodeE@Base 6.2.1
 _ZN10Qt3DRender10QDepthTestC2EPN8Qt3DCore5QNodeE@Base 6.2.1
 _ZN10Qt3DRender10QDepthTestD0Ev@Base 6.2.1
 _ZN10Qt3DRender10QDepthTestD1Ev@Base 6.2.1
 _ZN10Qt3DRender10QDepthTestD2Ev@Base 6.2.1
 _ZN10Qt3DRender10QDithering11qt_metacallEN11QMetaObject4CallEiPPv@Base 6.2.1
 _ZN10Qt3DRender10QDithering11qt_metacastEPKc@Base 6.2.1
 _ZN10Qt3DRender10QDithering16staticMetaObjectE@Base 6.2.1
 _ZN10Qt3DRender10QDitheringC1EPN8Qt3DCore5QNodeE@Base 6.2.1
 _ZN10Qt3DRender10QDitheringC2EPN8Qt3DCore5QNodeE@Base 6.2.1
 _ZN10Qt3DRender10QDitheringD0Ev@Base 6.2.1
 _ZN10Qt3DRender10QDitheringD1Ev@Base 6.2.1
 _ZN10Qt3DRender10QDitheringD2Ev@Base 6.2.1
 _ZN10Qt3DRender10QFilterKey11nameChangedERK7QString@Base 6.2.1
 _ZN10Qt3DRender10QFilterKey11qt_metacallEN11QMetaObject4CallEiPPv@Base 6.2.1
 _ZN10Qt3DRender10QFilterKey11qt_metacastEPKc@Base 6.2.1
 _ZN10Qt3DRender10QFilterKey12valueChangedERK8QVariant@Base 6.2.1
 _ZN10Qt3DRender10QFilterKey16staticMetaObjectE@Base 6.2.1
 _ZN10Qt3DRender10QFilterKey7setNameERK7QString@Base 6.2.1
 _ZN10Qt3DRender10QFilterKey8setValueERK8QVariant@Base 6.2.1
 _ZN10Qt3DRender10QFilterKeyC1EPN8Qt3DCore5QNodeE@Base 6.2.1
 _ZN10Qt3DRender10QFilterKeyC2EPN8Qt3DCore5QNodeE@Base 6.2.1
 _ZN10Qt3DRender10QFilterKeyD0Ev@Base 6.2.1
 _ZN10Qt3DRender10QFilterKeyD1Ev@Base 6.2.1
 _ZN10Qt3DRender10QFilterKeyD2Ev@Base 6.2.1
 _ZN10Qt3DRender10QFrontFace11qt_metacallEN11QMetaObject4CallEiPPv@Base 6.2.1
 _ZN10Qt3DRender10QFrontFace11qt_metacastEPKc@Base 6.2.1
 _ZN10Qt3DRender10QFrontFace12setDirectionENS0_16WindingDirectionE@Base 6.2.1
 _ZN10Qt3DRender10QFrontFace16directionChangedENS0_16WindingDirectionE@Base 6.2.1
 _ZN10Qt3DRender10QFrontFace16staticMetaObjectE@Base 6.2.1
 _ZN10Qt3DRender10QFrontFaceC1EPN8Qt3DCore5QNodeE@Base 6.2.1
 _ZN10Qt3DRender10QFrontFaceC2EPN8Qt3DCore5QNodeE@Base 6.2.1
 _ZN10Qt3DRender10QFrontFaceD0Ev@Base 6.2.1
 _ZN10Qt3DRender10QFrontFaceD1Ev@Base 6.2.1
 _ZN10Qt3DRender10QFrontFaceD2Ev@Base 6.2.1
 _ZN10Qt3DRender10QLineWidth11qt_metacallEN11QMetaObject4CallEiPPv@Base 6.2.1
 _ZN10Qt3DRender10QLineWidth11qt_metacastEPKc@Base 6.2.1
 _ZN10Qt3DRender10QLineWidth12valueChangedEf@Base 6.2.1
 _ZN10Qt3DRender10QLineWidth13smoothChangedEb@Base 6.2.1
 _ZN10Qt3DRender10QLineWidth16staticMetaObjectE@Base 6.2.1
 _ZN10Qt3DRender10QLineWidth8setValueEf@Base 6.2.1
 _ZN10Qt3DRender10QLineWidth9setSmoothEb@Base 6.2.1
 _ZN10Qt3DRender10QLineWidthC1EPN8Qt3DCore5QNodeE@Base 6.2.1
 _ZN10Qt3DRender10QLineWidthC2EPN8Qt3DCore5QNodeE@Base 6.2.1
 _ZN10Qt3DRender10QLineWidthD0Ev@Base 6.2.1
 _ZN10Qt3DRender10QLineWidthD1Ev@Base 6.2.1
 _ZN10Qt3DRender10QLineWidthD2Ev@Base 6.2.1
 _ZN10Qt3DRender10QNoPicking11qt_metacallEN11QMetaObject4CallEiPPv@Base 6.2.1
 _ZN10Qt3DRender10QNoPicking11qt_metacastEPKc@Base 6.2.1
 _ZN10Qt3DRender10QNoPicking16staticMetaObjectE@Base 6.2.1
 _ZN10Qt3DRender10QNoPickingC1EPN8Qt3DCore5QNodeE@Base 6.2.1
 _ZN10Qt3DRender10QNoPickingC2EPN8Qt3DCore5QNodeE@Base 6.2.1
 _ZN10Qt3DRender10QNoPickingD0Ev@Base 6.2.1
 _ZN10Qt3DRender10QNoPickingD1Ev@Base 6.2.1
 _ZN10Qt3DRender10QNoPickingD2Ev@Base 6.2.1
 _ZN10Qt3DRender10QParameter11nameChangedERK7QString@Base 6.2.1
 _ZN10Qt3DRender10QParameter11qt_metacallEN11QMetaObject4CallEiPPv@Base 6.2.1
 _ZN10Qt3DRender10QParameter11qt_metacastEPKc@Base 6.2.1
 _ZN10Qt3DRender10QParameter12valueChangedERK8QVariant@Base 6.2.1
 _ZN10Qt3DRender10QParameter16staticMetaObjectE@Base 6.2.1
 _ZN10Qt3DRender10QParameter7setNameERK7QString@Base 6.2.1
 _ZN10Qt3DRender10QParameter8setValueERK8QVariant@Base 6.2.1
 _ZN10Qt3DRender10QParameterC1EPN8Qt3DCore5QNodeE@Base 6.2.1
 _ZN10Qt3DRender10QParameterC1ERK7QStringPNS_16QAbstractTextureEPN8Qt3DCore5QNodeE@Base 6.2.1
 _ZN10Qt3DRender10QParameterC1ERK7QStringRK8QVariantPN8Qt3DCore5QNodeE@Base 6.2.1
 _ZN10Qt3DRender10QParameterC1ERNS_17QParameterPrivateEPN8Qt3DCore5QNodeE@Base 6.2.1
 _ZN10Qt3DRender10QParameterC2EPN8Qt3DCore5QNodeE@Base 6.2.1
 _ZN10Qt3DRender10QParameterC2ERK7QStringPNS_16QAbstractTextureEPN8Qt3DCore5QNodeE@Base 6.2.1
 _ZN10Qt3DRender10QParameterC2ERK7QStringRK8QVariantPN8Qt3DCore5QNodeE@Base 6.2.1
 _ZN10Qt3DRender10QParameterC2ERNS_17QParameterPrivateEPN8Qt3DCore5QNodeE@Base 6.2.1
 _ZN10Qt3DRender10QParameterD0Ev@Base 6.2.1
 _ZN10Qt3DRender10QParameterD1Ev@Base 6.2.1
 _ZN10Qt3DRender10QParameterD2Ev@Base 6.2.1
 _ZN10Qt3DRender10QPickEvent11qt_metacallEN11QMetaObject4CallEiPPv@Base 6.2.1
 _ZN10Qt3DRender10QPickEvent11qt_metacastEPKc@Base 6.2.1
 _ZN10Qt3DRender10QPickEvent11setAcceptedEb@Base 6.2.1
 _ZN10Qt3DRender10QPickEvent15acceptedChangedEb@Base 6.2.1
 _ZN10Qt3DRender10QPickEvent16staticMetaObjectE@Base 6.2.1
 _ZN10Qt3DRender10QPickEventC1ER14QObjectPrivateP7QObject@Base 6.2.1
 _ZN10Qt3DRender10QPickEventC1ERK7QPointFRK9QVector3DS6_f@Base 6.2.1
 _ZN10Qt3DRender10QPickEventC1ERK7QPointFRK9QVector3DS6_fNS0_7ButtonsEii@Base 6.2.1
 _ZN10Qt3DRender10QPickEventC1Ev@Base 6.2.1
 _ZN10Qt3DRender10QPickEventC2ER14QObjectPrivateP7QObject@Base 6.2.1
 _ZN10Qt3DRender10QPickEventC2ERK7QPointFRK9QVector3DS6_f@Base 6.2.1
 _ZN10Qt3DRender10QPickEventC2ERK7QPointFRK9QVector3DS6_fNS0_7ButtonsEii@Base 6.2.1
 _ZN10Qt3DRender10QPickEventC2Ev@Base 6.2.1
 _ZN10Qt3DRender10QPickEventD0Ev@Base 6.2.1
 _ZN10Qt3DRender10QPickEventD1Ev@Base 6.2.1
 _ZN10Qt3DRender10QPickEventD2Ev@Base 6.2.1
 _ZN10Qt3DRender10QPointSize11qt_metacallEN11QMetaObject4CallEiPPv@Base 6.2.1
 _ZN10Qt3DRender10QPointSize11qt_metacastEPKc@Base 6.2.1
 _ZN10Qt3DRender10QPointSize11setSizeModeENS0_8SizeModeE@Base 6.2.1
 _ZN10Qt3DRender10QPointSize12valueChangedEf@Base 6.2.1
 _ZN10Qt3DRender10QPointSize15sizeModeChangedENS0_8SizeModeE@Base 6.2.1
 _ZN10Qt3DRender10QPointSize16staticMetaObjectE@Base 6.2.1
 _ZN10Qt3DRender10QPointSize8setValueEf@Base 6.2.1
 _ZN10Qt3DRender10QPointSizeC1EPN8Qt3DCore5QNodeE@Base 6.2.1
 _ZN10Qt3DRender10QPointSizeC2EPN8Qt3DCore5QNodeE@Base 6.2.1
 _ZN10Qt3DRender10QPointSizeD0Ev@Base 6.2.1
 _ZN10Qt3DRender10QPointSizeD1Ev@Base 6.2.1
 _ZN10Qt3DRender10QPointSizeD2Ev@Base 6.2.1
 _ZN10Qt3DRender10QRayCaster11qt_metacallEN11QMetaObject4CallEiPPv@Base 6.2.1
 _ZN10Qt3DRender10QRayCaster11qt_metacastEPKc@Base 6.2.1
 _ZN10Qt3DRender10QRayCaster12setDirectionERK9QVector3D@Base 6.2.1
 _ZN10Qt3DRender10QRayCaster13lengthChangedEf@Base 6.2.1
 _ZN10Qt3DRender10QRayCaster13originChangedERK9QVector3D@Base 6.2.1
 _ZN10Qt3DRender10QRayCaster16directionChangedERK9QVector3D@Base 6.2.1
 _ZN10Qt3DRender10QRayCaster16staticMetaObjectE@Base 6.2.1
 _ZN10Qt3DRender10QRayCaster4pickERK9QVector3DS3_f@Base 6.2.1
 _ZN10Qt3DRender10QRayCaster7triggerERK9QVector3DS3_f@Base 6.2.1
 _ZN10Qt3DRender10QRayCaster7triggerEv@Base 6.2.1
 _ZN10Qt3DRender10QRayCaster9setLengthEf@Base 6.2.1
 _ZN10Qt3DRender10QRayCaster9setOriginERK9QVector3D@Base 6.2.1
 _ZN10Qt3DRender10QRayCasterC1EPN8Qt3DCore5QNodeE@Base 6.2.1
 _ZN10Qt3DRender10QRayCasterC1ERNS_25QAbstractRayCasterPrivateEPN8Qt3DCore5QNodeE@Base 6.2.1
 _ZN10Qt3DRender10QRayCasterC2EPN8Qt3DCore5QNodeE@Base 6.2.1
 _ZN10Qt3DRender10QRayCasterC2ERNS_25QAbstractRayCasterPrivateEPN8Qt3DCore5QNodeE@Base 6.2.1
 _ZN10Qt3DRender10QRayCasterD0Ev@Base 6.2.1
 _ZN10Qt3DRender10QRayCasterD1Ev@Base 6.2.1
 _ZN10Qt3DRender10QRayCasterD2Ev@Base 6.2.1
 _ZN10Qt3DRender10QSpotLight11qt_metacallEN11QMetaObject4CallEiPPv@Base 6.2.1
 _ZN10Qt3DRender10QSpotLight11qt_metacastEPKc@Base 6.2.1
 _ZN10Qt3DRender10QSpotLight14setCutOffAngleEf@Base 6.2.1
 _ZN10Qt3DRender10QSpotLight16staticMetaObjectE@Base 6.2.1
 _ZN10Qt3DRender10QSpotLight17setLocalDirectionERK9QVector3D@Base 6.2.1
 _ZN10Qt3DRender10QSpotLight18cutOffAngleChangedEf@Base 6.2.1
 _ZN10Qt3DRender10QSpotLight20setLinearAttenuationEf@Base 6.2.1
 _ZN10Qt3DRender10QSpotLight21localDirectionChangedERK9QVector3D@Base 6.2.1
 _ZN10Qt3DRender10QSpotLight22setConstantAttenuationEf@Base 6.2.1
 _ZN10Qt3DRender10QSpotLight23setQuadraticAttenuationEf@Base 6.2.1
 _ZN10Qt3DRender10QSpotLight24linearAttenuationChangedEf@Base 6.2.1
 _ZN10Qt3DRender10QSpotLight26constantAttenuationChangedEf@Base 6.2.1
 _ZN10Qt3DRender10QSpotLight27quadraticAttenuationChangedEf@Base 6.2.1
 _ZN10Qt3DRender10QSpotLightC1EPN8Qt3DCore5QNodeE@Base 6.2.1
 _ZN10Qt3DRender10QSpotLightC1ERNS_17QSpotLightPrivateEPN8Qt3DCore5QNodeE@Base 6.2.1
 _ZN10Qt3DRender10QSpotLightC2EPN8Qt3DCore5QNodeE@Base 6.2.1
 _ZN10Qt3DRender10QSpotLightC2ERNS_17QSpotLightPrivateEPN8Qt3DCore5QNodeE@Base 6.2.1
 _ZN10Qt3DRender10QSpotLightD0Ev@Base 6.2.1
 _ZN10Qt3DRender10QSpotLightD1Ev@Base 6.2.1
 _ZN10Qt3DRender10QSpotLightD2Ev@Base 6.2.1
 _ZN10Qt3DRender10QTechnique11qt_metacallEN11QMetaObject4CallEiPPv@Base 6.2.1
 _ZN10Qt3DRender10QTechnique11qt_metacastEPKc@Base 6.2.1
 _ZN10Qt3DRender10QTechnique12addFilterKeyEPNS_10QFilterKeyE@Base 6.2.1
 _ZN10Qt3DRender10QTechnique12addParameterEPNS_10QParameterE@Base 6.2.1
 _ZN10Qt3DRender10QTechnique13addRenderPassEPNS_11QRenderPassE@Base 6.2.1
 _ZN10Qt3DRender10QTechnique15removeFilterKeyEPNS_10QFilterKeyE@Base 6.2.1
 _ZN10Qt3DRender10QTechnique15removeParameterEPNS_10QParameterE@Base 6.2.1
 _ZN10Qt3DRender10QTechnique16removeRenderPassEPNS_11QRenderPassE@Base 6.2.1
 _ZN10Qt3DRender10QTechnique16staticMetaObjectE@Base 6.2.1
 _ZN10Qt3DRender10QTechnique17graphicsApiFilterEv@Base 6.2.1
 _ZN10Qt3DRender10QTechniqueC1EPN8Qt3DCore5QNodeE@Base 6.2.1
 _ZN10Qt3DRender10QTechniqueC1ERNS_17QTechniquePrivateEPN8Qt3DCore5QNodeE@Base 6.2.1
 _ZN10Qt3DRender10QTechniqueC2EPN8Qt3DCore5QNodeE@Base 6.2.1
 _ZN10Qt3DRender10QTechniqueC2ERNS_17QTechniquePrivateEPN8Qt3DCore5QNodeE@Base 6.2.1
 _ZN10Qt3DRender10QTechniqueD0Ev@Base 6.2.1
 _ZN10Qt3DRender10QTechniqueD1Ev@Base 6.2.1
 _ZN10Qt3DRender10QTechniqueD2Ev@Base 6.2.1
 _ZN10Qt3DRender10QTexture1D11qt_metacallEN11QMetaObject4CallEiPPv@Base 6.2.1
 _ZN10Qt3DRender10QTexture1D11qt_metacastEPKc@Base 6.2.1
 _ZN10Qt3DRender10QTexture1D16staticMetaObjectE@Base 6.2.1
 _ZN10Qt3DRender10QTexture1DC1EPN8Qt3DCore5QNodeE@Base 6.2.1
 _ZN10Qt3DRender10QTexture1DC2EPN8Qt3DCore5QNodeE@Base 6.2.1
 _ZN10Qt3DRender10QTexture1DD0Ev@Base 6.2.1
 _ZN10Qt3DRender10QTexture1DD1Ev@Base 6.2.1
 _ZN10Qt3DRender10QTexture1DD2Ev@Base 6.2.1
 _ZN10Qt3DRender10QTexture2D11qt_metacallEN11QMetaObject4CallEiPPv@Base 6.2.1
 _ZN10Qt3DRender10QTexture2D11qt_metacastEPKc@Base 6.2.1
 _ZN10Qt3DRender10QTexture2D16staticMetaObjectE@Base 6.2.1
 _ZN10Qt3DRender10QTexture2DC1EPN8Qt3DCore5QNodeE@Base 6.2.1
 _ZN10Qt3DRender10QTexture2DC2EPN8Qt3DCore5QNodeE@Base 6.2.1
 _ZN10Qt3DRender10QTexture2DD0Ev@Base 6.2.1
 _ZN10Qt3DRender10QTexture2DD1Ev@Base 6.2.1
 _ZN10Qt3DRender10QTexture2DD2Ev@Base 6.2.1
 _ZN10Qt3DRender10QTexture3D11qt_metacallEN11QMetaObject4CallEiPPv@Base 6.2.1
 _ZN10Qt3DRender10QTexture3D11qt_metacastEPKc@Base 6.2.1
 _ZN10Qt3DRender10QTexture3D16staticMetaObjectE@Base 6.2.1
 _ZN10Qt3DRender10QTexture3DC1EPN8Qt3DCore5QNodeE@Base 6.2.1
 _ZN10Qt3DRender10QTexture3DC2EPN8Qt3DCore5QNodeE@Base 6.2.1
 _ZN10Qt3DRender10QTexture3DD0Ev@Base 6.2.1
 _ZN10Qt3DRender10QTexture3DD1Ev@Base 6.2.1
 _ZN10Qt3DRender10QTexture3DD2Ev@Base 6.2.1
 _ZN10Qt3DRender10QWaitFence10setTimeoutEy@Base 6.2.1
 _ZN10Qt3DRender10QWaitFence11qt_metacallEN11QMetaObject4CallEiPPv@Base 6.2.1
 _ZN10Qt3DRender10QWaitFence11qt_metacastEPKc@Base 6.2.1
 _ZN10Qt3DRender10QWaitFence12setWaitOnCPUEb@Base 6.2.1
 _ZN10Qt3DRender10QWaitFence13handleChangedE8QVariant@Base 6.2.1
 _ZN10Qt3DRender10QWaitFence13setHandleTypeENS0_10HandleTypeE@Base 6.2.1
 _ZN10Qt3DRender10QWaitFence14timeoutChangedEy@Base 6.2.1
 _ZN10Qt3DRender10QWaitFence16staticMetaObjectE@Base 6.2.1
 _ZN10Qt3DRender10QWaitFence16waitOnCPUChangedEb@Base 6.2.1
 _ZN10Qt3DRender10QWaitFence17handleTypeChangedENS0_10HandleTypeE@Base 6.2.1
 _ZN10Qt3DRender10QWaitFence9setHandleE8QVariant@Base 6.2.1
 _ZN10Qt3DRender10QWaitFenceC1EPN8Qt3DCore5QNodeE@Base 6.2.1
 _ZN10Qt3DRender10QWaitFenceC1ERNS_17QWaitFencePrivateEPN8Qt3DCore5QNodeE@Base 6.2.1
 _ZN10Qt3DRender10QWaitFenceC2EPN8Qt3DCore5QNodeE@Base 6.2.1
 _ZN10Qt3DRender10QWaitFenceC2ERNS_17QWaitFencePrivateEPN8Qt3DCore5QNodeE@Base 6.2.1
 _ZN10Qt3DRender10QWaitFenceD0Ev@Base 6.2.1
 _ZN10Qt3DRender10QWaitFenceD1Ev@Base 6.2.1
 _ZN10Qt3DRender10QWaitFenceD2Ev@Base 6.2.1
 _ZN10Qt3DRender10RayCasting14BoundingSphereC1Ev@Base 6.2.1
 _ZN10Qt3DRender10RayCasting14BoundingSphereC2Ev@Base 6.2.1
 _ZN10Qt3DRender10RayCasting14BoundingSphereD0Ev@Base 6.2.1
 _ZN10Qt3DRender10RayCasting14BoundingSphereD1Ev@Base 6.2.1
 _ZN10Qt3DRender10RayCasting14BoundingSphereD2Ev@Base 6.2.1
 _ZN10Qt3DRender10RayCasting15QBoundingVolumeC1Ev@Base 6.2.1
 _ZN10Qt3DRender10RayCasting15QBoundingVolumeC2Ev@Base 6.2.1
 _ZN10Qt3DRender10RayCasting15QBoundingVolumeD0Ev@Base 6.2.1
 _ZN10Qt3DRender10RayCasting15QBoundingVolumeD1Ev@Base 6.2.1
 _ZN10Qt3DRender10RayCasting15QBoundingVolumeD2Ev@Base 6.2.1
 _ZN10Qt3DRender10RayCasting18QRayCastingService11fetchResultERKi@Base 6.2.1
 _ZN10Qt3DRender10RayCasting18QRayCastingService5queryERKNS0_6QRay3DENS0_30QAbstractCollisionQueryService9QueryModeEPNS0_23QBoundingVolumeProviderE@Base 6.2.1
 _ZN10Qt3DRender10RayCasting18QRayCastingService5queryERKNS0_6QRay3DEPKNS0_15QBoundingVolumeE@Base 6.2.1
 _ZN10Qt3DRender10RayCasting18QRayCastingServiceC1Ev@Base 6.2.1
 _ZN10Qt3DRender10RayCasting18QRayCastingServiceC2Ev@Base 6.2.1
 _ZN10Qt3DRender10RayCasting21QCollisionQueryResult6d_funcEv@Base 6.2.1
 _ZN10Qt3DRender10RayCasting21QCollisionQueryResultC1ERKS1_@Base 6.2.1
 _ZN10Qt3DRender10RayCasting21QCollisionQueryResultC1ERNS0_28QCollisionQueryResultPrivateE@Base 6.2.1
 _ZN10Qt3DRender10RayCasting21QCollisionQueryResultC1Ev@Base 6.2.1
 _ZN10Qt3DRender10RayCasting21QCollisionQueryResultC2ERKS1_@Base 6.2.1
 _ZN10Qt3DRender10RayCasting21QCollisionQueryResultC2ERNS0_28QCollisionQueryResultPrivateE@Base 6.2.1
 _ZN10Qt3DRender10RayCasting21QCollisionQueryResultC2Ev@Base 6.2.1
 _ZN10Qt3DRender10RayCasting21QCollisionQueryResultD1Ev@Base 6.2.1
 _ZN10Qt3DRender10RayCasting21QCollisionQueryResultD2Ev@Base 6.2.1
 _ZN10Qt3DRender10RayCasting21QCollisionQueryResultaSERKS1_@Base 6.2.1
 _ZN10Qt3DRender10RayCasting23QBoundingVolumeProviderD0Ev@Base 6.2.1
 _ZN10Qt3DRender10RayCasting23QBoundingVolumeProviderD1Ev@Base 6.2.1
 _ZN10Qt3DRender10RayCasting23QBoundingVolumeProviderD2Ev@Base 6.2.1
 _ZN10Qt3DRender10RayCasting30QAbstractCollisionQueryService11qt_metacallEN11QMetaObject4CallEiPPv@Base 6.2.1
 _ZN10Qt3DRender10RayCasting30QAbstractCollisionQueryService11qt_metacastEPKc@Base 6.2.1
 (arch=!amd64)_ZN10Qt3DRender10RayCasting30QAbstractCollisionQueryService12addEntityHitERNS0_21QCollisionQueryResultEN8Qt3DCore7QNodeIdERK9QVector3DfS8_@Base 6.2.2
 (arch=amd64)_ZN10Qt3DRender10RayCasting30QAbstractCollisionQueryService12addEntityHitERNS0_21QCollisionQueryResultEN8Qt3DCore7QNodeIdERKNS4_12Vector3D_SSEEfS8_@Base 6.2.2
 _ZN10Qt3DRender10RayCasting30QAbstractCollisionQueryService15setResultHandleERNS0_21QCollisionQueryResultERKi@Base 6.2.1
 _ZN10Qt3DRender10RayCasting30QAbstractCollisionQueryService16staticMetaObjectE@Base 6.2.1
 _ZN10Qt3DRender10RayCasting30QAbstractCollisionQueryServiceC1ERK7QString@Base 6.2.1
 _ZN10Qt3DRender10RayCasting30QAbstractCollisionQueryServiceC1ERNS0_37QAbstractCollisionQueryServicePrivateE@Base 6.2.1
 _ZN10Qt3DRender10RayCasting30QAbstractCollisionQueryServiceC2ERK7QString@Base 6.2.1
 _ZN10Qt3DRender10RayCasting30QAbstractCollisionQueryServiceC2ERNS0_37QAbstractCollisionQueryServicePrivateE@Base 6.2.1
 _ZN10Qt3DRender10RayCasting6QRay3D11setDistanceEf@Base 6.2.1
 (arch=!amd64)_ZN10Qt3DRender10RayCasting6QRay3D12setDirectionERK9QVector3D@Base 6.2.2
 (arch=amd64)_ZN10Qt3DRender10RayCasting6QRay3D12setDirectionERKN8Qt3DCore12Vector3D_SSEE@Base 6.2.2
 (arch=!amd64)_ZN10Qt3DRender10RayCasting6QRay3D9setOriginERK9QVector3D@Base 6.2.2
 (arch=amd64)_ZN10Qt3DRender10RayCasting6QRay3D9setOriginERKN8Qt3DCore12Vector3D_SSEE@Base 6.2.2
 (arch=!amd64)_ZN10Qt3DRender10RayCasting6QRay3D9transformERK10QMatrix4x4@Base 6.2.2
 (arch=amd64)_ZN10Qt3DRender10RayCasting6QRay3D9transformERKN8Qt3DCore13Matrix4x4_SSEE@Base 6.2.2
 (arch=!amd64)_ZN10Qt3DRender10RayCasting6QRay3DC1ERK9QVector3DS4_f@Base 6.2.2
 (arch=amd64)_ZN10Qt3DRender10RayCasting6QRay3DC1ERKN8Qt3DCore12Vector3D_SSEES5_f@Base 6.2.2
 _ZN10Qt3DRender10RayCasting6QRay3DC1Ev@Base 6.2.1
 (arch=!amd64)_ZN10Qt3DRender10RayCasting6QRay3DC2ERK9QVector3DS4_f@Base 6.2.2
 (arch=amd64)_ZN10Qt3DRender10RayCasting6QRay3DC2ERKN8Qt3DCore12Vector3D_SSEES5_f@Base 6.2.2
 _ZN10Qt3DRender10RayCasting6QRay3DC2Ev@Base 6.2.1
 _ZN10Qt3DRender10RayCasting6QRay3DD1Ev@Base 6.2.1
 _ZN10Qt3DRender10RayCasting6QRay3DD2Ev@Base 6.2.1
 _ZN10Qt3DRender10RayCastinglsE6QDebugRKNS0_6QRay3DE@Base 6.2.1
 _ZN10Qt3DRender10RayCastinglsER11QDataStreamRKNS0_6QRay3DE@Base 6.2.1
 _ZN10Qt3DRender10RayCastingrsER11QDataStreamRNS0_6QRay3DE@Base 6.2.1
 _ZN10Qt3DRender11QCameraLens10topChangedEf@Base 6.2.1
 _ZN10Qt3DRender11QCameraLens10viewEntityEN8Qt3DCore7QNodeIdES2_@Base 6.2.1
 _ZN10Qt3DRender11QCameraLens10viewSphereERK9QVector3Df@Base 6.2.1
 _ZN10Qt3DRender11QCameraLens11leftChangedEf@Base 6.2.1
 _ZN10Qt3DRender11QCameraLens11qt_metacallEN11QMetaObject4CallEiPPv@Base 6.2.1
 _ZN10Qt3DRender11QCameraLens11qt_metacastEPKc@Base 6.2.1
 _ZN10Qt3DRender11QCameraLens11setExposureEf@Base 6.2.1
 _ZN10Qt3DRender11QCameraLens11setFarPlaneEf@Base 6.2.1
 _ZN10Qt3DRender11QCameraLens12rightChangedEf@Base 6.2.1
 _ZN10Qt3DRender11QCameraLens12setNearPlaneEf@Base 6.2.1
 _ZN10Qt3DRender11QCameraLens13bottomChangedEf@Base 6.2.1
 _ZN10Qt3DRender11QCameraLens14setAspectRatioEf@Base 6.2.1
 _ZN10Qt3DRender11QCameraLens14setFieldOfViewEf@Base 6.2.1
 _ZN10Qt3DRender11QCameraLens15exposureChangedEf@Base 6.2.1
 _ZN10Qt3DRender11QCameraLens15farPlaneChangedEf@Base 6.2.1
 _ZN10Qt3DRender11QCameraLens16nearPlaneChangedEf@Base 6.2.1
 _ZN10Qt3DRender11QCameraLens16staticMetaObjectE@Base 6.2.1
 _ZN10Qt3DRender11QCameraLens17setProjectionTypeENS0_14ProjectionTypeE@Base 6.2.1
 _ZN10Qt3DRender11QCameraLens18aspectRatioChangedEf@Base 6.2.1
 _ZN10Qt3DRender11QCameraLens18fieldOfViewChangedEf@Base 6.2.1
 _ZN10Qt3DRender11QCameraLens19setProjectionMatrixERK10QMatrix4x4@Base 6.2.1
 _ZN10Qt3DRender11QCameraLens20setFrustumProjectionEffffff@Base 6.2.1
 _ZN10Qt3DRender11QCameraLens21projectionTypeChangedENS0_14ProjectionTypeE@Base 6.2.1
 _ZN10Qt3DRender11QCameraLens23projectionMatrixChangedERK10QMatrix4x4@Base 6.2.1
 _ZN10Qt3DRender11QCameraLens24setPerspectiveProjectionEffff@Base 6.2.1
 _ZN10Qt3DRender11QCameraLens25setOrthographicProjectionEffffff@Base 6.2.1
 _ZN10Qt3DRender11QCameraLens6setTopEf@Base 6.2.1
 _ZN10Qt3DRender11QCameraLens7setLeftEf@Base 6.2.1
 _ZN10Qt3DRender11QCameraLens7viewAllEN8Qt3DCore7QNodeIdE@Base 6.2.1
 _ZN10Qt3DRender11QCameraLens8setRightEf@Base 6.2.1
 _ZN10Qt3DRender11QCameraLens9setBottomEf@Base 6.2.1
 _ZN10Qt3DRender11QCameraLensC1EPN8Qt3DCore5QNodeE@Base 6.2.1
 _ZN10Qt3DRender11QCameraLensC1ERNS_18QCameraLensPrivateEPN8Qt3DCore5QNodeE@Base 6.2.1
 _ZN10Qt3DRender11QCameraLensC2EPN8Qt3DCore5QNodeE@Base 6.2.1
 _ZN10Qt3DRender11QCameraLensC2ERNS_18QCameraLensPrivateEPN8Qt3DCore5QNodeE@Base 6.2.1
 _ZN10Qt3DRender11QCameraLensD0Ev@Base 6.2.1
 _ZN10Qt3DRender11QCameraLensD1Ev@Base 6.2.1
 _ZN10Qt3DRender11QCameraLensD2Ev@Base 6.2.1
 _ZN10Qt3DRender11QDepthRange11qt_metacallEN11QMetaObject4CallEiPPv@Base 6.2.1
 _ZN10Qt3DRender11QDepthRange11qt_metacastEPKc@Base 6.2.1
 _ZN10Qt3DRender11QDepthRange11setFarValueEd@Base 6.2.1
 _ZN10Qt3DRender11QDepthRange12setNearValueEd@Base 6.2.1
 _ZN10Qt3DRender11QDepthRange15farValueChangedEd@Base 6.2.1
 _ZN10Qt3DRender11QDepthRange16nearValueChangedEd@Base 6.2.1
 _ZN10Qt3DRender11QDepthRange16staticMetaObjectE@Base 6.2.1
 _ZN10Qt3DRender11QDepthRangeC1EPN8Qt3DCore5QNodeE@Base 6.2.1
 _ZN10Qt3DRender11QDepthRangeC2EPN8Qt3DCore5QNodeE@Base 6.2.1
 _ZN10Qt3DRender11QDepthRangeD0Ev@Base 6.2.1
 _ZN10Qt3DRender11QDepthRangeD1Ev@Base 6.2.1
 _ZN10Qt3DRender11QDepthRangeD2Ev@Base 6.2.1
 _ZN10Qt3DRender11QPointLight11qt_metacallEN11QMetaObject4CallEiPPv@Base 6.2.1
 _ZN10Qt3DRender11QPointLight11qt_metacastEPKc@Base 6.2.1
 _ZN10Qt3DRender11QPointLight16staticMetaObjectE@Base 6.2.1
 _ZN10Qt3DRender11QPointLight20setLinearAttenuationEf@Base 6.2.1
 _ZN10Qt3DRender11QPointLight22setConstantAttenuationEf@Base 6.2.1
 _ZN10Qt3DRender11QPointLight23setQuadraticAttenuationEf@Base 6.2.1
 _ZN10Qt3DRender11QPointLight24linearAttenuationChangedEf@Base 6.2.1
 _ZN10Qt3DRender11QPointLight26constantAttenuationChangedEf@Base 6.2.1
 _ZN10Qt3DRender11QPointLight27quadraticAttenuationChangedEf@Base 6.2.1
 _ZN10Qt3DRender11QPointLightC1EPN8Qt3DCore5QNodeE@Base 6.2.1
 _ZN10Qt3DRender11QPointLightC1ERNS_18QPointLightPrivateEPN8Qt3DCore5QNodeE@Base 6.2.1
 _ZN10Qt3DRender11QPointLightC2EPN8Qt3DCore5QNodeE@Base 6.2.1
 _ZN10Qt3DRender11QPointLightC2ERNS_18QPointLightPrivateEPN8Qt3DCore5QNodeE@Base 6.2.1
 _ZN10Qt3DRender11QPointLightD0Ev@Base 6.2.1
 _ZN10Qt3DRender11QPointLightD1Ev@Base 6.2.1
 _ZN10Qt3DRender11QPointLightD2Ev@Base 6.2.1
 _ZN10Qt3DRender11QRasterMode11qt_metacallEN11QMetaObject4CallEiPPv@Base 6.2.1
 _ZN10Qt3DRender11QRasterMode11qt_metacastEPKc@Base 6.2.1
 _ZN10Qt3DRender11QRasterMode11setFaceModeENS0_8FaceModeE@Base 6.2.1
 _ZN10Qt3DRender11QRasterMode13setRasterModeENS0_10RasterModeE@Base 6.2.1
 _ZN10Qt3DRender11QRasterMode15faceModeChangedENS0_8FaceModeE@Base 6.2.1
 _ZN10Qt3DRender11QRasterMode16staticMetaObjectE@Base 6.2.1
 _ZN10Qt3DRender11QRasterMode17rasterModeChangedENS0_10RasterModeE@Base 6.2.1
 _ZN10Qt3DRender11QRasterModeC1EPN8Qt3DCore5QNodeE@Base 6.2.1
 _ZN10Qt3DRender11QRasterModeC2EPN8Qt3DCore5QNodeE@Base 6.2.1
 _ZN10Qt3DRender11QRasterModeD0Ev@Base 6.2.1
 _ZN10Qt3DRender11QRasterModeD1Ev@Base 6.2.1
 _ZN10Qt3DRender11QRasterModeD2Ev@Base 6.2.1
 _ZN10Qt3DRender11QRenderPass11qt_metacallEN11QMetaObject4CallEiPPv@Base 6.2.1
 _ZN10Qt3DRender11QRenderPass11qt_metacastEPKc@Base 6.2.1
 _ZN10Qt3DRender11QRenderPass12addFilterKeyEPNS_10QFilterKeyE@Base 6.2.1
 _ZN10Qt3DRender11QRenderPass12addParameterEPNS_10QParameterE@Base 6.2.1
 _ZN10Qt3DRender11QRenderPass14addRenderStateEPNS_12QRenderStateE@Base 6.2.1
 _ZN10Qt3DRender11QRenderPass15removeFilterKeyEPNS_10QFilterKeyE@Base 6.2.1
 _ZN10Qt3DRender11QRenderPass15removeParameterEPNS_10QParameterE@Base 6.2.1
 _ZN10Qt3DRender11QRenderPass16setShaderProgramEPNS_14QShaderProgramE@Base 6.2.1
 _ZN10Qt3DRender11QRenderPass16staticMetaObjectE@Base 6.2.1
 _ZN10Qt3DRender11QRenderPass17removeRenderStateEPNS_12QRenderStateE@Base 6.2.1
 _ZN10Qt3DRender11QRenderPass20shaderProgramChangedEPNS_14QShaderProgramE@Base 6.2.1
 _ZN10Qt3DRender11QRenderPassC1EPN8Qt3DCore5QNodeE@Base 6.2.1
 _ZN10Qt3DRender11QRenderPassC1ERNS_18QRenderPassPrivateEPN8Qt3DCore5QNodeE@Base 6.2.1
 _ZN10Qt3DRender11QRenderPassC2EPN8Qt3DCore5QNodeE@Base 6.2.1
 _ZN10Qt3DRender11QRenderPassC2ERNS_18QRenderPassPrivateEPN8Qt3DCore5QNodeE@Base 6.2.1
 _ZN10Qt3DRender11QRenderPassD0Ev@Base 6.2.1
 _ZN10Qt3DRender11QRenderPassD1Ev@Base 6.2.1
 _ZN10Qt3DRender11QRenderPassD2Ev@Base 6.2.1
 _ZN10Qt3DRender11QShaderData11qt_metacallEN11QMetaObject4CallEiPPv@Base 6.2.1
 _ZN10Qt3DRender11QShaderData11qt_metacastEPKc@Base 6.2.1
 _ZN10Qt3DRender11QShaderData16staticMetaObjectE@Base 6.2.1
 _ZN10Qt3DRender11QShaderData5eventEP6QEvent@Base 6.2.1
 _ZN10Qt3DRender11QShaderDataC1EPN8Qt3DCore5QNodeE@Base 6.2.1
 _ZN10Qt3DRender11QShaderDataC1ERNS_18QShaderDataPrivateEPN8Qt3DCore5QNodeE@Base 6.2.1
 _ZN10Qt3DRender11QShaderDataC2EPN8Qt3DCore5QNodeE@Base 6.2.1
 _ZN10Qt3DRender11QShaderDataC2ERNS_18QShaderDataPrivateEPN8Qt3DCore5QNodeE@Base 6.2.1
 _ZN10Qt3DRender11QShaderDataD0Ev@Base 6.2.1
 _ZN10Qt3DRender11QShaderDataD1Ev@Base 6.2.1
 _ZN10Qt3DRender11QShaderDataD2Ev@Base 6.2.1
 _ZN10Qt3DRender11QShaderNode10removePortERKNS_15QShaderNodePortE@Base 6.2.1
 _ZN10Qt3DRender11QShaderNode10removeRuleERKNS_13QShaderFormatE@Base 6.2.1
 _ZN10Qt3DRender11QShaderNode12setParameterERK7QStringRK8QVariant@Base 6.2.1
 _ZN10Qt3DRender11QShaderNode14clearParameterERK7QString@Base 6.2.1
 _ZN10Qt3DRender11QShaderNode4RuleC1ERK10QByteArrayRK5QListIS2_E@Base 6.2.1
 _ZN10Qt3DRender11QShaderNode4RuleC2ERK10QByteArrayRK5QListIS2_E@Base 6.2.1
 _ZN10Qt3DRender11QShaderNode7addPortERKNS_15QShaderNodePortE@Base 6.2.1
 _ZN10Qt3DRender11QShaderNode7addRuleERKNS_13QShaderFormatERKNS0_4RuleE@Base 6.2.1
 _ZN10Qt3DRender11QShaderNode7setUuidERK5QUuid@Base 6.2.1
 _ZN10Qt3DRender11QShaderNode9setLayersERK5QListI7QStringE@Base 6.2.1
 _ZN10Qt3DRender11QSortPolicy11qt_metacallEN11QMetaObject4CallEiPPv@Base 6.2.1
 _ZN10Qt3DRender11QSortPolicy11qt_metacastEPKc@Base 6.2.1
 _ZN10Qt3DRender11QSortPolicy12setSortTypesERK5QListINS0_8SortTypeEE@Base 6.2.1
 _ZN10Qt3DRender11QSortPolicy12setSortTypesERK5QListIiE@Base 6.2.1
 _ZN10Qt3DRender11QSortPolicy16sortTypesChangedERK5QListINS0_8SortTypeEE@Base 6.2.1
 _ZN10Qt3DRender11QSortPolicy16sortTypesChangedERK5QListIiE@Base 6.2.1
 _ZN10Qt3DRender11QSortPolicy16staticMetaObjectE@Base 6.2.1
 _ZN10Qt3DRender11QSortPolicyC1EPN8Qt3DCore5QNodeE@Base 6.2.1
 _ZN10Qt3DRender11QSortPolicyC1ERNS_18QSortPolicyPrivateEPN8Qt3DCore5QNodeE@Base 6.2.1
 _ZN10Qt3DRender11QSortPolicyC2EPN8Qt3DCore5QNodeE@Base 6.2.1
 _ZN10Qt3DRender11QSortPolicyC2ERNS_18QSortPolicyPrivateEPN8Qt3DCore5QNodeE@Base 6.2.1
 _ZN10Qt3DRender11QSortPolicyD0Ev@Base 6.2.1
 _ZN10Qt3DRender11QSortPolicyD1Ev@Base 6.2.1
 _ZN10Qt3DRender11QSortPolicyD2Ev@Base 6.2.1
 _ZN10Qt3DRender12QLayerFilter11qt_metacallEN11QMetaObject4CallEiPPv@Base 6.2.1
 _ZN10Qt3DRender12QLayerFilter11qt_metacastEPKc@Base 6.2.1
 _ZN10Qt3DRender12QLayerFilter11removeLayerEPNS_6QLayerE@Base 6.2.1
 _ZN10Qt3DRender12QLayerFilter13setFilterModeENS0_10FilterModeE@Base 6.2.1
 _ZN10Qt3DRender12QLayerFilter16staticMetaObjectE@Base 6.2.1
 _ZN10Qt3DRender12QLayerFilter17filterModeChangedENS0_10FilterModeE@Base 6.2.1
 _ZN10Qt3DRender12QLayerFilter8addLayerEPNS_6QLayerE@Base 6.2.1
 _ZN10Qt3DRender12QLayerFilterC1EPN8Qt3DCore5QNodeE@Base 6.2.1
 _ZN10Qt3DRender12QLayerFilterC1ERNS_19QLayerFilterPrivateEPN8Qt3DCore5QNodeE@Base 6.2.1
 _ZN10Qt3DRender12QLayerFilterC2EPN8Qt3DCore5QNodeE@Base 6.2.1
 _ZN10Qt3DRender12QLayerFilterC2ERNS_19QLayerFilterPrivateEPN8Qt3DCore5QNodeE@Base 6.2.1
 _ZN10Qt3DRender12QLayerFilterD0Ev@Base 6.2.1
 _ZN10Qt3DRender12QLayerFilterD1Ev@Base 6.2.1
 _ZN10Qt3DRender12QLayerFilterD2Ev@Base 6.2.1
 _ZN10Qt3DRender12QMeshPrivate13updateFunctorEv@Base 6.2.1
 _ZN10Qt3DRender12QMeshPrivate3getEPNS_5QMeshE@Base 6.2.1
 _ZN10Qt3DRender12QMeshPrivate8setSceneEPN8Qt3DCore6QSceneE@Base 6.2.1
 _ZN10Qt3DRender12QMeshPrivate9setStatusENS_5QMesh6StatusE@Base 6.2.1
 _ZN10Qt3DRender12QMeshPrivateC1Ev@Base 6.2.1
 _ZN10Qt3DRender12QMeshPrivateC2Ev@Base 6.2.1
 _ZN10Qt3DRender12QNoDepthMask11qt_metacallEN11QMetaObject4CallEiPPv@Base 6.2.1
 _ZN10Qt3DRender12QNoDepthMask11qt_metacastEPKc@Base 6.2.1
 _ZN10Qt3DRender12QNoDepthMask16staticMetaObjectE@Base 6.2.1
 _ZN10Qt3DRender12QNoDepthMaskC1EPN8Qt3DCore5QNodeE@Base 6.2.1
 _ZN10Qt3DRender12QNoDepthMaskC2EPN8Qt3DCore5QNodeE@Base 6.2.1
 _ZN10Qt3DRender12QNoDepthMaskD0Ev@Base 6.2.1
 _ZN10Qt3DRender12QNoDepthMaskD1Ev@Base 6.2.1
 _ZN10Qt3DRender12QNoDepthMaskD2Ev@Base 6.2.1
 _ZN10Qt3DRender12QRenderState11qt_metacallEN11QMetaObject4CallEiPPv@Base 6.2.1
 _ZN10Qt3DRender12QRenderState11qt_metacastEPKc@Base 6.2.1
 _ZN10Qt3DRender12QRenderState16staticMetaObjectE@Base 6.2.1
 _ZN10Qt3DRender12QRenderStateC1ERNS_19QRenderStatePrivateEPN8Qt3DCore5QNodeE@Base 6.2.1
 _ZN10Qt3DRender12QRenderStateC2ERNS_19QRenderStatePrivateEPN8Qt3DCore5QNodeE@Base 6.2.1
 _ZN10Qt3DRender12QRenderStateD0Ev@Base 6.2.1
 _ZN10Qt3DRender12QRenderStateD1Ev@Base 6.2.1
 _ZN10Qt3DRender12QRenderStateD2Ev@Base 6.2.1
 _ZN10Qt3DRender12QSceneLoader11qt_metacallEN11QMetaObject4CallEiPPv@Base 6.2.1
 _ZN10Qt3DRender12QSceneLoader11qt_metacastEPKc@Base 6.2.1
 _ZN10Qt3DRender12QSceneLoader13sourceChangedERK4QUrl@Base 6.2.1
 _ZN10Qt3DRender12QSceneLoader13statusChangedENS0_6StatusE@Base 6.2.1
 _ZN10Qt3DRender12QSceneLoader16staticMetaObjectE@Base 6.2.1
 _ZN10Qt3DRender12QSceneLoader9setSourceERK4QUrl@Base 6.2.1
 _ZN10Qt3DRender12QSceneLoaderC1EPN8Qt3DCore5QNodeE@Base 6.2.1
 _ZN10Qt3DRender12QSceneLoaderC1ERNS_19QSceneLoaderPrivateEPN8Qt3DCore5QNodeE@Base 6.2.1
 _ZN10Qt3DRender12QSceneLoaderC2EPN8Qt3DCore5QNodeE@Base 6.2.1
 _ZN10Qt3DRender12QSceneLoaderC2ERNS_19QSceneLoaderPrivateEPN8Qt3DCore5QNodeE@Base 6.2.1
 _ZN10Qt3DRender12QSceneLoaderD0Ev@Base 6.2.1
 _ZN10Qt3DRender12QSceneLoaderD1Ev@Base 6.2.1
 _ZN10Qt3DRender12QSceneLoaderD2Ev@Base 6.2.1
 _ZN10Qt3DRender12QScissorTest11leftChangedEi@Base 6.2.1
 _ZN10Qt3DRender12QScissorTest11qt_metacallEN11QMetaObject4CallEiPPv@Base 6.2.1
 _ZN10Qt3DRender12QScissorTest11qt_metacastEPKc@Base 6.2.1
 _ZN10Qt3DRender12QScissorTest12widthChangedEi@Base 6.2.1
 _ZN10Qt3DRender12QScissorTest13bottomChangedEi@Base 6.2.1
 _ZN10Qt3DRender12QScissorTest13heightChangedEi@Base 6.2.1
 _ZN10Qt3DRender12QScissorTest16staticMetaObjectE@Base 6.2.1
 _ZN10Qt3DRender12QScissorTest7setLeftEi@Base 6.2.1
 _ZN10Qt3DRender12QScissorTest8setWidthEi@Base 6.2.1
 _ZN10Qt3DRender12QScissorTest9setBottomEi@Base 6.2.1
 _ZN10Qt3DRender12QScissorTest9setHeightEi@Base 6.2.1
 _ZN10Qt3DRender12QScissorTestC1EPN8Qt3DCore5QNodeE@Base 6.2.1
 _ZN10Qt3DRender12QScissorTestC2EPN8Qt3DCore5QNodeE@Base 6.2.1
 _ZN10Qt3DRender12QScissorTestD0Ev@Base 6.2.1
 _ZN10Qt3DRender12QScissorTestD1Ev@Base 6.2.1
 _ZN10Qt3DRender12QScissorTestD2Ev@Base 6.2.1
 _ZN10Qt3DRender12QShaderGraph10removeEdgeERKNS0_4EdgeE@Base 6.2.1
 _ZN10Qt3DRender12QShaderGraph10removeNodeERKNS_11QShaderNodeE@Base 6.2.1
 _ZN10Qt3DRender12QShaderGraph7addEdgeERKNS0_4EdgeE@Base 6.2.1
 _ZN10Qt3DRender12QShaderGraph7addNodeERKNS_11QShaderNodeE@Base 6.2.1
 _ZN10Qt3DRender12QShaderImage10setLayeredEb@Base 6.2.1
 _ZN10Qt3DRender12QShaderImage10setTextureEPNS_16QAbstractTextureE@Base 6.2.1
 _ZN10Qt3DRender12QShaderImage11qt_metacallEN11QMetaObject4CallEiPPv@Base 6.2.1
 _ZN10Qt3DRender12QShaderImage11qt_metacastEPKc@Base 6.2.1
 _ZN10Qt3DRender12QShaderImage11setMipLevelEi@Base 6.2.1
 _ZN10Qt3DRender12QShaderImage12layerChangedEi@Base 6.2.1
 _ZN10Qt3DRender12QShaderImage13accessChangedENS0_6AccessE@Base 6.2.1
 _ZN10Qt3DRender12QShaderImage13formatChangedENS0_11ImageFormatE@Base 6.2.1
 _ZN10Qt3DRender12QShaderImage14layeredChangedEb@Base 6.2.1
 _ZN10Qt3DRender12QShaderImage14textureChangedEPNS_16QAbstractTextureE@Base 6.2.1
 _ZN10Qt3DRender12QShaderImage15mipLevelChangedEi@Base 6.2.1
 _ZN10Qt3DRender12QShaderImage16staticMetaObjectE@Base 6.2.1
 _ZN10Qt3DRender12QShaderImage8setLayerEi@Base 6.2.1
 _ZN10Qt3DRender12QShaderImage9setAccessENS0_6AccessE@Base 6.2.1
 _ZN10Qt3DRender12QShaderImage9setFormatENS0_11ImageFormatE@Base 6.2.1
 _ZN10Qt3DRender12QShaderImageC1EPN8Qt3DCore5QNodeE@Base 6.2.1
 _ZN10Qt3DRender12QShaderImageC2EPN8Qt3DCore5QNodeE@Base 6.2.1
 _ZN10Qt3DRender12QShaderImageD0Ev@Base 6.2.1
 _ZN10Qt3DRender12QShaderImageD1Ev@Base 6.2.1
 _ZN10Qt3DRender12QShaderImageD2Ev@Base 6.2.1
 _ZN10Qt3DRender12QStencilMask11qt_metacallEN11QMetaObject4CallEiPPv@Base 6.2.1
 _ZN10Qt3DRender12QStencilMask11qt_metacastEPKc@Base 6.2.1
 _ZN10Qt3DRender12QStencilMask16staticMetaObjectE@Base 6.2.1
 _ZN10Qt3DRender12QStencilMask17setBackOutputMaskEj@Base 6.2.1
 _ZN10Qt3DRender12QStencilMask18setFrontOutputMaskEj@Base 6.2.1
 _ZN10Qt3DRender12QStencilMask21backOutputMaskChangedEj@Base 6.2.1
 _ZN10Qt3DRender12QStencilMask22frontOutputMaskChangedEj@Base 6.2.1
 _ZN10Qt3DRender12QStencilMaskC1EPN8Qt3DCore5QNodeE@Base 6.2.1
 _ZN10Qt3DRender12QStencilMaskC2EPN8Qt3DCore5QNodeE@Base 6.2.1
 _ZN10Qt3DRender12QStencilMaskD0Ev@Base 6.2.1
 _ZN10Qt3DRender12QStencilMaskD1Ev@Base 6.2.1
 _ZN10Qt3DRender12QStencilMaskD2Ev@Base 6.2.1
 _ZN10Qt3DRender12QStencilTest11qt_metacallEN11QMetaObject4CallEiPPv@Base 6.2.1
 _ZN10Qt3DRender12QStencilTest11qt_metacastEPKc@Base 6.2.1
 _ZN10Qt3DRender12QStencilTest16staticMetaObjectE@Base 6.2.1
 _ZN10Qt3DRender12QStencilTestC1EPN8Qt3DCore5QNodeE@Base 6.2.1
 _ZN10Qt3DRender12QStencilTestC2EPN8Qt3DCore5QNodeE@Base 6.2.1
 _ZN10Qt3DRender12QStencilTestD0Ev@Base 6.2.1
 _ZN10Qt3DRender12QStencilTestD1Ev@Base 6.2.1
 _ZN10Qt3DRender12QStencilTestD2Ev@Base 6.2.1
 _ZN10Qt3DRender12QTextureData12addImageDataERK14QSharedPointerINS_17QTextureImageDataEE@Base 6.2.1
 _ZN10Qt3DRender12QTextureData12setWrapModeXENS_16QTextureWrapMode8WrapModeE@Base 6.2.1
 _ZN10Qt3DRender12QTextureData12setWrapModeYENS_16QTextureWrapMode8WrapModeE@Base 6.2.1
 _ZN10Qt3DRender12QTextureData12setWrapModeZENS_16QTextureWrapMode8WrapModeE@Base 6.2.1
 _ZN10Qt3DRender12QTextureData17setComparisonModeENS_16QAbstractTexture14ComparisonModeE@Base 6.2.1
 _ZN10Qt3DRender12QTextureData20setMaximumAnisotropyEf@Base 6.2.1
 _ZN10Qt3DRender12QTextureData21setComparisonFunctionENS_16QAbstractTexture18ComparisonFunctionE@Base 6.2.1
 _ZN10Qt3DRender12QTextureData21setMinificationFilterENS_16QAbstractTexture6FilterE@Base 6.2.1
 _ZN10Qt3DRender12QTextureData22setMagnificationFilterENS_16QAbstractTexture6FilterE@Base 6.2.1
 _ZN10Qt3DRender12QTextureData30setAutoMipMapGenerationEnabledEb@Base 6.2.1
 _ZN10Qt3DRender12QTextureData8setDepthEi@Base 6.2.1
 _ZN10Qt3DRender12QTextureData8setWidthEi@Base 6.2.1
 _ZN10Qt3DRender12QTextureData9setFormatENS_16QAbstractTexture13TextureFormatE@Base 6.2.1
 _ZN10Qt3DRender12QTextureData9setHeightEi@Base 6.2.1
 _ZN10Qt3DRender12QTextureData9setLayersEi@Base 6.2.1
 _ZN10Qt3DRender12QTextureData9setTargetENS_16QAbstractTexture6TargetE@Base 6.2.1
 _ZN10Qt3DRender12QTextureDataC1Ev@Base 6.2.1
 _ZN10Qt3DRender12QTextureDataC2Ev@Base 6.2.1
 _ZN10Qt3DRender12QTextureDataD1Ev@Base 6.2.1
 _ZN10Qt3DRender12QTextureDataD2Ev@Base 6.2.1
 _ZN10Qt3DRender13QClearBuffers10setBuffersENS0_10BufferTypeE@Base 6.2.1
 _ZN10Qt3DRender13QClearBuffers11qt_metacallEN11QMetaObject4CallEiPPv@Base 6.2.1
 _ZN10Qt3DRender13QClearBuffers11qt_metacastEPKc@Base 6.2.1
 _ZN10Qt3DRender13QClearBuffers13setClearColorERK6QColor@Base 6.2.1
 _ZN10Qt3DRender13QClearBuffers14buffersChangedENS0_10BufferTypeE@Base 6.2.1
 _ZN10Qt3DRender13QClearBuffers14setColorBufferEPNS_19QRenderTargetOutputE@Base 6.2.1
 _ZN10Qt3DRender13QClearBuffers16staticMetaObjectE@Base 6.2.1
 _ZN10Qt3DRender13QClearBuffers17clearColorChangedERK6QColor@Base 6.2.1
 _ZN10Qt3DRender13QClearBuffers18colorBufferChangedEPNS_19QRenderTargetOutputE@Base 6.2.1
 _ZN10Qt3DRender13QClearBuffers18setClearDepthValueEf@Base 6.2.1
 _ZN10Qt3DRender13QClearBuffers20setClearStencilValueEi@Base 6.2.1
 _ZN10Qt3DRender13QClearBuffers22clearDepthValueChangedEf@Base 6.2.1
 _ZN10Qt3DRender13QClearBuffers24clearStencilValueChangedEi@Base 6.2.1
 _ZN10Qt3DRender13QClearBuffersC1EPN8Qt3DCore5QNodeE@Base 6.2.1
 _ZN10Qt3DRender13QClearBuffersC1ERNS_20QClearBuffersPrivateEPN8Qt3DCore5QNodeE@Base 6.2.1
 _ZN10Qt3DRender13QClearBuffersC2EPN8Qt3DCore5QNodeE@Base 6.2.1
 _ZN10Qt3DRender13QClearBuffersC2ERNS_20QClearBuffersPrivateEPN8Qt3DCore5QNodeE@Base 6.2.1
 _ZN10Qt3DRender13QClearBuffersD0Ev@Base 6.2.1
 _ZN10Qt3DRender13QClearBuffersD1Ev@Base 6.2.1
 _ZN10Qt3DRender13QClearBuffersD2Ev@Base 6.2.1
 _ZN10Qt3DRender13QDebugOverlay11qt_metacallEN11QMetaObject4CallEiPPv@Base 6.2.1
 _ZN10Qt3DRender13QDebugOverlay11qt_metacastEPKc@Base 6.2.1
 _ZN10Qt3DRender13QDebugOverlay16staticMetaObjectE@Base 6.2.1
 _ZN10Qt3DRender13QDebugOverlayC1EPN8Qt3DCore5QNodeE@Base 6.2.1
 _ZN10Qt3DRender13QDebugOverlayC2EPN8Qt3DCore5QNodeE@Base 6.2.1
 _ZN10Qt3DRender13QLayerPrivateC1Ev@Base 6.2.1
 _ZN10Qt3DRender13QLayerPrivateC2Ev@Base 6.2.1
 _ZN10Qt3DRender13QObjectPicker11qt_metacallEN11QMetaObject4CallEiPPv@Base 6.2.1
 _ZN10Qt3DRender13QObjectPicker11qt_metacastEPKc@Base 6.2.1
 _ZN10Qt3DRender13QObjectPicker11setPriorityEi@Base 6.2.1
 _ZN10Qt3DRender13QObjectPicker14pressedChangedEb@Base 6.2.1
 _ZN10Qt3DRender13QObjectPicker14setDragEnabledEb@Base 6.2.1
 _ZN10Qt3DRender13QObjectPicker15priorityChangedEi@Base 6.2.1
 _ZN10Qt3DRender13QObjectPicker15setHoverEnabledEb@Base 6.2.1
 _ZN10Qt3DRender13QObjectPicker16staticMetaObjectE@Base 6.2.1
 _ZN10Qt3DRender13QObjectPicker18dragEnabledChangedEb@Base 6.2.1
 _ZN10Qt3DRender13QObjectPicker19hoverEnabledChangedEb@Base 6.2.1
 _ZN10Qt3DRender13QObjectPicker20containsMouseChangedEb@Base 6.2.1
 _ZN10Qt3DRender13QObjectPicker5movedEPNS_10QPickEventE@Base 6.2.1
 _ZN10Qt3DRender13QObjectPicker6exitedEv@Base 6.2.1
 _ZN10Qt3DRender13QObjectPicker7clickedEPNS_10QPickEventE@Base 6.2.1
 _ZN10Qt3DRender13QObjectPicker7enteredEv@Base 6.2.1
 _ZN10Qt3DRender13QObjectPicker7pressedEPNS_10QPickEventE@Base 6.2.1
 _ZN10Qt3DRender13QObjectPicker8releasedEPNS_10QPickEventE@Base 6.2.1
 _ZN10Qt3DRender13QObjectPickerC1EPN8Qt3DCore5QNodeE@Base 6.2.1
 _ZN10Qt3DRender13QObjectPickerC2EPN8Qt3DCore5QNodeE@Base 6.2.1
 _ZN10Qt3DRender13QObjectPickerD0Ev@Base 6.2.1
 _ZN10Qt3DRender13QObjectPickerD1Ev@Base 6.2.1
 _ZN10Qt3DRender13QObjectPickerD2Ev@Base 6.2.1
 _ZN10Qt3DRender13QPickingProxy11qt_metacallEN11QMetaObject4CallEiPPv@Base 6.2.1
 _ZN10Qt3DRender13QPickingProxy11qt_metacastEPKc@Base 6.2.1
 _ZN10Qt3DRender13QPickingProxy16staticMetaObjectE@Base 6.2.1
 _ZN10Qt3DRender13QPickingProxyC1EPN8Qt3DCore5QNodeE@Base 6.2.1
 _ZN10Qt3DRender13QPickingProxyC1ERNS_20QPickingProxyPrivateEPN8Qt3DCore5QNodeE@Base 6.2.1
 _ZN10Qt3DRender13QPickingProxyC2EPN8Qt3DCore5QNodeE@Base 6.2.1
 _ZN10Qt3DRender13QPickingProxyC2ERNS_20QPickingProxyPrivateEPN8Qt3DCore5QNodeE@Base 6.2.1
 _ZN10Qt3DRender13QPickingProxyD0Ev@Base 6.2.1
 _ZN10Qt3DRender13QPickingProxyD1Ev@Base 6.2.1
 _ZN10Qt3DRender13QPickingProxyD2Ev@Base 6.2.1
 _ZN10Qt3DRender13QRayCasterHit16staticMetaObjectE@Base 6.2.1
 _ZN10Qt3DRender13QRayCasterHit8toStringEv@Base 6.2.1
 _ZN10Qt3DRender13QRayCasterHitC1ENS0_7HitTypeEN8Qt3DCore7QNodeIdEfRK9QVector3DS6_jjjj@Base 6.2.1
 _ZN10Qt3DRender13QRayCasterHitC1ERKS0_@Base 6.2.1
 _ZN10Qt3DRender13QRayCasterHitC1Ev@Base 6.2.1
 _ZN10Qt3DRender13QRayCasterHitC2ENS0_7HitTypeEN8Qt3DCore7QNodeIdEfRK9QVector3DS6_jjjj@Base 6.2.1
 _ZN10Qt3DRender13QRayCasterHitC2ERKS0_@Base 6.2.1
 _ZN10Qt3DRender13QRayCasterHitC2Ev@Base 6.2.1
 _ZN10Qt3DRender13QRayCasterHitD1Ev@Base 6.2.1
 _ZN10Qt3DRender13QRayCasterHitD2Ev@Base 6.2.1
 _ZN10Qt3DRender13QRayCasterHitaSERKS0_@Base 6.2.1
 _ZN10Qt3DRender13QRenderAspect11qt_metacallEN11QMetaObject4CallEiPPv@Base 6.2.1
 _ZN10Qt3DRender13QRenderAspect11qt_metacastEPKc@Base 6.2.1
 _ZN10Qt3DRender13QRenderAspect12onRegisteredEv@Base 6.2.1
 _ZN10Qt3DRender13QRenderAspect13jobsToExecuteEx@Base 6.2.1
 _ZN10Qt3DRender13QRenderAspect14executeCommandERK5QListI7QStringE@Base 6.2.1
 _ZN10Qt3DRender13QRenderAspect14onUnregisteredEv@Base 6.2.1
 _ZN10Qt3DRender13QRenderAspect15onEngineStartupEv@Base 6.2.1
 _ZN10Qt3DRender13QRenderAspect16staticMetaObjectE@Base 6.2.1
 _ZN10Qt3DRender13QRenderAspectC1ENS0_14SubmissionTypeEP7QObject@Base 6.2.1
 _ZN10Qt3DRender13QRenderAspectC1EP7QObject@Base 6.2.1
 _ZN10Qt3DRender13QRenderAspectC1ERNS_20QRenderAspectPrivateEP7QObject@Base 6.2.1
 _ZN10Qt3DRender13QRenderAspectC2ENS0_14SubmissionTypeEP7QObject@Base 6.2.1
 _ZN10Qt3DRender13QRenderAspectC2EP7QObject@Base 6.2.1
 _ZN10Qt3DRender13QRenderAspectC2ERNS_20QRenderAspectPrivateEP7QObject@Base 6.2.1
 _ZN10Qt3DRender13QRenderAspectD0Ev@Base 6.2.1
 _ZN10Qt3DRender13QRenderAspectD1Ev@Base 6.2.1
 _ZN10Qt3DRender13QRenderAspectD2Ev@Base 6.2.1
 _ZN10Qt3DRender13QRenderTarget11qt_metacallEN11QMetaObject4CallEiPPv@Base 6.2.1
 _ZN10Qt3DRender13QRenderTarget11qt_metacastEPKc@Base 6.2.1
 _ZN10Qt3DRender13QRenderTarget12removeOutputEPNS_19QRenderTargetOutputE@Base 6.2.1
 _ZN10Qt3DRender13QRenderTarget16staticMetaObjectE@Base 6.2.1
 _ZN10Qt3DRender13QRenderTarget9addOutputEPNS_19QRenderTargetOutputE@Base 6.2.1
 _ZN10Qt3DRender13QRenderTargetC1EPN8Qt3DCore5QNodeE@Base 6.2.1
 _ZN10Qt3DRender13QRenderTargetC1ERNS_20QRenderTargetPrivateEPN8Qt3DCore5QNodeE@Base 6.2.1
 _ZN10Qt3DRender13QRenderTargetC2EPN8Qt3DCore5QNodeE@Base 6.2.1
 _ZN10Qt3DRender13QRenderTargetC2ERNS_20QRenderTargetPrivateEPN8Qt3DCore5QNodeE@Base 6.2.1
 _ZN10Qt3DRender13QRenderTargetD0Ev@Base 6.2.1
 _ZN10Qt3DRender13QRenderTargetD1Ev@Base 6.2.1
 _ZN10Qt3DRender13QRenderTargetD2Ev@Base 6.2.1
 _ZN10Qt3DRender13QShaderFormat10setVersionERK14QVersionNumber@Base 6.2.1
 _ZN10Qt3DRender13QShaderFormat13setExtensionsERK5QListI7QStringE@Base 6.2.1
 _ZN10Qt3DRender13QShaderFormat13setShaderTypeENS0_10ShaderTypeE@Base 6.2.1
 _ZN10Qt3DRender13QShaderFormat6setApiENS0_3ApiE@Base 6.2.1
 _ZN10Qt3DRender13QShaderFormat9setVendorERK7QString@Base 6.2.1
 _ZN10Qt3DRender13QShaderFormatC1Ev@Base 6.2.1
 _ZN10Qt3DRender13QShaderFormatC2Ev@Base 6.2.1
 _ZN10Qt3DRender13QTextureImage11qt_metacallEN11QMetaObject4CallEiPPv@Base 6.2.1
 _ZN10Qt3DRender13QTextureImage11qt_metacastEPKc@Base 6.2.1
 _ZN10Qt3DRender13QTextureImage11setMirroredEb@Base 6.2.1
 _ZN10Qt3DRender13QTextureImage13sourceChangedERK4QUrl@Base 6.2.1
 _ZN10Qt3DRender13QTextureImage13statusChangedENS0_6StatusE@Base 6.2.1
 _ZN10Qt3DRender13QTextureImage15mirroredChangedEb@Base 6.2.1
 _ZN10Qt3DRender13QTextureImage16staticMetaObjectE@Base 6.2.1
 _ZN10Qt3DRender13QTextureImage9setSourceERK4QUrl@Base 6.2.1
 _ZN10Qt3DRender13QTextureImage9setStatusENS0_6StatusE@Base 6.2.1
 _ZN10Qt3DRender13QTextureImageC1EPN8Qt3DCore5QNodeE@Base 6.2.1
 _ZN10Qt3DRender13QTextureImageC2EPN8Qt3DCore5QNodeE@Base 6.2.1
 _ZN10Qt3DRender13QTextureImageD0Ev@Base 6.2.1
 _ZN10Qt3DRender13QTextureImageD1Ev@Base 6.2.1
 _ZN10Qt3DRender13QTextureImageD2Ev@Base 6.2.1
 _ZN10Qt3DRender14QAbstractLight11qt_metacallEN11QMetaObject4CallEiPPv@Base 6.2.1
 _ZN10Qt3DRender14QAbstractLight11qt_metacastEPKc@Base 6.2.1
 _ZN10Qt3DRender14QAbstractLight12colorChangedERK6QColor@Base 6.2.1
 _ZN10Qt3DRender14QAbstractLight12setIntensityEf@Base 6.2.1
 _ZN10Qt3DRender14QAbstractLight16intensityChangedEf@Base 6.2.1
 _ZN10Qt3DRender14QAbstractLight16staticMetaObjectE@Base 6.2.1
 _ZN10Qt3DRender14QAbstractLight8setColorERK6QColor@Base 6.2.1
 _ZN10Qt3DRender14QAbstractLightC1ERNS_21QAbstractLightPrivateEPN8Qt3DCore5QNodeE@Base 6.2.1
 _ZN10Qt3DRender14QAbstractLightC2ERNS_21QAbstractLightPrivateEPN8Qt3DCore5QNodeE@Base 6.2.1
 _ZN10Qt3DRender14QAbstractLightD0Ev@Base 6.2.1
 _ZN10Qt3DRender14QAbstractLightD1Ev@Base 6.2.1
 _ZN10Qt3DRender14QAbstractLightD2Ev@Base 6.2.1
 _ZN10Qt3DRender14QAlphaCoverage11qt_metacallEN11QMetaObject4CallEiPPv@Base 6.2.1
 _ZN10Qt3DRender14QAlphaCoverage11qt_metacastEPKc@Base 6.2.1
 _ZN10Qt3DRender14QAlphaCoverage16staticMetaObjectE@Base 6.2.1
 _ZN10Qt3DRender14QAlphaCoverageC1EPN8Qt3DCore5QNodeE@Base 6.2.1
 _ZN10Qt3DRender14QAlphaCoverageC2EPN8Qt3DCore5QNodeE@Base 6.2.1
 _ZN10Qt3DRender14QAlphaCoverageD0Ev@Base 6.2.1
 _ZN10Qt3DRender14QAlphaCoverageD1Ev@Base 6.2.1
 _ZN10Qt3DRender14QAlphaCoverageD2Ev@Base 6.2.1
 _ZN10Qt3DRender14QBlendEquation11qt_metacallEN11QMetaObject4CallEiPPv@Base 6.2.1
 _ZN10Qt3DRender14QBlendEquation11qt_metacastEPKc@Base 6.2.1
 _ZN10Qt3DRender14QBlendEquation16setBlendFunctionENS0_13BlendFunctionE@Base 6.2.1
 _ZN10Qt3DRender14QBlendEquation16staticMetaObjectE@Base 6.2.1
 _ZN10Qt3DRender14QBlendEquation20blendFunctionChangedENS0_13BlendFunctionE@Base 6.2.1
 _ZN10Qt3DRender14QBlendEquationC1EPN8Qt3DCore5QNodeE@Base 6.2.1
 _ZN10Qt3DRender14QBlendEquationC2EPN8Qt3DCore5QNodeE@Base 6.2.1
 _ZN10Qt3DRender14QBlendEquationD0Ev@Base 6.2.1
 _ZN10Qt3DRender14QBlendEquationD1Ev@Base 6.2.1
 _ZN10Qt3DRender14QBlendEquationD2Ev@Base 6.2.1
 _ZN10Qt3DRender14QBufferCapture11qt_metacallEN11QMetaObject4CallEiPPv@Base 6.2.1
 _ZN10Qt3DRender14QBufferCapture11qt_metacastEPKc@Base 6.2.1
 _ZN10Qt3DRender14QBufferCapture16staticMetaObjectE@Base 6.2.1
 _ZN10Qt3DRender14QBufferCaptureC1EPN8Qt3DCore5QNodeE@Base 6.2.1
 _ZN10Qt3DRender14QBufferCaptureC2EPN8Qt3DCore5QNodeE@Base 6.2.1
 _ZN10Qt3DRender14QBufferCaptureD0Ev@Base 6.2.1
 _ZN10Qt3DRender14QBufferCaptureD1Ev@Base 6.2.1
 _ZN10Qt3DRender14QBufferCaptureD2Ev@Base 6.2.1
 _ZN10Qt3DRender14QCameraPrivate28updateViewMatrixAndTransformEb@Base 6.2.1
 _ZN10Qt3DRender14QCameraPrivateC1Ev@Base 6.2.1
 _ZN10Qt3DRender14QCameraPrivateC2Ev@Base 6.2.1
 _ZN10Qt3DRender14QEffectPrivateC1Ev@Base 6.2.1
 _ZN10Qt3DRender14QEffectPrivateC2Ev@Base 6.2.1
 _ZN10Qt3DRender14QLevelOfDetail11qt_metacallEN11QMetaObject4CallEiPPv@Base 6.2.1
 _ZN10Qt3DRender14QLevelOfDetail11qt_metacastEPKc@Base 6.2.1
 _ZN10Qt3DRender14QLevelOfDetail13cameraChangedEPNS_7QCameraE@Base 6.2.1
 _ZN10Qt3DRender14QLevelOfDetail13setThresholdsERK5QListIdE@Base 6.2.1
 _ZN10Qt3DRender14QLevelOfDetail15setCurrentIndexEi@Base 6.2.1
 _ZN10Qt3DRender14QLevelOfDetail16setThresholdTypeENS0_13ThresholdTypeE@Base 6.2.1
 _ZN10Qt3DRender14QLevelOfDetail16staticMetaObjectE@Base 6.2.1
 _ZN10Qt3DRender14QLevelOfDetail17setVolumeOverrideERKNS_28QLevelOfDetailBoundingSphereE@Base 6.2.1
 _ZN10Qt3DRender14QLevelOfDetail17thresholdsChangedERK5QListIdE@Base 6.2.1
 _ZN10Qt3DRender14QLevelOfDetail19currentIndexChangedEi@Base 6.2.1
 _ZN10Qt3DRender14QLevelOfDetail20createBoundingSphereERK9QVector3Df@Base 6.2.1
 _ZN10Qt3DRender14QLevelOfDetail20thresholdTypeChangedENS0_13ThresholdTypeE@Base 6.2.1
 _ZN10Qt3DRender14QLevelOfDetail21volumeOverrideChangedERKNS_28QLevelOfDetailBoundingSphereE@Base 6.2.1
 _ZN10Qt3DRender14QLevelOfDetail9setCameraEPNS_7QCameraE@Base 6.2.1
 _ZN10Qt3DRender14QLevelOfDetailC1EPN8Qt3DCore5QNodeE@Base 6.2.1
 _ZN10Qt3DRender14QLevelOfDetailC1ERNS_21QLevelOfDetailPrivateEPN8Qt3DCore5QNodeE@Base 6.2.1
 _ZN10Qt3DRender14QLevelOfDetailC2EPN8Qt3DCore5QNodeE@Base 6.2.1
 _ZN10Qt3DRender14QLevelOfDetailC2ERNS_21QLevelOfDetailPrivateEPN8Qt3DCore5QNodeE@Base 6.2.1
 _ZN10Qt3DRender14QLevelOfDetailD0Ev@Base 6.2.1
 _ZN10Qt3DRender14QLevelOfDetailD1Ev@Base 6.2.1
 _ZN10Qt3DRender14QLevelOfDetailD2Ev@Base 6.2.1
 _ZN10Qt3DRender14QMemoryBarrier11qt_metacallEN11QMetaObject4CallEiPPv@Base 6.2.1
 _ZN10Qt3DRender14QMemoryBarrier11qt_metacastEPKc@Base 6.2.1
 _ZN10Qt3DRender14QMemoryBarrier16staticMetaObjectE@Base 6.2.1
 _ZN10Qt3DRender14QMemoryBarrier17setWaitOperationsE6QFlagsINS0_9OperationEE@Base 6.2.1
 _ZN10Qt3DRender14QMemoryBarrier21waitOperationsChangedE6QFlagsINS0_9OperationEE@Base 6.2.1
 _ZN10Qt3DRender14QMemoryBarrierC1EPN8Qt3DCore5QNodeE@Base 6.2.1
 _ZN10Qt3DRender14QMemoryBarrierC1ERNS_21QMemoryBarrierPrivateEPN8Qt3DCore5QNodeE@Base 6.2.1
 _ZN10Qt3DRender14QMemoryBarrierC2EPN8Qt3DCore5QNodeE@Base 6.2.1
 _ZN10Qt3DRender14QMemoryBarrierC2ERNS_21QMemoryBarrierPrivateEPN8Qt3DCore5QNodeE@Base 6.2.1
 _ZN10Qt3DRender14QMemoryBarrierD0Ev@Base 6.2.1
 _ZN10Qt3DRender14QMemoryBarrierD1Ev@Base 6.2.1
 _ZN10Qt3DRender14QMemoryBarrierD2Ev@Base 6.2.1
 _ZN10Qt3DRender14QPickLineEvent11qt_metacallEN11QMetaObject4CallEiPPv@Base 6.2.1
 _ZN10Qt3DRender14QPickLineEvent11qt_metacastEPKc@Base 6.2.1
 _ZN10Qt3DRender14QPickLineEvent16staticMetaObjectE@Base 6.2.1
 _ZN10Qt3DRender14QPickLineEventC1ERK7QPointFRK9QVector3DS6_fjjjNS_10QPickEvent7ButtonsEii@Base 6.2.1
 _ZN10Qt3DRender14QPickLineEventC1Ev@Base 6.2.1
 _ZN10Qt3DRender14QPickLineEventC2ERK7QPointFRK9QVector3DS6_fjjjNS_10QPickEvent7ButtonsEii@Base 6.2.1
 _ZN10Qt3DRender14QPickLineEventC2Ev@Base 6.2.1
 _ZN10Qt3DRender14QPickLineEventD0Ev@Base 6.2.1
 _ZN10Qt3DRender14QPickLineEventD1Ev@Base 6.2.1
 _ZN10Qt3DRender14QPickLineEventD2Ev@Base 6.2.1
 _ZN10Qt3DRender14QPolygonOffset11qt_metacallEN11QMetaObject4CallEiPPv@Base 6.2.1
 _ZN10Qt3DRender14QPolygonOffset11qt_metacastEPKc@Base 6.2.1
 _ZN10Qt3DRender14QPolygonOffset13setDepthStepsEf@Base 6.2.1
 _ZN10Qt3DRender14QPolygonOffset14setScaleFactorEf@Base 6.2.1
 _ZN10Qt3DRender14QPolygonOffset16staticMetaObjectE@Base 6.2.1
 _ZN10Qt3DRender14QPolygonOffset17depthStepsChangedEf@Base 6.2.1
 _ZN10Qt3DRender14QPolygonOffset18scaleFactorChangedEf@Base 6.2.1
 _ZN10Qt3DRender14QPolygonOffsetC1EPN8Qt3DCore5QNodeE@Base 6.2.1
 _ZN10Qt3DRender14QPolygonOffsetC2EPN8Qt3DCore5QNodeE@Base 6.2.1
 _ZN10Qt3DRender14QPolygonOffsetD0Ev@Base 6.2.1
 _ZN10Qt3DRender14QPolygonOffsetD1Ev@Base 6.2.1
 _ZN10Qt3DRender14QPolygonOffsetD2Ev@Base 6.2.1
 _ZN10Qt3DRender14QRenderCapture11qt_metacallEN11QMetaObject4CallEiPPv@Base 6.2.1
 _ZN10Qt3DRender14QRenderCapture11qt_metacastEPKc@Base 6.2.1
 _ZN10Qt3DRender14QRenderCapture14requestCaptureERK5QRect@Base 6.2.1
 _ZN10Qt3DRender14QRenderCapture14requestCaptureEi@Base 6.2.1
 _ZN10Qt3DRender14QRenderCapture14requestCaptureEv@Base 6.2.1
 _ZN10Qt3DRender14QRenderCapture16staticMetaObjectE@Base 6.2.1
 _ZN10Qt3DRender14QRenderCaptureC1EPN8Qt3DCore5QNodeE@Base 6.2.1
 _ZN10Qt3DRender14QRenderCaptureC2EPN8Qt3DCore5QNodeE@Base 6.2.1
 _ZN10Qt3DRender14QSceneExporter11qt_metacallEN11QMetaObject4CallEiPPv@Base 6.2.1
 _ZN10Qt3DRender14QSceneExporter11qt_metacastEPKc@Base 6.2.1
 _ZN10Qt3DRender14QSceneExporter13errorsChangedERK5QListI7QStringE@Base 6.2.1
 _ZN10Qt3DRender14QSceneExporter16staticMetaObjectE@Base 6.2.1
 _ZN10Qt3DRender14QSceneExporter7logInfoERK7QString@Base 6.2.1
 _ZN10Qt3DRender14QSceneExporter8logErrorERK7QString@Base 6.2.1
 _ZN10Qt3DRender14QSceneExporterC1Ev@Base 6.2.1
 _ZN10Qt3DRender14QSceneExporterC2Ev@Base 6.2.1
 _ZN10Qt3DRender14QSceneExporterD0Ev@Base 6.2.1
 _ZN10Qt3DRender14QSceneExporterD1Ev@Base 6.2.1
 _ZN10Qt3DRender14QSceneExporterD2Ev@Base 6.2.1
 _ZN10Qt3DRender14QSceneImporter11qt_metacallEN11QMetaObject4CallEiPPv@Base 6.2.1
 _ZN10Qt3DRender14QSceneImporter11qt_metacastEPKc@Base 6.2.1
 _ZN10Qt3DRender14QSceneImporter13errorsChangedERK5QListI7QStringE@Base 6.2.1
 _ZN10Qt3DRender14QSceneImporter13statusChangedENS0_12ParserStatusE@Base 6.2.1
 _ZN10Qt3DRender14QSceneImporter16staticMetaObjectE@Base 6.2.1
 _ZN10Qt3DRender14QSceneImporter7logInfoERK7QString@Base 6.2.1
 _ZN10Qt3DRender14QSceneImporter8logErrorERK7QString@Base 6.2.1
 _ZN10Qt3DRender14QSceneImporter9setStatusENS0_12ParserStatusE@Base 6.2.1
 _ZN10Qt3DRender14QSceneImporterC1Ev@Base 6.2.1
 _ZN10Qt3DRender14QSceneImporterC2Ev@Base 6.2.1
 _ZN10Qt3DRender14QSceneImporterD0Ev@Base 6.2.1
 _ZN10Qt3DRender14QSceneImporterD1Ev@Base 6.2.1
 _ZN10Qt3DRender14QSceneImporterD2Ev@Base 6.2.1
 _ZN10Qt3DRender14QShaderProgram10loadSourceERK4QUrl@Base 6.2.1
 _ZN10Qt3DRender14QShaderProgram10logChangedERK7QString@Base 6.2.1
 _ZN10Qt3DRender14QShaderProgram11qt_metacallEN11QMetaObject4CallEiPPv@Base 6.2.1
 _ZN10Qt3DRender14QShaderProgram11qt_metacastEPKc@Base 6.2.1
 _ZN10Qt3DRender14QShaderProgram13formatChangedENS0_6FormatE@Base 6.2.1
 _ZN10Qt3DRender14QShaderProgram13setShaderCodeENS0_10ShaderTypeERK10QByteArray@Base 6.2.1
 _ZN10Qt3DRender14QShaderProgram13statusChangedENS0_6StatusE@Base 6.2.1
 _ZN10Qt3DRender14QShaderProgram16staticMetaObjectE@Base 6.2.1
 _ZN10Qt3DRender14QShaderProgram19setVertexShaderCodeERK10QByteArray@Base 6.2.1
 _ZN10Qt3DRender14QShaderProgram20setComputeShaderCodeERK10QByteArray@Base 6.2.1
 _ZN10Qt3DRender14QShaderProgram21setFragmentShaderCodeERK10QByteArray@Base 6.2.1
 _ZN10Qt3DRender14QShaderProgram21setGeometryShaderCodeERK10QByteArray@Base 6.2.1
 _ZN10Qt3DRender14QShaderProgram23vertexShaderCodeChangedERK10QByteArray@Base 6.2.1
 _ZN10Qt3DRender14QShaderProgram24computeShaderCodeChangedERK10QByteArray@Base 6.2.1
 _ZN10Qt3DRender14QShaderProgram25fragmentShaderCodeChangedERK10QByteArray@Base 6.2.1
 _ZN10Qt3DRender14QShaderProgram25geometryShaderCodeChangedERK10QByteArray@Base 6.2.1
 _ZN10Qt3DRender14QShaderProgram32setTessellationControlShaderCodeERK10QByteArray@Base 6.2.1
 _ZN10Qt3DRender14QShaderProgram35setTessellationEvaluationShaderCodeERK10QByteArray@Base 6.2.1
 _ZN10Qt3DRender14QShaderProgram36tessellationControlShaderCodeChangedERK10QByteArray@Base 6.2.1
 _ZN10Qt3DRender14QShaderProgram39tessellationEvaluationShaderCodeChangedERK10QByteArray@Base 6.2.1
 _ZN10Qt3DRender14QShaderProgram9setFormatENS0_6FormatE@Base 6.2.1
 _ZN10Qt3DRender14QShaderProgramC1EPN8Qt3DCore5QNodeE@Base 6.2.1
 _ZN10Qt3DRender14QShaderProgramC1ERNS_21QShaderProgramPrivateEPN8Qt3DCore5QNodeE@Base 6.2.1
 _ZN10Qt3DRender14QShaderProgramC2EPN8Qt3DCore5QNodeE@Base 6.2.1
 _ZN10Qt3DRender14QShaderProgramC2ERNS_21QShaderProgramPrivateEPN8Qt3DCore5QNodeE@Base 6.2.1
 _ZN10Qt3DRender14QShaderProgramD0Ev@Base 6.2.1
 _ZN10Qt3DRender14QShaderProgramD1Ev@Base 6.2.1
 _ZN10Qt3DRender14QShaderProgramD2Ev@Base 6.2.1
 _ZN10Qt3DRender14QTextureBuffer11qt_metacallEN11QMetaObject4CallEiPPv@Base 6.2.1
 _ZN10Qt3DRender14QTextureBuffer11qt_metacastEPKc@Base 6.2.1
 _ZN10Qt3DRender14QTextureBuffer16staticMetaObjectE@Base 6.2.1
 _ZN10Qt3DRender14QTextureBufferC1EPN8Qt3DCore5QNodeE@Base 6.2.1
 _ZN10Qt3DRender14QTextureBufferC2EPN8Qt3DCore5QNodeE@Base 6.2.1
 _ZN10Qt3DRender14QTextureBufferD0Ev@Base 6.2.1
 _ZN10Qt3DRender14QTextureBufferD1Ev@Base 6.2.1
 _ZN10Qt3DRender14QTextureBufferD2Ev@Base 6.2.1
 _ZN10Qt3DRender14QTextureLoader11qt_metacallEN11QMetaObject4CallEiPPv@Base 6.2.1
 _ZN10Qt3DRender14QTextureLoader11qt_metacastEPKc@Base 6.2.1
 _ZN10Qt3DRender14QTextureLoader11setMirroredEb@Base 6.2.1
 _ZN10Qt3DRender14QTextureLoader13sourceChangedERK4QUrl@Base 6.2.1
 _ZN10Qt3DRender14QTextureLoader15mirroredChangedEb@Base 6.2.1
 _ZN10Qt3DRender14QTextureLoader16staticMetaObjectE@Base 6.2.1
 _ZN10Qt3DRender14QTextureLoader9setSourceERK4QUrl@Base 6.2.1
 _ZN10Qt3DRender14QTextureLoaderC1EPN8Qt3DCore5QNodeE@Base 6.2.1
 _ZN10Qt3DRender14QTextureLoaderC2EPN8Qt3DCore5QNodeE@Base 6.2.1
 _ZN10Qt3DRender14QTextureLoaderD0Ev@Base 6.2.1
 _ZN10Qt3DRender14QTextureLoaderD1Ev@Base 6.2.1
 _ZN10Qt3DRender14QTextureLoaderD2Ev@Base 6.2.1
 _ZN10Qt3DRender15QCameraSelector11qt_metacallEN11QMetaObject4CallEiPPv@Base 6.2.1
 _ZN10Qt3DRender15QCameraSelector11qt_metacastEPKc@Base 6.2.1
 _ZN10Qt3DRender15QCameraSelector13cameraChangedEPN8Qt3DCore7QEntityE@Base 6.2.1
 _ZN10Qt3DRender15QCameraSelector16staticMetaObjectE@Base 6.2.1
 _ZN10Qt3DRender15QCameraSelector9setCameraEPN8Qt3DCore7QEntityE@Base 6.2.1
 _ZN10Qt3DRender15QCameraSelectorC1EPN8Qt3DCore5QNodeE@Base 6.2.1
 _ZN10Qt3DRender15QCameraSelectorC1ERNS_22QCameraSelectorPrivateEPN8Qt3DCore5QNodeE@Base 6.2.1
 _ZN10Qt3DRender15QCameraSelectorC2EPN8Qt3DCore5QNodeE@Base 6.2.1
 _ZN10Qt3DRender15QCameraSelectorC2ERNS_22QCameraSelectorPrivateEPN8Qt3DCore5QNodeE@Base 6.2.1
 _ZN10Qt3DRender15QCameraSelectorD0Ev@Base 6.2.1
 _ZN10Qt3DRender15QCameraSelectorD1Ev@Base 6.2.1
 _ZN10Qt3DRender15QCameraSelectorD2Ev@Base 6.2.1
 _ZN10Qt3DRender15QComputeCommand10setRunTypeENS0_7RunTypeE@Base 6.2.1
 _ZN10Qt3DRender15QComputeCommand11qt_metacallEN11QMetaObject4CallEiPPv@Base 6.2.1
 _ZN10Qt3DRender15QComputeCommand11qt_metacastEPKc@Base 6.2.1
 _ZN10Qt3DRender15QComputeCommand13setWorkGroupXEi@Base 6.2.1
 _ZN10Qt3DRender15QComputeCommand13setWorkGroupYEi@Base 6.2.1
 _ZN10Qt3DRender15QComputeCommand13setWorkGroupZEi@Base 6.2.1
 _ZN10Qt3DRender15QComputeCommand14runTypeChangedEv@Base 6.2.1
 _ZN10Qt3DRender15QComputeCommand16staticMetaObjectE@Base 6.2.1
 _ZN10Qt3DRender15QComputeCommand17workGroupXChangedEv@Base 6.2.1
 _ZN10Qt3DRender15QComputeCommand17workGroupYChangedEv@Base 6.2.1
 _ZN10Qt3DRender15QComputeCommand17workGroupZChangedEv@Base 6.2.1
 _ZN10Qt3DRender15QComputeCommand7triggerEi@Base 6.2.1
 _ZN10Qt3DRender15QComputeCommand7triggerEiiii@Base 6.2.1
 _ZN10Qt3DRender15QComputeCommandC1EPN8Qt3DCore5QNodeE@Base 6.2.1
 _ZN10Qt3DRender15QComputeCommandC2EPN8Qt3DCore5QNodeE@Base 6.2.1
 _ZN10Qt3DRender15QComputeCommandD0Ev@Base 6.2.1
 _ZN10Qt3DRender15QComputeCommandD1Ev@Base 6.2.1
 _ZN10Qt3DRender15QComputeCommandD2Ev@Base 6.2.1
 _ZN10Qt3DRender15QFrameGraphNode11qt_metacallEN11QMetaObject4CallEiPPv@Base 6.2.1
 _ZN10Qt3DRender15QFrameGraphNode11qt_metacastEPKc@Base 6.2.1
 _ZN10Qt3DRender15QFrameGraphNode15onParentChangedEP7QObject@Base 6.2.1
 _ZN10Qt3DRender15QFrameGraphNode16staticMetaObjectE@Base 6.2.1
 _ZN10Qt3DRender15QFrameGraphNodeC1EPN8Qt3DCore5QNodeE@Base 6.2.1
 _ZN10Qt3DRender15QFrameGraphNodeC1ERNS_22QFrameGraphNodePrivateEPN8Qt3DCore5QNodeE@Base 6.2.1
 _ZN10Qt3DRender15QFrameGraphNodeC2EPN8Qt3DCore5QNodeE@Base 6.2.1
 _ZN10Qt3DRender15QFrameGraphNodeC2ERNS_22QFrameGraphNodePrivateEPN8Qt3DCore5QNodeE@Base 6.2.1
 _ZN10Qt3DRender15QFrameGraphNodeD0Ev@Base 6.2.1
 _ZN10Qt3DRender15QFrameGraphNodeD1Ev@Base 6.2.1
 _ZN10Qt3DRender15QFrameGraphNodeD2Ev@Base 6.2.1
 _ZN10Qt3DRender15QFrustumCulling11qt_metacallEN11QMetaObject4CallEiPPv@Base 6.2.1
 _ZN10Qt3DRender15QFrustumCulling11qt_metacastEPKc@Base 6.2.1
 _ZN10Qt3DRender15QFrustumCulling16staticMetaObjectE@Base 6.2.1
 _ZN10Qt3DRender15QFrustumCullingC1EPN8Qt3DCore5QNodeE@Base 6.2.1
 _ZN10Qt3DRender15QFrustumCullingC2EPN8Qt3DCore5QNodeE@Base 6.2.1
 _ZN10Qt3DRender15QFrustumCullingD0Ev@Base 6.2.1
 _ZN10Qt3DRender15QFrustumCullingD1Ev@Base 6.2.1
 _ZN10Qt3DRender15QFrustumCullingD2Ev@Base 6.2.1
 _ZN10Qt3DRender15QPickPointEvent11qt_metacallEN11QMetaObject4CallEiPPv@Base 6.2.1
 _ZN10Qt3DRender15QPickPointEvent11qt_metacastEPKc@Base 6.2.1
 _ZN10Qt3DRender15QPickPointEvent16staticMetaObjectE@Base 6.2.1
 _ZN10Qt3DRender15QPickPointEventC1ERK7QPointFRK9QVector3DS6_fjNS_10QPickEvent7ButtonsEii@Base 6.2.1
 _ZN10Qt3DRender15QPickPointEventC1Ev@Base 6.2.1
 _ZN10Qt3DRender15QPickPointEventC2ERK7QPointFRK9QVector3DS6_fjNS_10QPickEvent7ButtonsEii@Base 6.2.1
 _ZN10Qt3DRender15QPickPointEventC2Ev@Base 6.2.1
 _ZN10Qt3DRender15QPickPointEventD0Ev@Base 6.2.1
 _ZN10Qt3DRender15QPickPointEventD1Ev@Base 6.2.1
 _ZN10Qt3DRender15QPickPointEventD2Ev@Base 6.2.1
 _ZN10Qt3DRender15QRenderSettings11qt_metacallEN11QMetaObject4CallEiPPv@Base 6.2.1
 _ZN10Qt3DRender15QRenderSettings11qt_metacastEPKc@Base 6.2.1
 _ZN10Qt3DRender15QRenderSettings15pickingSettingsEv@Base 6.2.1
 _ZN10Qt3DRender15QRenderSettings15setRenderPolicyENS0_12RenderPolicyE@Base 6.2.1
 _ZN10Qt3DRender15QRenderSettings16staticMetaObjectE@Base 6.2.1
 _ZN10Qt3DRender15QRenderSettings18renderCapabilitiesEv@Base 6.2.1
 _ZN10Qt3DRender15QRenderSettings19renderPolicyChangedENS0_12RenderPolicyE@Base 6.2.1
 _ZN10Qt3DRender15QRenderSettings19setActiveFrameGraphEPNS_15QFrameGraphNodeE@Base 6.2.1
 _ZN10Qt3DRender15QRenderSettings23activeFrameGraphChangedEPNS_15QFrameGraphNodeE@Base 6.2.1
 _ZN10Qt3DRender15QRenderSettingsC1EPN8Qt3DCore5QNodeE@Base 6.2.1
 _ZN10Qt3DRender15QRenderSettingsC1ERNS_22QRenderSettingsPrivateEPN8Qt3DCore5QNodeE@Base 6.2.1
 _ZN10Qt3DRender15QRenderSettingsC2EPN8Qt3DCore5QNodeE@Base 6.2.1
 _ZN10Qt3DRender15QRenderSettingsC2ERNS_22QRenderSettingsPrivateEPN8Qt3DCore5QNodeE@Base 6.2.1
 _ZN10Qt3DRender15QRenderSettingsD0Ev@Base 6.2.1
 _ZN10Qt3DRender15QRenderSettingsD1Ev@Base 6.2.1
 _ZN10Qt3DRender15QRenderSettingsD2Ev@Base 6.2.1
 _ZN10Qt3DRender15QRenderStateSet11qt_metacallEN11QMetaObject4CallEiPPv@Base 6.2.1
 _ZN10Qt3DRender15QRenderStateSet11qt_metacastEPKc@Base 6.2.1
 _ZN10Qt3DRender15QRenderStateSet14addRenderStateEPNS_12QRenderStateE@Base 6.2.1
 _ZN10Qt3DRender15QRenderStateSet16staticMetaObjectE@Base 6.2.1
 _ZN10Qt3DRender15QRenderStateSet17removeRenderStateEPNS_12QRenderStateE@Base 6.2.1
 _ZN10Qt3DRender15QRenderStateSetC1EPN8Qt3DCore5QNodeE@Base 6.2.1
 _ZN10Qt3DRender15QRenderStateSetC2EPN8Qt3DCore5QNodeE@Base 6.2.1
 _ZN10Qt3DRender15QRenderStateSetD0Ev@Base 6.2.1
 _ZN10Qt3DRender15QRenderStateSetD1Ev@Base 6.2.1
 _ZN10Qt3DRender15QRenderStateSetD2Ev@Base 6.2.1
 _ZN10Qt3DRender15QShaderNodePortC1Ev@Base 6.2.1
 _ZN10Qt3DRender15QShaderNodePortC2Ev@Base 6.2.1
 _ZN10Qt3DRender15QSubtreeEnabler11qt_metacallEN11QMetaObject4CallEiPPv@Base 6.2.1
 _ZN10Qt3DRender15QSubtreeEnabler11qt_metacastEPKc@Base 6.2.1
 _ZN10Qt3DRender15QSubtreeEnabler13requestUpdateEv@Base 6.2.1
 _ZN10Qt3DRender15QSubtreeEnabler13setEnablementENS0_10EnablementE@Base 6.2.1
 _ZN10Qt3DRender15QSubtreeEnabler16staticMetaObjectE@Base 6.2.1
 _ZN10Qt3DRender15QSubtreeEnabler17enablementChangedENS0_10EnablementE@Base 6.2.1
 _ZN10Qt3DRender15QSubtreeEnablerC1EPN8Qt3DCore5QNodeE@Base 6.2.1
 _ZN10Qt3DRender15QSubtreeEnablerC2EPN8Qt3DCore5QNodeE@Base 6.2.1
 _ZN10Qt3DRender15QSubtreeEnablerD0Ev@Base 6.2.1
 _ZN10Qt3DRender15QSubtreeEnablerD1Ev@Base 6.2.1
 _ZN10Qt3DRender15QSubtreeEnablerD2Ev@Base 6.2.1
 _ZN10Qt3DRender15QTexture1DArray11qt_metacallEN11QMetaObject4CallEiPPv@Base 6.2.1
 _ZN10Qt3DRender15QTexture1DArray11qt_metacastEPKc@Base 6.2.1
 _ZN10Qt3DRender15QTexture1DArray16staticMetaObjectE@Base 6.2.1
 _ZN10Qt3DRender15QTexture1DArrayC1EPN8Qt3DCore5QNodeE@Base 6.2.1
 _ZN10Qt3DRender15QTexture1DArrayC2EPN8Qt3DCore5QNodeE@Base 6.2.1
 _ZN10Qt3DRender15QTexture1DArrayD0Ev@Base 6.2.1
 _ZN10Qt3DRender15QTexture1DArrayD1Ev@Base 6.2.1
 _ZN10Qt3DRender15QTexture1DArrayD2Ev@Base 6.2.1
 _ZN10Qt3DRender15QTexture2DArray11qt_metacallEN11QMetaObject4CallEiPPv@Base 6.2.1
 _ZN10Qt3DRender15QTexture2DArray11qt_metacastEPKc@Base 6.2.1
 _ZN10Qt3DRender15QTexture2DArray16staticMetaObjectE@Base 6.2.1
 _ZN10Qt3DRender15QTexture2DArrayC1EPN8Qt3DCore5QNodeE@Base 6.2.1
 _ZN10Qt3DRender15QTexture2DArrayC2EPN8Qt3DCore5QNodeE@Base 6.2.1
 _ZN10Qt3DRender15QTexture2DArrayD0Ev@Base 6.2.1
 _ZN10Qt3DRender15QTexture2DArrayD1Ev@Base 6.2.1
 _ZN10Qt3DRender15QTexture2DArrayD2Ev@Base 6.2.1
 _ZN10Qt3DRender15QTextureCubeMap11qt_metacallEN11QMetaObject4CallEiPPv@Base 6.2.1
 _ZN10Qt3DRender15QTextureCubeMap11qt_metacastEPKc@Base 6.2.1
 _ZN10Qt3DRender15QTextureCubeMap16staticMetaObjectE@Base 6.2.1
 _ZN10Qt3DRender15QTextureCubeMapC1EPN8Qt3DCore5QNodeE@Base 6.2.1
 _ZN10Qt3DRender15QTextureCubeMapC2EPN8Qt3DCore5QNodeE@Base 6.2.1
 _ZN10Qt3DRender15QTextureCubeMapD0Ev@Base 6.2.1
 _ZN10Qt3DRender15QTextureCubeMapD1Ev@Base 6.2.1
 _ZN10Qt3DRender15QTextureCubeMapD2Ev@Base 6.2.1
 _ZN10Qt3DRender16QAbstractTexture10setSamplesEi@Base 6.2.1
 _ZN10Qt3DRender16QAbstractTexture10updateDataERKNS_18QTextureDataUpdateE@Base 6.2.1
 _ZN10Qt3DRender16QAbstractTexture11qt_metacallEN11QMetaObject4CallEiPPv@Base 6.2.1
 _ZN10Qt3DRender16QAbstractTexture11qt_metacastEPKc@Base 6.2.1
 _ZN10Qt3DRender16QAbstractTexture11setWrapModeERKNS_16QTextureWrapModeE@Base 6.2.1
 _ZN10Qt3DRender16QAbstractTexture12depthChangedEi@Base 6.2.1
 _ZN10Qt3DRender16QAbstractTexture12setMipLevelsEi@Base 6.2.1
 _ZN10Qt3DRender16QAbstractTexture12widthChangedEi@Base 6.2.1
 _ZN10Qt3DRender16QAbstractTexture13formatChangedENS0_13TextureFormatE@Base 6.2.1
 _ZN10Qt3DRender16QAbstractTexture13handleChangedE8QVariant@Base 6.2.1
 _ZN10Qt3DRender16QAbstractTexture13heightChangedEi@Base 6.2.1
 _ZN10Qt3DRender16QAbstractTexture13layersChangedEi@Base 6.2.1
 _ZN10Qt3DRender16QAbstractTexture13setHandleTypeENS0_10HandleTypeE@Base 6.2.1
 _ZN10Qt3DRender16QAbstractTexture13statusChangedENS0_6StatusE@Base 6.2.1
 _ZN10Qt3DRender16QAbstractTexture14samplesChangedEi@Base 6.2.1
 _ZN10Qt3DRender16QAbstractTexture15addTextureImageEPNS_21QAbstractTextureImageE@Base 6.2.1
 _ZN10Qt3DRender16QAbstractTexture16mipLevelsChangedEi@Base 6.2.1
 _ZN10Qt3DRender16QAbstractTexture16staticMetaObjectE@Base 6.2.1
 _ZN10Qt3DRender16QAbstractTexture17handleTypeChangedENS0_10HandleTypeE@Base 6.2.1
 _ZN10Qt3DRender16QAbstractTexture17setComparisonModeENS0_14ComparisonModeE@Base 6.2.1
 _ZN10Qt3DRender16QAbstractTexture18removeTextureImageEPNS_21QAbstractTextureImageE@Base 6.2.1
 _ZN10Qt3DRender16QAbstractTexture18setGenerateMipMapsEb@Base 6.2.1
 _ZN10Qt3DRender16QAbstractTexture20setMaximumAnisotropyEf@Base 6.2.1
 _ZN10Qt3DRender16QAbstractTexture21comparisonModeChangedENS0_14ComparisonModeE@Base 6.2.1
 _ZN10Qt3DRender16QAbstractTexture21setComparisonFunctionENS0_18ComparisonFunctionE@Base 6.2.1
 _ZN10Qt3DRender16QAbstractTexture21setMinificationFilterENS0_6FilterE@Base 6.2.1
 _ZN10Qt3DRender16QAbstractTexture22generateMipMapsChangedEb@Base 6.2.1
 _ZN10Qt3DRender16QAbstractTexture22setMagnificationFilterENS0_6FilterE@Base 6.2.1
 _ZN10Qt3DRender16QAbstractTexture24maximumAnisotropyChangedEf@Base 6.2.1
 _ZN10Qt3DRender16QAbstractTexture25comparisonFunctionChangedENS0_18ComparisonFunctionE@Base 6.2.1
 _ZN10Qt3DRender16QAbstractTexture25minificationFilterChangedENS0_6FilterE@Base 6.2.1
 _ZN10Qt3DRender16QAbstractTexture26magnificationFilterChangedENS0_6FilterE@Base 6.2.1
 _ZN10Qt3DRender16QAbstractTexture7setSizeEiii@Base 6.2.1
 _ZN10Qt3DRender16QAbstractTexture8setDepthEi@Base 6.2.1
 _ZN10Qt3DRender16QAbstractTexture8setWidthEi@Base 6.2.1
 _ZN10Qt3DRender16QAbstractTexture8wrapModeEv@Base 6.2.1
 _ZN10Qt3DRender16QAbstractTexture9setFormatENS0_13TextureFormatE@Base 6.2.1
 _ZN10Qt3DRender16QAbstractTexture9setHandleERK8QVariant@Base 6.2.1
 _ZN10Qt3DRender16QAbstractTexture9setHeightEi@Base 6.2.1
 _ZN10Qt3DRender16QAbstractTexture9setLayersEi@Base 6.2.1
 _ZN10Qt3DRender16QAbstractTexture9setStatusENS0_6StatusE@Base 6.2.1
 _ZN10Qt3DRender16QAbstractTextureC1ENS0_6TargetEPN8Qt3DCore5QNodeE@Base 6.2.1
 _ZN10Qt3DRender16QAbstractTextureC1EPN8Qt3DCore5QNodeE@Base 6.2.1
 _ZN10Qt3DRender16QAbstractTextureC1ERNS_23QAbstractTexturePrivateEPN8Qt3DCore5QNodeE@Base 6.2.1
 _ZN10Qt3DRender16QAbstractTextureC2ENS0_6TargetEPN8Qt3DCore5QNodeE@Base 6.2.1
 _ZN10Qt3DRender16QAbstractTextureC2EPN8Qt3DCore5QNodeE@Base 6.2.1
 _ZN10Qt3DRender16QAbstractTextureC2ERNS_23QAbstractTexturePrivateEPN8Qt3DCore5QNodeE@Base 6.2.1
 _ZN10Qt3DRender16QAbstractTextureD0Ev@Base 6.2.1
 _ZN10Qt3DRender16QAbstractTextureD1Ev@Base 6.2.1
 _ZN10Qt3DRender16QAbstractTextureD2Ev@Base 6.2.1
 _ZN10Qt3DRender16QBlitFramebuffer11qt_metacallEN11QMetaObject4CallEiPPv@Base 6.2.1
 _ZN10Qt3DRender16QBlitFramebuffer11qt_metacastEPKc@Base 6.2.1
 _ZN10Qt3DRender16QBlitFramebuffer13setSourceRectERK6QRectF@Base 6.2.1
 _ZN10Qt3DRender16QBlitFramebuffer13sourceChangedEv@Base 6.2.1
 _ZN10Qt3DRender16QBlitFramebuffer14setDestinationEPNS_13QRenderTargetE@Base 6.2.1
 _ZN10Qt3DRender16QBlitFramebuffer16staticMetaObjectE@Base 6.2.1
 _ZN10Qt3DRender16QBlitFramebuffer17sourceRectChangedEv@Base 6.2.1
 _ZN10Qt3DRender16QBlitFramebuffer18destinationChangedEv@Base 6.2.1
 _ZN10Qt3DRender16QBlitFramebuffer18setDestinationRectERK6QRectF@Base 6.2.1
 _ZN10Qt3DRender16QBlitFramebuffer22destinationRectChangedEv@Base 6.2.1
 _ZN10Qt3DRender16QBlitFramebuffer22setInterpolationMethodENS0_19InterpolationMethodE@Base 6.2.1
 _ZN10Qt3DRender16QBlitFramebuffer24setSourceAttachmentPointENS_19QRenderTargetOutput15AttachmentPointE@Base 6.2.1
 _ZN10Qt3DRender16QBlitFramebuffer26interpolationMethodChangedEv@Base 6.2.1
 _ZN10Qt3DRender16QBlitFramebuffer28sourceAttachmentPointChangedEv@Base 6.2.1
 _ZN10Qt3DRender16QBlitFramebuffer29setDestinationAttachmentPointENS_19QRenderTargetOutput15AttachmentPointE@Base 6.2.1
 _ZN10Qt3DRender16QBlitFramebuffer33destinationAttachmentPointChangedEv@Base 6.2.1
 _ZN10Qt3DRender16QBlitFramebuffer9setSourceEPNS_13QRenderTargetE@Base 6.2.1
 _ZN10Qt3DRender16QBlitFramebufferC1EPN8Qt3DCore5QNodeE@Base 6.2.1
 _ZN10Qt3DRender16QBlitFramebufferC1ERNS_23QBlitFramebufferPrivateEPN8Qt3DCore5QNodeE@Base 6.2.1
 _ZN10Qt3DRender16QBlitFramebufferC2EPN8Qt3DCore5QNodeE@Base 6.2.1
 _ZN10Qt3DRender16QBlitFramebufferC2ERNS_23QBlitFramebufferPrivateEPN8Qt3DCore5QNodeE@Base 6.2.1
 _ZN10Qt3DRender16QBlitFramebufferD0Ev@Base 6.2.1
 _ZN10Qt3DRender16QBlitFramebufferD1Ev@Base 6.2.1
 _ZN10Qt3DRender16QBlitFramebufferD2Ev@Base 6.2.1
 _ZN10Qt3DRender16QDispatchCompute11qt_metacallEN11QMetaObject4CallEiPPv@Base 6.2.1
 _ZN10Qt3DRender16QDispatchCompute11qt_metacastEPKc@Base 6.2.1
 _ZN10Qt3DRender16QDispatchCompute13setWorkGroupXEi@Base 6.2.1
 _ZN10Qt3DRender16QDispatchCompute13setWorkGroupYEi@Base 6.2.1
 _ZN10Qt3DRender16QDispatchCompute13setWorkGroupZEi@Base 6.2.1
 _ZN10Qt3DRender16QDispatchCompute16staticMetaObjectE@Base 6.2.1
 _ZN10Qt3DRender16QDispatchCompute17workGroupXChangedEv@Base 6.2.1
 _ZN10Qt3DRender16QDispatchCompute17workGroupYChangedEv@Base 6.2.1
 _ZN10Qt3DRender16QDispatchCompute17workGroupZChangedEv@Base 6.2.1
 _ZN10Qt3DRender16QDispatchComputeC1EPN8Qt3DCore5QNodeE@Base 6.2.1
 _ZN10Qt3DRender16QDispatchComputeC2EPN8Qt3DCore5QNodeE@Base 6.2.1
 _ZN10Qt3DRender16QDispatchComputeD0Ev@Base 6.2.1
 _ZN10Qt3DRender16QDispatchComputeD1Ev@Base 6.2.1
 _ZN10Qt3DRender16QDispatchComputeD2Ev@Base 6.2.1
 _ZN10Qt3DRender16QMaterialPrivateC1Ev@Base 6.2.1
 _ZN10Qt3DRender16QMaterialPrivateC2Ev@Base 6.2.1
 _ZN10Qt3DRender16QMaterialPrivateD0Ev@Base 6.2.1
 _ZN10Qt3DRender16QMaterialPrivateD1Ev@Base 6.2.1
 _ZN10Qt3DRender16QMaterialPrivateD2Ev@Base 6.2.1
 _ZN10Qt3DRender16QPickingSettings11qt_metacallEN11QMetaObject4CallEiPPv@Base 6.2.1
 _ZN10Qt3DRender16QPickingSettings11qt_metacastEPKc@Base 6.2.1
 _ZN10Qt3DRender16QPickingSettings13setPickMethodENS0_10PickMethodE@Base 6.2.1
 _ZN10Qt3DRender16QPickingSettings16staticMetaObjectE@Base 6.2.1
 _ZN10Qt3DRender16QPickingSettings17pickMethodChangedENS0_10PickMethodE@Base 6.2.1
 _ZN10Qt3DRender16QPickingSettings17setPickResultModeENS0_14PickResultModeE@Base 6.2.1
 _ZN10Qt3DRender16QPickingSettings21pickResultModeChangedENS0_14PickResultModeE@Base 6.2.1
 _ZN10Qt3DRender16QPickingSettings22setWorldSpaceToleranceEf@Base 6.2.1
 _ZN10Qt3DRender16QPickingSettings26worldSpaceToleranceChangedEf@Base 6.2.1
 _ZN10Qt3DRender16QPickingSettings29setFaceOrientationPickingModeENS0_26FaceOrientationPickingModeE@Base 6.2.1
 _ZN10Qt3DRender16QPickingSettings33faceOrientationPickingModeChangedENS0_26FaceOrientationPickingModeE@Base 6.2.1
 _ZN10Qt3DRender16QPickingSettingsC1EPN8Qt3DCore5QNodeE@Base 6.2.1
 _ZN10Qt3DRender16QPickingSettingsC1ERNS_23QPickingSettingsPrivateEPN8Qt3DCore5QNodeE@Base 6.2.1
 _ZN10Qt3DRender16QPickingSettingsC2EPN8Qt3DCore5QNodeE@Base 6.2.1
 _ZN10Qt3DRender16QPickingSettingsC2ERNS_23QPickingSettingsPrivateEPN8Qt3DCore5QNodeE@Base 6.2.1
 _ZN10Qt3DRender16QPickingSettingsD0Ev@Base 6.2.1
 _ZN10Qt3DRender16QPickingSettingsD1Ev@Base 6.2.1
 _ZN10Qt3DRender16QPickingSettingsD2Ev@Base 6.2.1
 _ZN10Qt3DRender16QProximityFilter11qt_metacallEN11QMetaObject4CallEiPPv@Base 6.2.1
 _ZN10Qt3DRender16QProximityFilter11qt_metacastEPKc@Base 6.2.1
 _ZN10Qt3DRender16QProximityFilter13entityChangedEPN8Qt3DCore7QEntityE@Base 6.2.1
 _ZN10Qt3DRender16QProximityFilter16staticMetaObjectE@Base 6.2.1
 _ZN10Qt3DRender16QProximityFilter20setDistanceThresholdEf@Base 6.2.1
 _ZN10Qt3DRender16QProximityFilter24distanceThresholdChangedEf@Base 6.2.1
 _ZN10Qt3DRender16QProximityFilter9setEntityEPN8Qt3DCore7QEntityE@Base 6.2.1
 _ZN10Qt3DRender16QProximityFilterC1EPN8Qt3DCore5QNodeE@Base 6.2.1
 _ZN10Qt3DRender16QProximityFilterC1ERNS_23QProximityFilterPrivateEPN8Qt3DCore5QNodeE@Base 6.2.1
 _ZN10Qt3DRender16QProximityFilterC2EPN8Qt3DCore5QNodeE@Base 6.2.1
 _ZN10Qt3DRender16QProximityFilterC2ERNS_23QProximityFilterPrivateEPN8Qt3DCore5QNodeE@Base 6.2.1
 _ZN10Qt3DRender16QProximityFilterD0Ev@Base 6.2.1
 _ZN10Qt3DRender16QProximityFilterD1Ev@Base 6.2.1
 _ZN10Qt3DRender16QProximityFilterD2Ev@Base 6.2.1
 _ZN10Qt3DRender16QScreenRayCaster11qt_metacallEN11QMetaObject4CallEiPPv@Base 6.2.1
 _ZN10Qt3DRender16QScreenRayCaster11qt_metacastEPKc@Base 6.2.1
 _ZN10Qt3DRender16QScreenRayCaster11setPositionERK6QPoint@Base 6.2.1
 _ZN10Qt3DRender16QScreenRayCaster15positionChangedERK6QPoint@Base 6.2.1
 _ZN10Qt3DRender16QScreenRayCaster16staticMetaObjectE@Base 6.2.1
 _ZN10Qt3DRender16QScreenRayCaster4pickERK6QPoint@Base 6.2.1
 _ZN10Qt3DRender16QScreenRayCaster7triggerERK6QPoint@Base 6.2.1
 _ZN10Qt3DRender16QScreenRayCaster7triggerEv@Base 6.2.1
 _ZN10Qt3DRender16QScreenRayCasterC1EPN8Qt3DCore5QNodeE@Base 6.2.1
 _ZN10Qt3DRender16QScreenRayCasterC1ERNS_25QAbstractRayCasterPrivateEPN8Qt3DCore5QNodeE@Base 6.2.1
 _ZN10Qt3DRender16QScreenRayCasterC2EPN8Qt3DCore5QNodeE@Base 6.2.1
 _ZN10Qt3DRender16QScreenRayCasterC2ERNS_25QAbstractRayCasterPrivateEPN8Qt3DCore5QNodeE@Base 6.2.1
 _ZN10Qt3DRender16QScreenRayCasterD0Ev@Base 6.2.1
 _ZN10Qt3DRender16QScreenRayCasterD1Ev@Base 6.2.1
 _ZN10Qt3DRender16QScreenRayCasterD2Ev@Base 6.2.1
 _ZN10Qt3DRender16QSeamlessCubemap11qt_metacallEN11QMetaObject4CallEiPPv@Base 6.2.1
 _ZN10Qt3DRender16QSeamlessCubemap11qt_metacastEPKc@Base 6.2.1
 _ZN10Qt3DRender16QSeamlessCubemap16staticMetaObjectE@Base 6.2.1
 _ZN10Qt3DRender16QSeamlessCubemapC1EPN8Qt3DCore5QNodeE@Base 6.2.1
 _ZN10Qt3DRender16QSeamlessCubemapC2EPN8Qt3DCore5QNodeE@Base 6.2.1
 _ZN10Qt3DRender16QSeamlessCubemapD0Ev@Base 6.2.1
 _ZN10Qt3DRender16QSeamlessCubemapD1Ev@Base 6.2.1
 _ZN10Qt3DRender16QSeamlessCubemapD2Ev@Base 6.2.1
 _ZN10Qt3DRender16QSetFencePrivate13setHandleTypeENS_9QSetFence10HandleTypeE@Base 6.2.1
 _ZN10Qt3DRender16QSetFencePrivate9setHandleE8QVariant@Base 6.2.1
 _ZN10Qt3DRender16QSetFencePrivateC1Ev@Base 6.2.1
 _ZN10Qt3DRender16QSetFencePrivateC2Ev@Base 6.2.1
 _ZN10Qt3DRender16QSharedGLTexture11qt_metacallEN11QMetaObject4CallEiPPv@Base 6.2.1
 _ZN10Qt3DRender16QSharedGLTexture11qt_metacastEPKc@Base 6.2.1
 _ZN10Qt3DRender16QSharedGLTexture12setTextureIdEi@Base 6.2.1
 _ZN10Qt3DRender16QSharedGLTexture16staticMetaObjectE@Base 6.2.1
 _ZN10Qt3DRender16QSharedGLTexture16textureIdChangedEi@Base 6.2.1
 _ZN10Qt3DRender16QSharedGLTextureC1EPN8Qt3DCore5QNodeE@Base 6.2.1
 _ZN10Qt3DRender16QSharedGLTextureC2EPN8Qt3DCore5QNodeE@Base 6.2.1
 _ZN10Qt3DRender16QSharedGLTextureD0Ev@Base 6.2.1
 _ZN10Qt3DRender16QSharedGLTextureD1Ev@Base 6.2.1
 _ZN10Qt3DRender16QSharedGLTextureD2Ev@Base 6.2.1
 _ZN10Qt3DRender16QTechniqueFilter11qt_metacallEN11QMetaObject4CallEiPPv@Base 6.2.1
 _ZN10Qt3DRender16QTechniqueFilter11qt_metacastEPKc@Base 6.2.1
 _ZN10Qt3DRender16QTechniqueFilter11removeMatchEPNS_10QFilterKeyE@Base 6.2.1
 _ZN10Qt3DRender16QTechniqueFilter12addParameterEPNS_10QParameterE@Base 6.2.1
 _ZN10Qt3DRender16QTechniqueFilter15removeParameterEPNS_10QParameterE@Base 6.2.1
 _ZN10Qt3DRender16QTechniqueFilter16staticMetaObjectE@Base 6.2.1
 _ZN10Qt3DRender16QTechniqueFilter8addMatchEPNS_10QFilterKeyE@Base 6.2.1
 _ZN10Qt3DRender16QTechniqueFilterC1EPN8Qt3DCore5QNodeE@Base 6.2.1
 _ZN10Qt3DRender16QTechniqueFilterC1ERNS_23QTechniqueFilterPrivateEPN8Qt3DCore5QNodeE@Base 6.2.1
 _ZN10Qt3DRender16QTechniqueFilterC2EPN8Qt3DCore5QNodeE@Base 6.2.1
 _ZN10Qt3DRender16QTechniqueFilterC2ERNS_23QTechniqueFilterPrivateEPN8Qt3DCore5QNodeE@Base 6.2.1
 _ZN10Qt3DRender16QTechniqueFilterD0Ev@Base 6.2.1
 _ZN10Qt3DRender16QTechniqueFilterD1Ev@Base 6.2.1
 _ZN10Qt3DRender16QTechniqueFilterD2Ev@Base 6.2.1
 _ZN10Qt3DRender16QTextureWrapMode11qt_metacallEN11QMetaObject4CallEiPPv@Base 6.2.1
 _ZN10Qt3DRender16QTextureWrapMode11qt_metacastEPKc@Base 6.2.1
 _ZN10Qt3DRender16QTextureWrapMode16staticMetaObjectE@Base 6.2.1
 _ZN10Qt3DRender16QTextureWrapMode4setXENS0_8WrapModeE@Base 6.2.1
 _ZN10Qt3DRender16QTextureWrapMode4setYENS0_8WrapModeE@Base 6.2.1
 _ZN10Qt3DRender16QTextureWrapMode4setZENS0_8WrapModeE@Base 6.2.1
 _ZN10Qt3DRender16QTextureWrapMode8xChangedENS0_8WrapModeE@Base 6.2.1
 _ZN10Qt3DRender16QTextureWrapMode8yChangedENS0_8WrapModeE@Base 6.2.1
 _ZN10Qt3DRender16QTextureWrapMode8zChangedENS0_8WrapModeE@Base 6.2.1
 _ZN10Qt3DRender16QTextureWrapModeC1ENS0_8WrapModeEP7QObject@Base 6.2.1
 _ZN10Qt3DRender16QTextureWrapModeC1ENS0_8WrapModeES1_S1_P7QObject@Base 6.2.1
 _ZN10Qt3DRender16QTextureWrapModeC2ENS0_8WrapModeEP7QObject@Base 6.2.1
 _ZN10Qt3DRender16QTextureWrapModeC2ENS0_8WrapModeES1_S1_P7QObject@Base 6.2.1
 _ZN10Qt3DRender16QTextureWrapModeD0Ev@Base 6.2.1
 _ZN10Qt3DRender16QTextureWrapModeD1Ev@Base 6.2.1
 _ZN10Qt3DRender16QTextureWrapModeD2Ev@Base 6.2.1
 _ZN10Qt3DRender17QDirectionalLight11qt_metacallEN11QMetaObject4CallEiPPv@Base 6.2.1
 _ZN10Qt3DRender17QDirectionalLight11qt_metacastEPKc@Base 6.2.1
 _ZN10Qt3DRender17QDirectionalLight16staticMetaObjectE@Base 6.2.1
 _ZN10Qt3DRender17QDirectionalLight17setWorldDirectionERK9QVector3D@Base 6.2.1
 _ZN10Qt3DRender17QDirectionalLight21worldDirectionChangedERK9QVector3D@Base 6.2.1
 _ZN10Qt3DRender17QDirectionalLightC1EPN8Qt3DCore5QNodeE@Base 6.2.1
 _ZN10Qt3DRender17QDirectionalLightC1ERNS_24QDirectionalLightPrivateEPN8Qt3DCore5QNodeE@Base 6.2.1
 _ZN10Qt3DRender17QDirectionalLightC2EPN8Qt3DCore5QNodeE@Base 6.2.1
 _ZN10Qt3DRender17QDirectionalLightC2ERNS_24QDirectionalLightPrivateEPN8Qt3DCore5QNodeE@Base 6.2.1
 _ZN10Qt3DRender17QDirectionalLightD0Ev@Base 6.2.1
 _ZN10Qt3DRender17QDirectionalLightD1Ev@Base 6.2.1
 _ZN10Qt3DRender17QDirectionalLightD2Ev@Base 6.2.1
 _ZN10Qt3DRender17QEnvironmentLight11qt_metacallEN11QMetaObject4CallEiPPv@Base 6.2.1
 _ZN10Qt3DRender17QEnvironmentLight11qt_metacastEPKc@Base 6.2.1
 _ZN10Qt3DRender17QEnvironmentLight11setSpecularEPNS_16QAbstractTextureE@Base 6.2.1
 _ZN10Qt3DRender17QEnvironmentLight13setIrradianceEPNS_16QAbstractTextureE@Base 6.2.1
 _ZN10Qt3DRender17QEnvironmentLight15specularChangedEPNS_16QAbstractTextureE@Base 6.2.1
 _ZN10Qt3DRender17QEnvironmentLight16staticMetaObjectE@Base 6.2.1
 _ZN10Qt3DRender17QEnvironmentLight17irradianceChangedEPNS_16QAbstractTextureE@Base 6.2.1
 _ZN10Qt3DRender17QEnvironmentLightC1EPN8Qt3DCore5QNodeE@Base 6.2.1
 _ZN10Qt3DRender17QEnvironmentLightC1ERNS_24QEnvironmentLightPrivateEPN8Qt3DCore5QNodeE@Base 6.2.1
 _ZN10Qt3DRender17QEnvironmentLightC2EPN8Qt3DCore5QNodeE@Base 6.2.1
 _ZN10Qt3DRender17QEnvironmentLightC2ERNS_24QEnvironmentLightPrivateEPN8Qt3DCore5QNodeE@Base 6.2.1
 _ZN10Qt3DRender17QEnvironmentLightD0Ev@Base 6.2.1
 _ZN10Qt3DRender17QEnvironmentLightD1Ev@Base 6.2.1
 _ZN10Qt3DRender17QEnvironmentLightD2Ev@Base 6.2.1
 _ZN10Qt3DRender17QFilterKeyPrivateC1Ev@Base 6.2.1
 _ZN10Qt3DRender17QFilterKeyPrivateC2Ev@Base 6.2.1
 _ZN10Qt3DRender17QGeometryRenderer11qt_metacallEN11QMetaObject4CallEiPPv@Base 6.2.1
 _ZN10Qt3DRender17QGeometryRenderer11qt_metacastEPKc@Base 6.2.1
 _ZN10Qt3DRender17QGeometryRenderer11setGeometryEPN8Qt3DCore9QGeometryE@Base 6.2.1
 _ZN10Qt3DRender17QGeometryRenderer12setSortIndexEf@Base 6.2.1
 _ZN10Qt3DRender17QGeometryRenderer14setFirstVertexEi@Base 6.2.1
 _ZN10Qt3DRender17QGeometryRenderer14setIndexOffsetEi@Base 6.2.1
 _ZN10Qt3DRender17QGeometryRenderer14setVertexCountEi@Base 6.2.1
 _ZN10Qt3DRender17QGeometryRenderer15geometryChangedEPN8Qt3DCore9QGeometryE@Base 6.2.1
 _ZN10Qt3DRender17QGeometryRenderer16setFirstInstanceEi@Base 6.2.1
 _ZN10Qt3DRender17QGeometryRenderer16setInstanceCountEi@Base 6.2.1
 _ZN10Qt3DRender17QGeometryRenderer16setPrimitiveTypeENS0_13PrimitiveTypeE@Base 6.2.1
 _ZN10Qt3DRender17QGeometryRenderer16sortIndexChangedEf@Base 6.2.1
 _ZN10Qt3DRender17QGeometryRenderer16staticMetaObjectE@Base 6.2.1
 _ZN10Qt3DRender17QGeometryRenderer18firstVertexChangedEi@Base 6.2.1
 _ZN10Qt3DRender17QGeometryRenderer18indexOffsetChangedEi@Base 6.2.1
 _ZN10Qt3DRender17QGeometryRenderer18vertexCountChangedEi@Base 6.2.1
 _ZN10Qt3DRender17QGeometryRenderer19setVerticesPerPatchEi@Base 6.2.1
 _ZN10Qt3DRender17QGeometryRenderer20firstInstanceChangedEi@Base 6.2.1
 _ZN10Qt3DRender17QGeometryRenderer20instanceCountChangedEi@Base 6.2.1
 _ZN10Qt3DRender17QGeometryRenderer20primitiveTypeChangedENS0_13PrimitiveTypeE@Base 6.2.1
 _ZN10Qt3DRender17QGeometryRenderer20setRestartIndexValueEi@Base 6.2.1
 _ZN10Qt3DRender17QGeometryRenderer23verticesPerPatchChangedEi@Base 6.2.1
 _ZN10Qt3DRender17QGeometryRenderer24restartIndexValueChangedEi@Base 6.2.1
 _ZN10Qt3DRender17QGeometryRenderer24setIndexBufferByteOffsetEi@Base 6.2.1
 _ZN10Qt3DRender17QGeometryRenderer26setPrimitiveRestartEnabledEb@Base 6.2.1
 _ZN10Qt3DRender17QGeometryRenderer28indexBufferByteOffsetChangedEi@Base 6.2.1
 _ZN10Qt3DRender17QGeometryRenderer30primitiveRestartEnabledChangedEb@Base 6.2.1
 _ZN10Qt3DRender17QGeometryRendererC1EPN8Qt3DCore5QNodeE@Base 6.2.1
 _ZN10Qt3DRender17QGeometryRendererC1ERNS_24QGeometryRendererPrivateEPN8Qt3DCore5QNodeE@Base 6.2.1
 _ZN10Qt3DRender17QGeometryRendererC2EPN8Qt3DCore5QNodeE@Base 6.2.1
 _ZN10Qt3DRender17QGeometryRendererC2ERNS_24QGeometryRendererPrivateEPN8Qt3DCore5QNodeE@Base 6.2.1
 _ZN10Qt3DRender17QGeometryRendererD0Ev@Base 6.2.1
 _ZN10Qt3DRender17QGeometryRendererD1Ev@Base 6.2.1
 _ZN10Qt3DRender17QGeometryRendererD2Ev@Base 6.2.1
 _ZN10Qt3DRender17QParameterPrivate8setValueERK8QVariant@Base 6.2.1
 _ZN10Qt3DRender17QParameterPrivateC1Ev@Base 6.2.1
 _ZN10Qt3DRender17QParameterPrivateC2Ev@Base 6.2.1
 _ZN10Qt3DRender17QPickEventPrivate3getEPNS_10QPickEventE@Base 6.2.1
 _ZN10Qt3DRender17QRenderPassFilter11qt_metacallEN11QMetaObject4CallEiPPv@Base 6.2.1
 _ZN10Qt3DRender17QRenderPassFilter11qt_metacastEPKc@Base 6.2.1
 _ZN10Qt3DRender17QRenderPassFilter11removeMatchEPNS_10QFilterKeyE@Base 6.2.1
 _ZN10Qt3DRender17QRenderPassFilter12addParameterEPNS_10QParameterE@Base 6.2.1
 _ZN10Qt3DRender17QRenderPassFilter15removeParameterEPNS_10QParameterE@Base 6.2.1
 _ZN10Qt3DRender17QRenderPassFilter16staticMetaObjectE@Base 6.2.1
 _ZN10Qt3DRender17QRenderPassFilter8addMatchEPNS_10QFilterKeyE@Base 6.2.1
 _ZN10Qt3DRender17QRenderPassFilterC1EPN8Qt3DCore5QNodeE@Base 6.2.1
 _ZN10Qt3DRender17QRenderPassFilterC1ERNS_24QRenderPassFilterPrivateEPN8Qt3DCore5QNodeE@Base 6.2.1
 _ZN10Qt3DRender17QRenderPassFilterC2EPN8Qt3DCore5QNodeE@Base 6.2.1
 _ZN10Qt3DRender17QRenderPassFilterC2ERNS_24QRenderPassFilterPrivateEPN8Qt3DCore5QNodeE@Base 6.2.1
 _ZN10Qt3DRender17QRenderPassFilterD0Ev@Base 6.2.1
 _ZN10Qt3DRender17QRenderPassFilterD1Ev@Base 6.2.1
 _ZN10Qt3DRender17QRenderPassFilterD2Ev@Base 6.2.1
 _ZN10Qt3DRender17QSpotLightPrivateC1Ev@Base 6.2.1
 _ZN10Qt3DRender17QSpotLightPrivateC2Ev@Base 6.2.1
 _ZN10Qt3DRender17QStencilOperation11qt_metacallEN11QMetaObject4CallEiPPv@Base 6.2.1
 _ZN10Qt3DRender17QStencilOperation11qt_metacastEPKc@Base 6.2.1
 _ZN10Qt3DRender17QStencilOperation16staticMetaObjectE@Base 6.2.1
 _ZN10Qt3DRender17QStencilOperationC1EPN8Qt3DCore5QNodeE@Base 6.2.1
 _ZN10Qt3DRender17QStencilOperationC2EPN8Qt3DCore5QNodeE@Base 6.2.1
 _ZN10Qt3DRender17QStencilOperationD0Ev@Base 6.2.1
 _ZN10Qt3DRender17QStencilOperationD1Ev@Base 6.2.1
 _ZN10Qt3DRender17QStencilOperationD2Ev@Base 6.2.1
 _ZN10Qt3DRender17QTextureGeneratorD0Ev@Base 6.2.1
 _ZN10Qt3DRender17QTextureGeneratorD1Ev@Base 6.2.1
 _ZN10Qt3DRender17QTextureGeneratorD2Ev@Base 6.2.1
 _ZN10Qt3DRender17QTextureImageData12setAlignmentEi@Base 6.2.1
 _ZN10Qt3DRender17QTextureImageData12setMipLevelsEi@Base 6.2.1
 _ZN10Qt3DRender17QTextureImageData12setPixelTypeEN14QOpenGLTexture9PixelTypeE@Base 6.2.1
 _ZN10Qt3DRender17QTextureImageData14setPixelFormatEN14QOpenGLTexture11PixelFormatE@Base 6.2.1
 _ZN10Qt3DRender17QTextureImageData7cleanupEv@Base 6.2.1
 _ZN10Qt3DRender17QTextureImageData7setDataERK10QByteArraySt8functionIFS1_S1_iiiEEb@Base 6.2.1
 _ZN10Qt3DRender17QTextureImageData7setDataERK10QByteArrayib@Base 6.2.1
 _ZN10Qt3DRender17QTextureImageData8setDepthEi@Base 6.2.1
 _ZN10Qt3DRender17QTextureImageData8setFacesEi@Base 6.2.1
 _ZN10Qt3DRender17QTextureImageData8setImageERK6QImage@Base 6.2.1
 _ZN10Qt3DRender17QTextureImageData8setWidthEi@Base 6.2.1
 _ZN10Qt3DRender17QTextureImageData9setFormatEN14QOpenGLTexture13TextureFormatE@Base 6.2.1
 _ZN10Qt3DRender17QTextureImageData9setHeightEi@Base 6.2.1
 _ZN10Qt3DRender17QTextureImageData9setLayersEi@Base 6.2.1
 _ZN10Qt3DRender17QTextureImageData9setTargetEN14QOpenGLTexture6TargetE@Base 6.2.1
 _ZN10Qt3DRender17QTextureImageDataC1ERNS_24QTextureImageDataPrivateE@Base 6.2.1
 _ZN10Qt3DRender17QTextureImageDataC1Ev@Base 6.2.1
 _ZN10Qt3DRender17QTextureImageDataC2ERNS_24QTextureImageDataPrivateE@Base 6.2.1
 _ZN10Qt3DRender17QTextureImageDataC2Ev@Base 6.2.1
 _ZN10Qt3DRender17QTextureImageDataD1Ev@Base 6.2.1
 _ZN10Qt3DRender17QTextureImageDataD2Ev@Base 6.2.1
 _ZN10Qt3DRender17QTextureImageDataaSERKS0_@Base 6.2.1
 _ZN10Qt3DRender17QTextureRectangle11qt_metacallEN11QMetaObject4CallEiPPv@Base 6.2.1
 _ZN10Qt3DRender17QTextureRectangle11qt_metacastEPKc@Base 6.2.1
 _ZN10Qt3DRender17QTextureRectangle16staticMetaObjectE@Base 6.2.1
 _ZN10Qt3DRender17QTextureRectangleC1EPN8Qt3DCore5QNodeE@Base 6.2.1
 _ZN10Qt3DRender17QTextureRectangleC2EPN8Qt3DCore5QNodeE@Base 6.2.1
 _ZN10Qt3DRender17QTextureRectangleD0Ev@Base 6.2.1
 _ZN10Qt3DRender17QTextureRectangleD1Ev@Base 6.2.1
 _ZN10Qt3DRender17QTextureRectangleD2Ev@Base 6.2.1
 _ZN10Qt3DRender18QAbstractRayCaster10setRunModeENS0_7RunModeE@Base 6.2.1
 _ZN10Qt3DRender18QAbstractRayCaster11hitsChangedERK5QListINS_13QRayCasterHitEE@Base 6.2.1
 _ZN10Qt3DRender18QAbstractRayCaster11qt_metacallEN11QMetaObject4CallEiPPv@Base 6.2.1
 _ZN10Qt3DRender18QAbstractRayCaster11qt_metacastEPKc@Base 6.2.1
 _ZN10Qt3DRender18QAbstractRayCaster11removeLayerEPNS_6QLayerE@Base 6.2.1
 _ZN10Qt3DRender18QAbstractRayCaster13setFilterModeENS0_10FilterModeE@Base 6.2.1
 _ZN10Qt3DRender18QAbstractRayCaster14runModeChangedENS0_7RunModeE@Base 6.2.1
 _ZN10Qt3DRender18QAbstractRayCaster16staticMetaObjectE@Base 6.2.1
 _ZN10Qt3DRender18QAbstractRayCaster17filterModeChangedENS0_10FilterModeE@Base 6.2.1
 _ZN10Qt3DRender18QAbstractRayCaster8addLayerEPNS_6QLayerE@Base 6.2.1
 _ZN10Qt3DRender18QAbstractRayCasterC1EPN8Qt3DCore5QNodeE@Base 6.2.1
 _ZN10Qt3DRender18QAbstractRayCasterC1ERNS_25QAbstractRayCasterPrivateEPN8Qt3DCore5QNodeE@Base 6.2.1
 _ZN10Qt3DRender18QAbstractRayCasterC2EPN8Qt3DCore5QNodeE@Base 6.2.1
 _ZN10Qt3DRender18QAbstractRayCasterC2ERNS_25QAbstractRayCasterPrivateEPN8Qt3DCore5QNodeE@Base 6.2.1
 _ZN10Qt3DRender18QAbstractRayCasterD0Ev@Base 6.2.1
 _ZN10Qt3DRender18QAbstractRayCasterD1Ev@Base 6.2.1
 _ZN10Qt3DRender18QAbstractRayCasterD2Ev@Base 6.2.1
 _ZN10Qt3DRender18QCameraLensPrivate20processViewAllResultEN8Qt3DCore7QNodeIdERK9QVector3Df@Base 6.2.1
 _ZN10Qt3DRender18QCameraLensPrivateC1Ev@Base 6.2.1
 _ZN10Qt3DRender18QCameraLensPrivateC2Ev@Base 6.2.1
 _ZN10Qt3DRender18QGraphicsApiFilter10apiChangedENS0_3ApiE@Base 6.2.1
 _ZN10Qt3DRender18QGraphicsApiFilter10setProfileENS0_13OpenGLProfileE@Base 6.2.1
 _ZN10Qt3DRender18QGraphicsApiFilter11qt_metacallEN11QMetaObject4CallEiPPv@Base 6.2.1
 _ZN10Qt3DRender18QGraphicsApiFilter11qt_metacastEPKc@Base 6.2.1
 _ZN10Qt3DRender18QGraphicsApiFilter13setExtensionsERK5QListI7QStringE@Base 6.2.1
 _ZN10Qt3DRender18QGraphicsApiFilter13vendorChangedERK7QString@Base 6.2.1
 _ZN10Qt3DRender18QGraphicsApiFilter14profileChangedENS0_13OpenGLProfileE@Base 6.2.1
 _ZN10Qt3DRender18QGraphicsApiFilter15setMajorVersionEi@Base 6.2.1
 _ZN10Qt3DRender18QGraphicsApiFilter15setMinorVersionEi@Base 6.2.1
 _ZN10Qt3DRender18QGraphicsApiFilter16staticMetaObjectE@Base 6.2.1
 _ZN10Qt3DRender18QGraphicsApiFilter17extensionsChangedERK5QListI7QStringE@Base 6.2.1
 _ZN10Qt3DRender18QGraphicsApiFilter19majorVersionChangedEi@Base 6.2.1
 _ZN10Qt3DRender18QGraphicsApiFilter19minorVersionChangedEi@Base 6.2.1
 _ZN10Qt3DRender18QGraphicsApiFilter24graphicsApiFilterChangedEv@Base 6.2.1
 _ZN10Qt3DRender18QGraphicsApiFilter6setApiENS0_3ApiE@Base 6.2.1
 _ZN10Qt3DRender18QGraphicsApiFilter9setVendorERK7QString@Base 6.2.1
 _ZN10Qt3DRender18QGraphicsApiFilterC1EP7QObject@Base 6.2.1
 _ZN10Qt3DRender18QGraphicsApiFilterC2EP7QObject@Base 6.2.1
 _ZN10Qt3DRender18QGraphicsApiFilterD0Ev@Base 6.2.1
 _ZN10Qt3DRender18QGraphicsApiFilterD1Ev@Base 6.2.1
 _ZN10Qt3DRender18QGraphicsApiFilterD2Ev@Base 6.2.1
 _ZN10Qt3DRender18QPickTriangleEvent11qt_metacallEN11QMetaObject4CallEiPPv@Base 6.2.1
 _ZN10Qt3DRender18QPickTriangleEvent11qt_metacastEPKc@Base 6.2.1
 _ZN10Qt3DRender18QPickTriangleEvent16staticMetaObjectE@Base 6.2.1
 _ZN10Qt3DRender18QPickTriangleEventC1ERK7QPointFRK9QVector3DS6_fjjjj@Base 6.2.1
 _ZN10Qt3DRender18QPickTriangleEventC1ERK7QPointFRK9QVector3DS6_fjjjjNS_10QPickEvent7ButtonsEiiS6_@Base 6.2.1
 _ZN10Qt3DRender18QPickTriangleEventC1Ev@Base 6.2.1
 _ZN10Qt3DRender18QPickTriangleEventC2ERK7QPointFRK9QVector3DS6_fjjjj@Base 6.2.1
 _ZN10Qt3DRender18QPickTriangleEventC2ERK7QPointFRK9QVector3DS6_fjjjjNS_10QPickEvent7ButtonsEiiS6_@Base 6.2.1
 _ZN10Qt3DRender18QPickTriangleEventC2Ev@Base 6.2.1
 _ZN10Qt3DRender18QPickTriangleEventD0Ev@Base 6.2.1
 _ZN10Qt3DRender18QPickTriangleEventD1Ev@Base 6.2.1
 _ZN10Qt3DRender18QPickTriangleEventD2Ev@Base 6.2.1
 _ZN10Qt3DRender18QPointLightPrivateC1Ev@Base 6.2.1
 _ZN10Qt3DRender18QPointLightPrivateC2Ev@Base 6.2.1
 _ZN10Qt3DRender18QSceneExportPlugin11qt_metacallEN11QMetaObject4CallEiPPv@Base 6.2.1
 _ZN10Qt3DRender18QSceneExportPlugin11qt_metacastEPKc@Base 6.2.1
 _ZN10Qt3DRender18QSceneExportPlugin16staticMetaObjectE@Base 6.2.1
 _ZN10Qt3DRender18QSceneExportPlugin6createERK7QStringRK5QListIS1_E@Base 6.2.1
 _ZN10Qt3DRender18QSceneExportPluginC1EP7QObject@Base 6.2.1
 _ZN10Qt3DRender18QSceneExportPluginC2EP7QObject@Base 6.2.1
 _ZN10Qt3DRender18QSceneExportPluginD0Ev@Base 6.2.1
 _ZN10Qt3DRender18QSceneExportPluginD1Ev@Base 6.2.1
 _ZN10Qt3DRender18QSceneExportPluginD2Ev@Base 6.2.1
 _ZN10Qt3DRender18QSceneImportPlugin11qt_metacallEN11QMetaObject4CallEiPPv@Base 6.2.1
 _ZN10Qt3DRender18QSceneImportPlugin11qt_metacastEPKc@Base 6.2.1
 _ZN10Qt3DRender18QSceneImportPlugin16staticMetaObjectE@Base 6.2.1
 _ZN10Qt3DRender18QSceneImportPlugin6createERK7QStringRK5QListIS1_E@Base 6.2.1
 _ZN10Qt3DRender18QSceneImportPluginC1EP7QObject@Base 6.2.1
 _ZN10Qt3DRender18QSceneImportPluginC2EP7QObject@Base 6.2.1
 _ZN10Qt3DRender18QSceneImportPluginD0Ev@Base 6.2.1
 _ZN10Qt3DRender18QSceneImportPluginD1Ev@Base 6.2.1
 _ZN10Qt3DRender18QSceneImportPluginD2Ev@Base 6.2.1
 _ZN10Qt3DRender18QShaderDataPrivateC1E14QSharedPointerINS_23PropertyReaderInterfaceEE@Base 6.2.1
 _ZN10Qt3DRender18QShaderDataPrivateC1Ev@Base 6.2.1
 _ZN10Qt3DRender18QShaderDataPrivateC2E14QSharedPointerINS_23PropertyReaderInterfaceEE@Base 6.2.1
 _ZN10Qt3DRender18QShaderDataPrivateC2Ev@Base 6.2.1
 _ZN10Qt3DRender18QShaderGraphLoader13setPrototypesERK5QHashI7QStringNS_11QShaderNodeEE@Base 6.2.1
 _ZN10Qt3DRender18QShaderGraphLoader4loadEv@Base 6.2.1
 _ZN10Qt3DRender18QShaderGraphLoader9setDeviceEP9QIODevice@Base 6.2.1
 _ZN10Qt3DRender18QShaderGraphLoaderC1Ev@Base 6.2.1
 _ZN10Qt3DRender18QShaderGraphLoaderC2Ev@Base 6.2.1
 _ZN10Qt3DRender18QShaderNodesLoader4loadERK11QJsonObject@Base 6.2.1
 _ZN10Qt3DRender18QShaderNodesLoader4loadEv@Base 6.2.1
 _ZN10Qt3DRender18QShaderNodesLoader9setDeviceEP9QIODevice@Base 6.2.1
 _ZN10Qt3DRender18QShaderNodesLoaderC1Ev@Base 6.2.1
 _ZN10Qt3DRender18QShaderNodesLoaderC2Ev@Base 6.2.1
 _ZN10Qt3DRender18QTextureDataUpdate11setMipLevelEi@Base 6.2.1
 _ZN10Qt3DRender18QTextureDataUpdate4setXEi@Base 6.2.1
 _ZN10Qt3DRender18QTextureDataUpdate4setYEi@Base 6.2.1
 _ZN10Qt3DRender18QTextureDataUpdate4setZEi@Base 6.2.1
 _ZN10Qt3DRender18QTextureDataUpdate7setDataERK14QSharedPointerINS_17QTextureImageDataEE@Base 6.2.1
 _ZN10Qt3DRender18QTextureDataUpdate7setFaceENS_16QAbstractTexture11CubeMapFaceE@Base 6.2.1
 _ZN10Qt3DRender18QTextureDataUpdate8setLayerEi@Base 6.2.1
 _ZN10Qt3DRender18QTextureDataUpdateC1ERKS0_@Base 6.2.1
 _ZN10Qt3DRender18QTextureDataUpdateC1Ev@Base 6.2.1
 _ZN10Qt3DRender18QTextureDataUpdateC2ERKS0_@Base 6.2.1
 _ZN10Qt3DRender18QTextureDataUpdateC2Ev@Base 6.2.1
 _ZN10Qt3DRender18QTextureDataUpdateD1Ev@Base 6.2.1
 _ZN10Qt3DRender18QTextureDataUpdateD2Ev@Base 6.2.1
 _ZN10Qt3DRender18QTextureDataUpdateaSERKS0_@Base 6.2.1
 _ZN10Qt3DRender19QRenderCapabilities11qt_metacallEN11QMetaObject4CallEiPPv@Base 6.2.1
 _ZN10Qt3DRender19QRenderCapabilities11qt_metacastEPKc@Base 6.2.1
 _ZN10Qt3DRender19QRenderCapabilities16staticMetaObjectE@Base 6.2.1
 _ZN10Qt3DRender19QRenderCapabilitiesC1EP7QObject@Base 6.2.1
 _ZN10Qt3DRender19QRenderCapabilitiesC2EP7QObject@Base 6.2.1
 _ZN10Qt3DRender19QRenderCapabilitiesD0Ev@Base 6.2.1
 _ZN10Qt3DRender19QRenderCapabilitiesD1Ev@Base 6.2.1
 _ZN10Qt3DRender19QRenderCapabilitiesD2Ev@Base 6.2.1
 _ZN10Qt3DRender19QRenderCaptureReply11qt_metacallEN11QMetaObject4CallEiPPv@Base 6.2.1
 _ZN10Qt3DRender19QRenderCaptureReply11qt_metacastEPKc@Base 6.2.1
 _ZN10Qt3DRender19QRenderCaptureReply16staticMetaObjectE@Base 6.2.1
 _ZN10Qt3DRender19QRenderCaptureReply9completedEv@Base 6.2.1
 _ZN10Qt3DRender19QRenderCaptureReplyC1EP7QObject@Base 6.2.1
 _ZN10Qt3DRender19QRenderCaptureReplyC2EP7QObject@Base 6.2.1
 _ZN10Qt3DRender19QRenderStatePrivate3getEPKNS_12QRenderStateE@Base 6.2.1
 _ZN10Qt3DRender19QRenderStatePrivate3getEPNS_12QRenderStateE@Base 6.2.1
 _ZN10Qt3DRender19QRenderStatePrivateC1ENS_6Render9StateMaskE@Base 6.2.1
 _ZN10Qt3DRender19QRenderStatePrivateC2ENS_6Render9StateMaskE@Base 6.2.1
 _ZN10Qt3DRender19QRenderStatePrivateD0Ev@Base 6.2.1
 _ZN10Qt3DRender19QRenderStatePrivateD1Ev@Base 6.2.1
 _ZN10Qt3DRender19QRenderStatePrivateD2Ev@Base 6.2.1
 _ZN10Qt3DRender19QRenderTargetOutput10setTextureEPNS_16QAbstractTextureE@Base 6.2.1
 _ZN10Qt3DRender19QRenderTargetOutput11faceChangedENS_16QAbstractTexture11CubeMapFaceE@Base 6.2.1
 _ZN10Qt3DRender19QRenderTargetOutput11qt_metacallEN11QMetaObject4CallEiPPv@Base 6.2.1
 _ZN10Qt3DRender19QRenderTargetOutput11qt_metacastEPKc@Base 6.2.1
 _ZN10Qt3DRender19QRenderTargetOutput11setMipLevelEi@Base 6.2.1
 _ZN10Qt3DRender19QRenderTargetOutput12layerChangedEi@Base 6.2.1
 _ZN10Qt3DRender19QRenderTargetOutput14textureChangedEPNS_16QAbstractTextureE@Base 6.2.1
 _ZN10Qt3DRender19QRenderTargetOutput15mipLevelChangedEi@Base 6.2.1
 _ZN10Qt3DRender19QRenderTargetOutput16staticMetaObjectE@Base 6.2.1
 _ZN10Qt3DRender19QRenderTargetOutput18setAttachmentPointENS0_15AttachmentPointE@Base 6.2.1
 _ZN10Qt3DRender19QRenderTargetOutput22attachmentPointChangedENS0_15AttachmentPointE@Base 6.2.1
 _ZN10Qt3DRender19QRenderTargetOutput7setFaceENS_16QAbstractTexture11CubeMapFaceE@Base 6.2.1
 _ZN10Qt3DRender19QRenderTargetOutput8setLayerEi@Base 6.2.1
 _ZN10Qt3DRender19QRenderTargetOutputC1EPN8Qt3DCore5QNodeE@Base 6.2.1
 _ZN10Qt3DRender19QRenderTargetOutputC1ERNS_26QRenderTargetOutputPrivateEPN8Qt3DCore5QNodeE@Base 6.2.1
 _ZN10Qt3DRender19QRenderTargetOutputC2EPN8Qt3DCore5QNodeE@Base 6.2.1
 _ZN10Qt3DRender19QRenderTargetOutputC2ERNS_26QRenderTargetOutputPrivateEPN8Qt3DCore5QNodeE@Base 6.2.1
 _ZN10Qt3DRender19QRenderTargetOutputD0Ev@Base 6.2.1
 _ZN10Qt3DRender19QRenderTargetOutputD1Ev@Base 6.2.1
 _ZN10Qt3DRender19QRenderTargetOutputD2Ev@Base 6.2.1
 _ZN10Qt3DRender19QSceneExportFactory4keysEv@Base 6.2.4
 _ZN10Qt3DRender19QSceneExportFactory6createERK7QStringRK5QListIS1_E@Base 6.2.4
 _ZN10Qt3DRender19QSceneImportFactory4keysEv@Base 6.2.4
 _ZN10Qt3DRender19QSceneImportFactory6createERK7QStringRK5QListIS1_E@Base 6.2.4
 _ZN10Qt3DRender19QSceneLoaderPrivate12setSceneRootEPN8Qt3DCore7QEntityE@Base 6.2.1
 _ZN10Qt3DRender19QSceneLoaderPrivate17populateEntityMapEPN8Qt3DCore7QEntityE@Base 6.2.1
 _ZN10Qt3DRender19QSceneLoaderPrivate9setStatusENS_12QSceneLoader6StatusE@Base 6.2.1
 _ZN10Qt3DRender19QSceneLoaderPrivateC1Ev@Base 6.2.1
 _ZN10Qt3DRender19QSceneLoaderPrivateC2Ev@Base 6.2.1
 _ZN10Qt3DRender20QLevelOfDetailSwitch11qt_metacallEN11QMetaObject4CallEiPPv@Base 6.2.1
 _ZN10Qt3DRender20QLevelOfDetailSwitch11qt_metacastEPKc@Base 6.2.1
 _ZN10Qt3DRender20QLevelOfDetailSwitch16staticMetaObjectE@Base 6.2.1
 _ZN10Qt3DRender20QLevelOfDetailSwitchC1EPN8Qt3DCore5QNodeE@Base 6.2.1
 _ZN10Qt3DRender20QLevelOfDetailSwitchC1ERNS_21QLevelOfDetailPrivateEPN8Qt3DCore5QNodeE@Base 6.2.1
 _ZN10Qt3DRender20QLevelOfDetailSwitchC2EPN8Qt3DCore5QNodeE@Base 6.2.1
 _ZN10Qt3DRender20QLevelOfDetailSwitchC2ERNS_21QLevelOfDetailPrivateEPN8Qt3DCore5QNodeE@Base 6.2.1
 _ZN10Qt3DRender20QLevelOfDetailSwitchD0Ev@Base 6.2.1
 _ZN10Qt3DRender20QLevelOfDetailSwitchD1Ev@Base 6.2.1
 _ZN10Qt3DRender20QLevelOfDetailSwitchD2Ev@Base 6.2.1
 _ZN10Qt3DRender20QObjectPickerPrivate10movedEventEPNS_10QPickEventE@Base 6.2.1
 _ZN10Qt3DRender20QObjectPickerPrivate10setPressedEb@Base 6.2.1
 _ZN10Qt3DRender20QObjectPickerPrivate12clickedEventEPNS_10QPickEventE@Base 6.2.1
 _ZN10Qt3DRender20QObjectPickerPrivate12pressedEventEPNS_10QPickEventE@Base 6.2.1
 _ZN10Qt3DRender20QObjectPickerPrivate13releasedEventEPNS_10QPickEventE@Base 6.2.1
 _ZN10Qt3DRender20QObjectPickerPrivate14propagateEventEPNS_10QPickEventENS0_9EventTypeE@Base 6.2.1
 _ZN10Qt3DRender20QObjectPickerPrivate16setContainsMouseEb@Base 6.2.1
 _ZN10Qt3DRender20QPaintedTextureImage11qt_metacallEN11QMetaObject4CallEiPPv@Base 6.2.1
 _ZN10Qt3DRender20QPaintedTextureImage11qt_metacastEPKc@Base 6.2.1
 _ZN10Qt3DRender20QPaintedTextureImage11sizeChangedE5QSize@Base 6.2.1
 _ZN10Qt3DRender20QPaintedTextureImage12widthChangedEi@Base 6.2.1
 _ZN10Qt3DRender20QPaintedTextureImage13heightChangedEi@Base 6.2.1
 _ZN10Qt3DRender20QPaintedTextureImage16staticMetaObjectE@Base 6.2.1
 _ZN10Qt3DRender20QPaintedTextureImage6updateERK5QRect@Base 6.2.1
 _ZN10Qt3DRender20QPaintedTextureImage7setSizeE5QSize@Base 6.2.1
 _ZN10Qt3DRender20QPaintedTextureImage8setWidthEi@Base 6.2.1
 _ZN10Qt3DRender20QPaintedTextureImage9setHeightEi@Base 6.2.1
 _ZN10Qt3DRender20QPaintedTextureImageC1EPN8Qt3DCore5QNodeE@Base 6.2.1
 _ZN10Qt3DRender20QPaintedTextureImageC2EPN8Qt3DCore5QNodeE@Base 6.2.1
 _ZN10Qt3DRender20QPaintedTextureImageD0Ev@Base 6.2.1
 _ZN10Qt3DRender20QPaintedTextureImageD1Ev@Base 6.2.1
 _ZN10Qt3DRender20QPaintedTextureImageD2Ev@Base 6.2.1
 _ZN10Qt3DRender20QPickingProxyPrivate7setViewEPN8Qt3DCore13QGeometryViewE@Base 6.2.1
 _ZN10Qt3DRender20QPickingProxyPrivateC1Ev@Base 6.2.1
 _ZN10Qt3DRender20QPickingProxyPrivateC2Ev@Base 6.2.1
 _ZN10Qt3DRender20QPickingProxyPrivateD0Ev@Base 6.2.1
 _ZN10Qt3DRender20QPickingProxyPrivateD1Ev@Base 6.2.1
 _ZN10Qt3DRender20QPickingProxyPrivateD2Ev@Base 6.2.1
 _ZN10Qt3DRender20QRenderAspectPrivate11findPrivateEPN8Qt3DCore13QAspectEngineE@Base 6.2.1
 _ZN10Qt3DRender20QRenderAspectPrivate11m_instancesE@Base 6.2.1
 _ZN10Qt3DRender20QRenderAspectPrivate12m_pluginLockE@Base 6.2.1
 _ZN10Qt3DRender20QRenderAspectPrivate14m_pluginConfigE@Base 6.2.1
 _ZN10Qt3DRender20QRenderAspectPrivate15configurePluginERK7QString@Base 6.2.1
 _ZN10Qt3DRender20QRenderAspectPrivate15onEngineStartupEv@Base 6.2.1
 _ZN10Qt3DRender20QRenderAspectPrivate15processKeyEventEP7QObjectP9QKeyEvent@Base 6.2.1
 _ZN10Qt3DRender20QRenderAspectPrivate16loadRenderPluginERK7QString@Base 6.2.1
 _ZN10Qt3DRender20QRenderAspectPrivate16loadSceneParsersEv@Base 6.2.1
 _ZN10Qt3DRender20QRenderAspectPrivate17processMouseEventEP7QObjectP11QMouseEvent@Base 6.2.1
 _ZN10Qt3DRender20QRenderAspectPrivate18createNodeManagersEv@Base 6.2.1
 _ZN10Qt3DRender20QRenderAspectPrivate18loadRendererPluginEv@Base 6.2.1
 _ZN10Qt3DRender20QRenderAspectPrivate19registerBackendTypeERK11QMetaObjectRK14QSharedPointerIN8Qt3DCore18QBackendNodeMapperEE@Base 6.2.1
 _ZN10Qt3DRender20QRenderAspectPrivate20registerBackendTypesEv@Base 6.2.1
 _ZN10Qt3DRender20QRenderAspectPrivate22unregisterBackendTypesEv@Base 6.2.1
 _ZN10Qt3DRender20QRenderAspectPrivate23onEngineAboutToShutdownEv@Base 6.2.1
 _ZN10Qt3DRender20QRenderAspectPrivate3getEPNS_13QRenderAspectE@Base 6.2.1
 _ZN10Qt3DRender20QRenderAspectPrivate8jobsDoneEv@Base 6.2.1
 _ZN10Qt3DRender20QRenderAspectPrivate9frameDoneEv@Base 6.2.1
 _ZN10Qt3DRender20QRenderAspectPrivateC1ENS_13QRenderAspect14SubmissionTypeE@Base 6.2.1
 _ZN10Qt3DRender20QRenderAspectPrivateC2ENS_13QRenderAspect14SubmissionTypeE@Base 6.2.1
 _ZN10Qt3DRender20QRenderAspectPrivateD0Ev@Base 6.2.1
 _ZN10Qt3DRender20QRenderAspectPrivateD1Ev@Base 6.2.1
 _ZN10Qt3DRender20QRenderAspectPrivateD2Ev@Base 6.2.1
 _ZN10Qt3DRender20QRenderTargetPrivateC1Ev@Base 6.2.1
 _ZN10Qt3DRender20QRenderTargetPrivateC2Ev@Base 6.2.1
 _ZN10Qt3DRender20QTextureCubeMapArray11qt_metacallEN11QMetaObject4CallEiPPv@Base 6.2.1
 _ZN10Qt3DRender20QTextureCubeMapArray11qt_metacastEPKc@Base 6.2.1
 _ZN10Qt3DRender20QTextureCubeMapArray16staticMetaObjectE@Base 6.2.1
 _ZN10Qt3DRender20QTextureCubeMapArrayC1EPN8Qt3DCore5QNodeE@Base 6.2.1
 _ZN10Qt3DRender20QTextureCubeMapArrayC2EPN8Qt3DCore5QNodeE@Base 6.2.1
 _ZN10Qt3DRender20QTextureCubeMapArrayD0Ev@Base 6.2.1
 _ZN10Qt3DRender20QTextureCubeMapArrayD1Ev@Base 6.2.1
 _ZN10Qt3DRender20QTextureCubeMapArrayD2Ev@Base 6.2.1
 _ZN10Qt3DRender21GraphicsApiFilterDataC1Ev@Base 6.2.1
 _ZN10Qt3DRender21GraphicsApiFilterDataC2Ev@Base 6.2.1
 _ZN10Qt3DRender21QAbstractLightPrivateC1ENS_14QAbstractLight4TypeE@Base 6.2.1
 _ZN10Qt3DRender21QAbstractLightPrivateC2ENS_14QAbstractLight4TypeE@Base 6.2.1
 _ZN10Qt3DRender21QAbstractLightPrivateD0Ev@Base 6.2.1
 _ZN10Qt3DRender21QAbstractLightPrivateD1Ev@Base 6.2.1
 _ZN10Qt3DRender21QAbstractLightPrivateD2Ev@Base 6.2.1
 _ZN10Qt3DRender21QAbstractTextureImage11faceChangedENS_16QAbstractTexture11CubeMapFaceE@Base 6.2.1
 _ZN10Qt3DRender21QAbstractTextureImage11qt_metacallEN11QMetaObject4CallEiPPv@Base 6.2.1
 _ZN10Qt3DRender21QAbstractTextureImage11qt_metacastEPKc@Base 6.2.1
 _ZN10Qt3DRender21QAbstractTextureImage11setMipLevelEi@Base 6.2.1
 _ZN10Qt3DRender21QAbstractTextureImage12layerChangedEi@Base 6.2.1
 _ZN10Qt3DRender21QAbstractTextureImage15mipLevelChangedEi@Base 6.2.1
 _ZN10Qt3DRender21QAbstractTextureImage16staticMetaObjectE@Base 6.2.1
 _ZN10Qt3DRender21QAbstractTextureImage26notifyDataGeneratorChangedEv@Base 6.2.1
 _ZN10Qt3DRender21QAbstractTextureImage7setFaceENS_16QAbstractTexture11CubeMapFaceE@Base 6.2.1
 _ZN10Qt3DRender21QAbstractTextureImage8setLayerEi@Base 6.2.1
 _ZN10Qt3DRender21QAbstractTextureImageC1EPN8Qt3DCore5QNodeE@Base 6.2.1
 _ZN10Qt3DRender21QAbstractTextureImageC1ERNS_28QAbstractTextureImagePrivateEPN8Qt3DCore5QNodeE@Base 6.2.1
 _ZN10Qt3DRender21QAbstractTextureImageC2EPN8Qt3DCore5QNodeE@Base 6.2.1
 _ZN10Qt3DRender21QAbstractTextureImageC2ERNS_28QAbstractTextureImagePrivateEPN8Qt3DCore5QNodeE@Base 6.2.1
 _ZN10Qt3DRender21QAbstractTextureImageD0Ev@Base 6.2.1
 _ZN10Qt3DRender21QAbstractTextureImageD1Ev@Base 6.2.1
 _ZN10Qt3DRender21QAbstractTextureImageD2Ev@Base 6.2.1
 _ZN10Qt3DRender21QLevelOfDetailPrivate15setCurrentIndexEi@Base 6.2.1
 _ZN10Qt3DRender21QLevelOfDetailPrivateC1Ev@Base 6.2.1
 _ZN10Qt3DRender21QLevelOfDetailPrivateC2Ev@Base 6.2.1
 _ZN10Qt3DRender21QRenderTargetSelector11qt_metacallEN11QMetaObject4CallEiPPv@Base 6.2.1
 _ZN10Qt3DRender21QRenderTargetSelector11qt_metacastEPKc@Base 6.2.1
 _ZN10Qt3DRender21QRenderTargetSelector13targetChangedEPNS_13QRenderTargetE@Base 6.2.1
 _ZN10Qt3DRender21QRenderTargetSelector16staticMetaObjectE@Base 6.2.1
 _ZN10Qt3DRender21QRenderTargetSelector9setTargetEPNS_13QRenderTargetE@Base 6.2.1
 _ZN10Qt3DRender21QRenderTargetSelectorC1EPN8Qt3DCore5QNodeE@Base 6.2.1
 _ZN10Qt3DRender21QRenderTargetSelectorC1ERNS_28QRenderTargetSelectorPrivateEPN8Qt3DCore5QNodeE@Base 6.2.1
 _ZN10Qt3DRender21QRenderTargetSelectorC2EPN8Qt3DCore5QNodeE@Base 6.2.1
 _ZN10Qt3DRender21QRenderTargetSelectorC2ERNS_28QRenderTargetSelectorPrivateEPN8Qt3DCore5QNodeE@Base 6.2.1
 _ZN10Qt3DRender21QRenderTargetSelectorD0Ev@Base 6.2.1
 _ZN10Qt3DRender21QRenderTargetSelectorD1Ev@Base 6.2.1
 _ZN10Qt3DRender21QRenderTargetSelectorD2Ev@Base 6.2.1
 _ZN10Qt3DRender21QShaderProgramBuilder11qt_metacallEN11QMetaObject4CallEiPPv@Base 6.2.1
 _ZN10Qt3DRender21QShaderProgramBuilder11qt_metacastEPKc@Base 6.2.1
 _ZN10Qt3DRender21QShaderProgramBuilder16setEnabledLayersERK5QListI7QStringE@Base 6.2.1
 _ZN10Qt3DRender21QShaderProgramBuilder16setShaderProgramEPNS_14QShaderProgramE@Base 6.2.1
 _ZN10Qt3DRender21QShaderProgramBuilder16staticMetaObjectE@Base 6.2.1
 _ZN10Qt3DRender21QShaderProgramBuilder20enabledLayersChangedERK5QListI7QStringE@Base 6.2.1
 _ZN10Qt3DRender21QShaderProgramBuilder20setVertexShaderGraphERK4QUrl@Base 6.2.1
 _ZN10Qt3DRender21QShaderProgramBuilder20shaderProgramChangedEPNS_14QShaderProgramE@Base 6.2.1
 _ZN10Qt3DRender21QShaderProgramBuilder21setComputeShaderGraphERK4QUrl@Base 6.2.1
 _ZN10Qt3DRender21QShaderProgramBuilder22setFragmentShaderGraphERK4QUrl@Base 6.2.1
 _ZN10Qt3DRender21QShaderProgramBuilder22setGeometryShaderGraphERK4QUrl@Base 6.2.1
 _ZN10Qt3DRender21QShaderProgramBuilder23vertexShaderCodeChangedERK10QByteArray@Base 6.2.1
 _ZN10Qt3DRender21QShaderProgramBuilder24computeShaderCodeChangedERK10QByteArray@Base 6.2.1
 _ZN10Qt3DRender21QShaderProgramBuilder24vertexShaderGraphChangedERK4QUrl@Base 6.2.1
 _ZN10Qt3DRender21QShaderProgramBuilder25computeShaderGraphChangedERK4QUrl@Base 6.2.1
 _ZN10Qt3DRender21QShaderProgramBuilder25fragmentShaderCodeChangedERK10QByteArray@Base 6.2.1
 _ZN10Qt3DRender21QShaderProgramBuilder25geometryShaderCodeChangedERK10QByteArray@Base 6.2.1
 _ZN10Qt3DRender21QShaderProgramBuilder26fragmentShaderGraphChangedERK4QUrl@Base 6.2.1
 _ZN10Qt3DRender21QShaderProgramBuilder26geometryShaderGraphChangedERK4QUrl@Base 6.2.1
 _ZN10Qt3DRender21QShaderProgramBuilder33setTessellationControlShaderGraphERK4QUrl@Base 6.2.1
 _ZN10Qt3DRender21QShaderProgramBuilder36setTessellationEvaluationShaderGraphERK4QUrl@Base 6.2.1
 _ZN10Qt3DRender21QShaderProgramBuilder36tessellationControlShaderCodeChangedERK10QByteArray@Base 6.2.1
 _ZN10Qt3DRender21QShaderProgramBuilder37tessellationControlShaderGraphChangedERK4QUrl@Base 6.2.1
 _ZN10Qt3DRender21QShaderProgramBuilder39tessellationEvaluationShaderCodeChangedERK10QByteArray@Base 6.2.1
 _ZN10Qt3DRender21QShaderProgramBuilder40tessellationEvaluationShaderGraphChangedERK4QUrl@Base 6.2.1
 _ZN10Qt3DRender21QShaderProgramBuilderC1EPN8Qt3DCore5QNodeE@Base 6.2.1
 _ZN10Qt3DRender21QShaderProgramBuilderC1ERNS_28QShaderProgramBuilderPrivateEPN8Qt3DCore5QNodeE@Base 6.2.1
 _ZN10Qt3DRender21QShaderProgramBuilderC2EPN8Qt3DCore5QNodeE@Base 6.2.1
 _ZN10Qt3DRender21QShaderProgramBuilderC2ERNS_28QShaderProgramBuilderPrivateEPN8Qt3DCore5QNodeE@Base 6.2.1
 _ZN10Qt3DRender21QShaderProgramBuilderD0Ev@Base 6.2.1
 _ZN10Qt3DRender21QShaderProgramBuilderD1Ev@Base 6.2.1
 _ZN10Qt3DRender21QShaderProgramBuilderD2Ev@Base 6.2.1
 _ZN10Qt3DRender21QShaderProgramPrivate11deincludifyERK10QByteArrayRK7QString@Base 6.2.1
 _ZN10Qt3DRender21QShaderProgramPrivate11deincludifyERK7QString@Base 6.2.1
 _ZN10Qt3DRender21QShaderProgramPrivate25resolveAutoBindingIndicesERK10QByteArray@Base 6.2.1
 _ZN10Qt3DRender21QShaderProgramPrivate25resolveAutoBindingIndicesERK10QByteArrayRiS4_S4_@Base 6.2.1
 _ZN10Qt3DRender21QShaderProgramPrivate6setLogERK7QString@Base 6.2.1
 _ZN10Qt3DRender21QShaderProgramPrivate9setStatusENS_14QShaderProgram6StatusE@Base 6.2.1
 _ZN10Qt3DRender21QShaderProgramPrivateC1Ev@Base 6.2.1
 _ZN10Qt3DRender21QShaderProgramPrivateC2Ev@Base 6.2.1
 _ZN10Qt3DRender21QStencilTestArguments11qt_metacallEN11QMetaObject4CallEiPPv@Base 6.2.1
 _ZN10Qt3DRender21QStencilTestArguments11qt_metacastEPKc@Base 6.2.1
 _ZN10Qt3DRender21QStencilTestArguments15faceModeChangedENS0_15StencilFaceModeE@Base 6.2.1
 _ZN10Qt3DRender21QStencilTestArguments16staticMetaObjectE@Base 6.2.1
 _ZN10Qt3DRender21QStencilTestArguments17setComparisonMaskEj@Base 6.2.1
 _ZN10Qt3DRender21QStencilTestArguments17setReferenceValueEi@Base 6.2.1
 _ZN10Qt3DRender21QStencilTestArguments18setStencilFunctionENS0_15StencilFunctionE@Base 6.2.1
 _ZN10Qt3DRender21QStencilTestArguments21comparisonMaskChangedEj@Base 6.2.1
 _ZN10Qt3DRender21QStencilTestArguments21referenceValueChangedEi@Base 6.2.1
 _ZN10Qt3DRender21QStencilTestArguments22stencilFunctionChangedENS0_15StencilFunctionE@Base 6.2.1
 _ZN10Qt3DRender21QStencilTestArgumentsC1ENS0_15StencilFaceModeEP7QObject@Base 6.2.1
 _ZN10Qt3DRender21QStencilTestArgumentsC2ENS0_15StencilFaceModeEP7QObject@Base 6.2.1
 _ZN10Qt3DRender21QStencilTestArgumentsD0Ev@Base 6.2.1
 _ZN10Qt3DRender21QStencilTestArgumentsD1Ev@Base 6.2.1
 _ZN10Qt3DRender21QStencilTestArgumentsD2Ev@Base 6.2.1
 _ZN10Qt3DRender21QTexture2DMultisample11qt_metacallEN11QMetaObject4CallEiPPv@Base 6.2.1
 _ZN10Qt3DRender21QTexture2DMultisample11qt_metacastEPKc@Base 6.2.1
 _ZN10Qt3DRender21QTexture2DMultisample16staticMetaObjectE@Base 6.2.1
 _ZN10Qt3DRender21QTexture2DMultisampleC1EPN8Qt3DCore5QNodeE@Base 6.2.1
 _ZN10Qt3DRender21QTexture2DMultisampleC2EPN8Qt3DCore5QNodeE@Base 6.2.1
 _ZN10Qt3DRender21QTexture2DMultisampleD0Ev@Base 6.2.1
 _ZN10Qt3DRender21QTexture2DMultisampleD1Ev@Base 6.2.1
 _ZN10Qt3DRender21QTexture2DMultisampleD2Ev@Base 6.2.1
 _ZN10Qt3DRender21QTextureLoaderPrivate15updateGeneratorEv@Base 6.2.1
 _ZN10Qt3DRender21QTextureLoaderPrivate8setSceneEPN8Qt3DCore6QSceneE@Base 6.2.1
 _ZN10Qt3DRender21QTextureLoaderPrivateC1Ev@Base 6.2.1
 _ZN10Qt3DRender21QTextureLoaderPrivateC2Ev@Base 6.2.1
 _ZN10Qt3DRender22QComputeCommandPrivate13setFrameCountEi@Base 6.2.1
 _ZN10Qt3DRender22QComputeCommandPrivateC1Ev@Base 6.2.1
 _ZN10Qt3DRender22QComputeCommandPrivateC2Ev@Base 6.2.1
 _ZN10Qt3DRender22QFrameGraphNodePrivateC1Ev@Base 6.2.1
 _ZN10Qt3DRender22QFrameGraphNodePrivateC2Ev@Base 6.2.1
 _ZN10Qt3DRender22QGeometryLoaderFactory11qt_metacallEN11QMetaObject4CallEiPPv@Base 6.2.1
 _ZN10Qt3DRender22QGeometryLoaderFactory11qt_metacastEPKc@Base 6.2.1
 _ZN10Qt3DRender22QGeometryLoaderFactory16staticMetaObjectE@Base 6.2.1
 _ZN10Qt3DRender22QGeometryLoaderFactoryC1EP7QObject@Base 6.2.1
 _ZN10Qt3DRender22QGeometryLoaderFactoryC2EP7QObject@Base 6.2.1
 _ZN10Qt3DRender22QGeometryLoaderFactoryD0Ev@Base 6.2.1
 _ZN10Qt3DRender22QGeometryLoaderFactoryD1Ev@Base 6.2.1
 _ZN10Qt3DRender22QGeometryLoaderFactoryD2Ev@Base 6.2.1
 _ZN10Qt3DRender22QRenderSettingsPrivate15invalidateFrameEv@Base 6.2.1
 _ZN10Qt3DRender22QRenderSettingsPrivate25_q_onPickingMethodChangedENS_16QPickingSettings10PickMethodE@Base 6.2.1
 _ZN10Qt3DRender22QRenderSettingsPrivate26_q_onPickResultModeChangedENS_16QPickingSettings14PickResultModeE@Base 6.2.1
 _ZN10Qt3DRender22QRenderSettingsPrivate31_q_onWorldSpaceToleranceChangedEf@Base 6.2.1
 _ZN10Qt3DRender22QRenderSettingsPrivate38_q_onFaceOrientationPickingModeChangedENS_16QPickingSettings26FaceOrientationPickingModeE@Base 6.2.1
 _ZN10Qt3DRender22QRenderSettingsPrivate4initEv@Base 6.2.1
 _ZN10Qt3DRender22QRenderSettingsPrivateC1Ev@Base 6.2.1
 _ZN10Qt3DRender22QRenderSettingsPrivateC2Ev@Base 6.2.1
 _ZN10Qt3DRender22QRenderSurfaceSelector10setSurfaceEP7QObject@Base 6.2.1
 _ZN10Qt3DRender22QRenderSurfaceSelector11qt_metacallEN11QMetaObject4CallEiPPv@Base 6.2.1
 _ZN10Qt3DRender22QRenderSurfaceSelector11qt_metacastEPKc@Base 6.2.1
 _ZN10Qt3DRender22QRenderSurfaceSelector14surfaceChangedEP7QObject@Base 6.2.1
 _ZN10Qt3DRender22QRenderSurfaceSelector16staticMetaObjectE@Base 6.2.1
 _ZN10Qt3DRender22QRenderSurfaceSelector20setSurfacePixelRatioEf@Base 6.2.1
 _ZN10Qt3DRender22QRenderSurfaceSelector24surfacePixelRatioChangedEf@Base 6.2.1
 _ZN10Qt3DRender22QRenderSurfaceSelector27setExternalRenderTargetSizeERK5QSize@Base 6.2.1
 _ZN10Qt3DRender22QRenderSurfaceSelector31externalRenderTargetSizeChangedERK5QSize@Base 6.2.1
 _ZN10Qt3DRender22QRenderSurfaceSelectorC1EPN8Qt3DCore5QNodeE@Base 6.2.1
 _ZN10Qt3DRender22QRenderSurfaceSelectorC1ERNS_29QRenderSurfaceSelectorPrivateEPN8Qt3DCore5QNodeE@Base 6.2.1
 _ZN10Qt3DRender22QRenderSurfaceSelectorC2EPN8Qt3DCore5QNodeE@Base 6.2.1
 _ZN10Qt3DRender22QRenderSurfaceSelectorC2ERNS_29QRenderSurfaceSelectorPrivateEPN8Qt3DCore5QNodeE@Base 6.2.1
 _ZN10Qt3DRender22QRenderSurfaceSelectorD0Ev@Base 6.2.1
 _ZN10Qt3DRender22QRenderSurfaceSelectorD1Ev@Base 6.2.1
 _ZN10Qt3DRender22QRenderSurfaceSelectorD2Ev@Base 6.2.1
 _ZN10Qt3DRender23PropertyReaderInterfaceD0Ev@Base 6.2.1
 _ZN10Qt3DRender23PropertyReaderInterfaceD1Ev@Base 6.2.1
 _ZN10Qt3DRender23PropertyReaderInterfaceD2Ev@Base 6.2.1
 _ZN10Qt3DRender23QAbstractTexturePrivate13setHandleTypeENS_16QAbstractTexture10HandleTypeE@Base 6.2.1
 _ZN10Qt3DRender23QAbstractTexturePrivate14setDataFunctorERK14QSharedPointerINS_17QTextureGeneratorEE@Base 6.2.1
 _ZN10Qt3DRender23QAbstractTexturePrivate9setHandleERK8QVariant@Base 6.2.1
 _ZN10Qt3DRender23QAbstractTexturePrivate9setStatusENS_16QAbstractTexture6StatusE@Base 6.2.1
 _ZN10Qt3DRender23QAbstractTexturePrivateC1Ev@Base 6.2.1
 _ZN10Qt3DRender23QAbstractTexturePrivateC2Ev@Base 6.2.1
 _ZN10Qt3DRender23QAxisAlignedBoundingBox6updateERKSt6vectorI9QVector3DSaIS2_EE@Base 6.2.1
 _ZN10Qt3DRender23QBlendEquationArguments11qt_metacallEN11QMetaObject4CallEiPPv@Base 6.2.1
 _ZN10Qt3DRender23QBlendEquationArguments11qt_metacastEPKc@Base 6.2.1
 _ZN10Qt3DRender23QBlendEquationArguments12setSourceRgbENS0_8BlendingE@Base 6.2.1
 _ZN10Qt3DRender23QBlendEquationArguments13setSourceRgbaENS0_8BlendingE@Base 6.2.1
 _ZN10Qt3DRender23QBlendEquationArguments14setBufferIndexEi@Base 6.2.1
 _ZN10Qt3DRender23QBlendEquationArguments14setSourceAlphaENS0_8BlendingE@Base 6.2.1
 _ZN10Qt3DRender23QBlendEquationArguments16sourceRgbChangedENS0_8BlendingE@Base 6.2.1
 _ZN10Qt3DRender23QBlendEquationArguments16staticMetaObjectE@Base 6.2.1
 _ZN10Qt3DRender23QBlendEquationArguments17setDestinationRgbENS0_8BlendingE@Base 6.2.1
 _ZN10Qt3DRender23QBlendEquationArguments17sourceRgbaChangedENS0_8BlendingE@Base 6.2.1
 _ZN10Qt3DRender23QBlendEquationArguments18bufferIndexChangedEi@Base 6.2.1
 _ZN10Qt3DRender23QBlendEquationArguments18setDestinationRgbaENS0_8BlendingE@Base 6.2.1
 _ZN10Qt3DRender23QBlendEquationArguments18sourceAlphaChangedENS0_8BlendingE@Base 6.2.1
 _ZN10Qt3DRender23QBlendEquationArguments19setDestinationAlphaENS0_8BlendingE@Base 6.2.1
 _ZN10Qt3DRender23QBlendEquationArguments21destinationRgbChangedENS0_8BlendingE@Base 6.2.1
 _ZN10Qt3DRender23QBlendEquationArguments22destinationRgbaChangedENS0_8BlendingE@Base 6.2.1
 _ZN10Qt3DRender23QBlendEquationArguments23destinationAlphaChangedENS0_8BlendingE@Base 6.2.1
 _ZN10Qt3DRender23QBlendEquationArgumentsC1EPN8Qt3DCore5QNodeE@Base 6.2.1
 _ZN10Qt3DRender23QBlendEquationArgumentsC1ERNS_30QBlendEquationArgumentsPrivateEPN8Qt3DCore5QNodeE@Base 6.2.1
 _ZN10Qt3DRender23QBlendEquationArgumentsC2EPN8Qt3DCore5QNodeE@Base 6.2.1
 _ZN10Qt3DRender23QBlendEquationArgumentsC2ERNS_30QBlendEquationArgumentsPrivateEPN8Qt3DCore5QNodeE@Base 6.2.1
 _ZN10Qt3DRender23QBlendEquationArgumentsD0Ev@Base 6.2.1
 _ZN10Qt3DRender23QBlendEquationArgumentsD1Ev@Base 6.2.1
 _ZN10Qt3DRender23QBlendEquationArgumentsD2Ev@Base 6.2.1
 _ZN10Qt3DRender23QPickingSettingsPrivateC1Ev@Base 6.2.1
 _ZN10Qt3DRender23QPickingSettingsPrivateC2Ev@Base 6.2.1
 _ZN10Qt3DRender23QTechniqueFilterPrivateC1Ev@Base 6.2.1
 _ZN10Qt3DRender23QTechniqueFilterPrivateC2Ev@Base 6.2.1
 _ZN10Qt3DRender24QDirectionalLightPrivateC1Ev@Base 6.2.1
 _ZN10Qt3DRender24QDirectionalLightPrivateC2Ev@Base 6.2.1
 _ZN10Qt3DRender24QEnvironmentLightPrivate20_q_updateEnvMapsSizeEv@Base 6.2.1
 _ZN10Qt3DRender24QEnvironmentLightPrivateC1Ev@Base 6.2.1
 _ZN10Qt3DRender24QEnvironmentLightPrivateC2Ev@Base 6.2.1
 _ZN10Qt3DRender24QEnvironmentLightPrivateD0Ev@Base 6.2.1
 _ZN10Qt3DRender24QEnvironmentLightPrivateD1Ev@Base 6.2.1
 _ZN10Qt3DRender24QEnvironmentLightPrivateD2Ev@Base 6.2.1
 _ZN10Qt3DRender24QGeometryRendererPrivate7setViewEPN8Qt3DCore13QGeometryViewE@Base 6.2.1
 _ZN10Qt3DRender24QGeometryRendererPrivateC1Ev@Base 6.2.1
 _ZN10Qt3DRender24QGeometryRendererPrivateC2Ev@Base 6.2.1
 _ZN10Qt3DRender24QGeometryRendererPrivateD0Ev@Base 6.2.1
 _ZN10Qt3DRender24QGeometryRendererPrivateD1Ev@Base 6.2.1
 _ZN10Qt3DRender24QGeometryRendererPrivateD2Ev@Base 6.2.1
 _ZN10Qt3DRender24QMultiSampleAntiAliasing11qt_metacallEN11QMetaObject4CallEiPPv@Base 6.2.1
 _ZN10Qt3DRender24QMultiSampleAntiAliasing11qt_metacastEPKc@Base 6.2.1
 _ZN10Qt3DRender24QMultiSampleAntiAliasing16staticMetaObjectE@Base 6.2.1
 _ZN10Qt3DRender24QMultiSampleAntiAliasingC1EPN8Qt3DCore5QNodeE@Base 6.2.1
 _ZN10Qt3DRender24QMultiSampleAntiAliasingC2EPN8Qt3DCore5QNodeE@Base 6.2.1
 _ZN10Qt3DRender24QMultiSampleAntiAliasingD0Ev@Base 6.2.1
 _ZN10Qt3DRender24QMultiSampleAntiAliasingD1Ev@Base 6.2.1
 _ZN10Qt3DRender24QMultiSampleAntiAliasingD2Ev@Base 6.2.1
 _ZN10Qt3DRender24QStencilOperationPrivateD0Ev@Base 6.2.1
 _ZN10Qt3DRender24QStencilOperationPrivateD1Ev@Base 6.2.1
 _ZN10Qt3DRender24QStencilOperationPrivateD2Ev@Base 6.2.1
 _ZN10Qt3DRender24QTextureImageDataPrivate3getEPNS_17QTextureImageDataE@Base 6.2.1
 _ZN10Qt3DRender24QTextureImageDataPrivate7setDataERK10QByteArraySt8functionIFS1_S1_iiiEEb@Base 6.2.1
 _ZN10Qt3DRender24QTextureImageDataPrivate7setDataERK10QByteArrayib@Base 6.2.1
 _ZN10Qt3DRender24QTextureImageDataPrivateC1Ev@Base 6.2.1
 _ZN10Qt3DRender24QTextureImageDataPrivateC2Ev@Base 6.2.1
 _ZN10Qt3DRender25QAbstractRayCasterPrivate12dispatchHitsERK5QListINS_13QRayCasterHitEE@Base 6.2.1
 _ZN10Qt3DRender25QAbstractRayCasterPrivate16updateHitEntitesER5QListINS_13QRayCasterHitEEPN8Qt3DCore6QSceneE@Base 6.2.1
 _ZN10Qt3DRender25QAbstractRayCasterPrivate3getEPKNS_18QAbstractRayCasterE@Base 6.2.1
 _ZN10Qt3DRender25QAbstractRayCasterPrivate3getEPNS_18QAbstractRayCasterE@Base 6.2.1
 _ZN10Qt3DRender25QAbstractRayCasterPrivate4pickEv@Base 6.2.1
 _ZN10Qt3DRender25QAbstractRayCasterPrivateC1Ev@Base 6.2.1
 _ZN10Qt3DRender25QAbstractRayCasterPrivateC2Ev@Base 6.2.1
 _ZN10Qt3DRender25QGraphicsApiFilterPrivate3getEPKNS_18QGraphicsApiFilterE@Base 6.2.1
 _ZN10Qt3DRender25QGraphicsApiFilterPrivate3getEPNS_18QGraphicsApiFilterE@Base 6.2.1
 _ZN10Qt3DRender25QPickTriangleEventPrivate3getEPKNS_18QPickTriangleEventE@Base 6.2.1
 _ZN10Qt3DRender25QPickTriangleEventPrivateC1Ev@Base 6.2.1
 _ZN10Qt3DRender25QPickTriangleEventPrivateC2Ev@Base 6.2.1
 _ZN10Qt3DRender26QRenderCapabilitiesPrivate3getEPKNS_19QRenderCapabilitiesE@Base 6.2.1
 _ZN10Qt3DRender26QRenderCapabilitiesPrivateC1Ev@Base 6.2.1
 _ZN10Qt3DRender26QRenderCapabilitiesPrivateC2Ev@Base 6.2.1
 _ZN10Qt3DRender26QRenderTargetOutputPrivateC1Ev@Base 6.2.1
 _ZN10Qt3DRender26QRenderTargetOutputPrivateC2Ev@Base 6.2.1
 _ZN10Qt3DRender26QStencilOperationArguments11qt_metacallEN11QMetaObject4CallEiPPv@Base 6.2.1
 _ZN10Qt3DRender26QStencilOperationArguments11qt_metacastEPKc@Base 6.2.1
 _ZN10Qt3DRender26QStencilOperationArguments15faceModeChangedENS0_8FaceModeE@Base 6.2.1
 _ZN10Qt3DRender26QStencilOperationArguments16staticMetaObjectE@Base 6.2.1
 _ZN10Qt3DRender26QStencilOperationArguments24setAllTestsPassOperationENS0_9OperationE@Base 6.2.1
 _ZN10Qt3DRender26QStencilOperationArguments28allTestsPassOperationChangedENS0_9OperationE@Base 6.2.1
 _ZN10Qt3DRender26QStencilOperationArguments28setDepthTestFailureOperationENS0_9OperationE@Base 6.2.1
 _ZN10Qt3DRender26QStencilOperationArguments30setStencilTestFailureOperationENS0_9OperationE@Base 6.2.1
 _ZN10Qt3DRender26QStencilOperationArguments32depthTestFailureOperationChangedENS0_9OperationE@Base 6.2.1
 _ZN10Qt3DRender26QStencilOperationArguments34stencilTestFailureOperationChangedENS0_9OperationE@Base 6.2.1
 _ZN10Qt3DRender26QStencilOperationArgumentsC1ENS0_8FaceModeEP7QObject@Base 6.2.1
 _ZN10Qt3DRender26QStencilOperationArgumentsC2ENS0_8FaceModeEP7QObject@Base 6.2.1
 _ZN10Qt3DRender26QStencilOperationArgumentsD0Ev@Base 6.2.1
 _ZN10Qt3DRender26QStencilOperationArgumentsD1Ev@Base 6.2.1
 _ZN10Qt3DRender26QStencilOperationArgumentsD2Ev@Base 6.2.1
 _ZN10Qt3DRender26QTexture2DMultisampleArray11qt_metacallEN11QMetaObject4CallEiPPv@Base 6.2.1
 _ZN10Qt3DRender26QTexture2DMultisampleArray11qt_metacastEPKc@Base 6.2.1
 _ZN10Qt3DRender26QTexture2DMultisampleArray16staticMetaObjectE@Base 6.2.1
 _ZN10Qt3DRender26QTexture2DMultisampleArrayC1EPN8Qt3DCore5QNodeE@Base 6.2.1
 _ZN10Qt3DRender26QTexture2DMultisampleArrayC2EPN8Qt3DCore5QNodeE@Base 6.2.1
 _ZN10Qt3DRender26QTexture2DMultisampleArrayD0Ev@Base 6.2.1
 _ZN10Qt3DRender26QTexture2DMultisampleArrayD1Ev@Base 6.2.1
 _ZN10Qt3DRender26QTexture2DMultisampleArrayD2Ev@Base 6.2.1
 _ZN10Qt3DRender26QTextureImageDataGeneratorD0Ev@Base 6.2.1
 _ZN10Qt3DRender26QTextureImageDataGeneratorD1Ev@Base 6.2.1
 _ZN10Qt3DRender26QTextureImageDataGeneratorD2Ev@Base 6.2.1
 _ZN10Qt3DRender27QLevelOfDetailSwitchPrivate15setCurrentIndexEi@Base 6.2.1
 _ZN10Qt3DRender27QLevelOfDetailSwitchPrivateC1Ev@Base 6.2.1
 _ZN10Qt3DRender27QLevelOfDetailSwitchPrivateC2Ev@Base 6.2.1
 _ZN10Qt3DRender27QPaintedTextureImagePrivate7repaintEv@Base 6.2.1
 _ZN10Qt3DRender27QPaintedTextureImagePrivateC1Ev@Base 6.2.1
 _ZN10Qt3DRender27QPaintedTextureImagePrivateC2Ev@Base 6.2.1
 _ZN10Qt3DRender27QPaintedTextureImagePrivateD0Ev@Base 6.2.1
 _ZN10Qt3DRender27QPaintedTextureImagePrivateD1Ev@Base 6.2.1
 _ZN10Qt3DRender27QPaintedTextureImagePrivateD2Ev@Base 6.2.1
 _ZN10Qt3DRender28QAbstractTextureImagePrivateC1Ev@Base 6.2.1
 _ZN10Qt3DRender28QAbstractTextureImagePrivateC2Ev@Base 6.2.1
 _ZN10Qt3DRender28QAbstractTextureImagePrivateD0Ev@Base 6.2.1
 _ZN10Qt3DRender28QAbstractTextureImagePrivateD1Ev@Base 6.2.1
 _ZN10Qt3DRender28QAbstractTextureImagePrivateD2Ev@Base 6.2.1
 _ZN10Qt3DRender28QLevelOfDetailBoundingSphere16staticMetaObjectE@Base 6.2.1
 _ZN10Qt3DRender28QLevelOfDetailBoundingSphereC1E9QVector3Df@Base 6.2.1
 _ZN10Qt3DRender28QLevelOfDetailBoundingSphereC1ERKS0_@Base 6.2.1
 _ZN10Qt3DRender28QLevelOfDetailBoundingSphereC2E9QVector3Df@Base 6.2.1
 _ZN10Qt3DRender28QLevelOfDetailBoundingSphereC2ERKS0_@Base 6.2.1
 _ZN10Qt3DRender28QLevelOfDetailBoundingSphereD1Ev@Base 6.2.1
 _ZN10Qt3DRender28QLevelOfDetailBoundingSphereD2Ev@Base 6.2.1
 _ZN10Qt3DRender28QLevelOfDetailBoundingSphereaSERKS0_@Base 6.2.1
 _ZN10Qt3DRender28QShaderProgramBuilderPrivate13setShaderCodeERK10QByteArrayNS_14QShaderProgram10ShaderTypeE@Base 6.2.1
 _ZN10Qt3DRender28QShaderProgramBuilderPrivateC1Ev@Base 6.2.1
 _ZN10Qt3DRender28QShaderProgramBuilderPrivateC2Ev@Base 6.2.1
 _ZN10Qt3DRender29QRenderSurfaceSelectorPrivate27setExternalRenderTargetSizeERK5QSize@Base 6.2.1
 _ZN10Qt3DRender29QRenderSurfaceSelectorPrivate4findEP7QObject@Base 6.2.1
 _ZN10Qt3DRender29QRenderSurfaceSelectorPrivateC1Ev@Base 6.2.1
 _ZN10Qt3DRender29QRenderSurfaceSelectorPrivateC2Ev@Base 6.2.1
 _ZN10Qt3DRender29QRenderSurfaceSelectorPrivateD0Ev@Base 6.2.1
 _ZN10Qt3DRender29QRenderSurfaceSelectorPrivateD1Ev@Base 6.2.1
 _ZN10Qt3DRender29QRenderSurfaceSelectorPrivateD2Ev@Base 6.2.1
 _ZN10Qt3DRender33QStencilOperationArgumentsPrivateD0Ev@Base 6.2.1
 _ZN10Qt3DRender33QStencilOperationArgumentsPrivateD1Ev@Base 6.2.1
 _ZN10Qt3DRender33QStencilOperationArgumentsPrivateD2Ev@Base 6.2.1
 _ZN10Qt3DRender5QMesh11qt_metacallEN11QMetaObject4CallEiPPv@Base 6.2.1
 _ZN10Qt3DRender5QMesh11qt_metacastEPKc@Base 6.2.1
 _ZN10Qt3DRender5QMesh11setMeshNameERK7QString@Base 6.2.1
 _ZN10Qt3DRender5QMesh13sourceChangedERK4QUrl@Base 6.2.1
 _ZN10Qt3DRender5QMesh13statusChangedENS0_6StatusE@Base 6.2.1
 _ZN10Qt3DRender5QMesh15meshNameChangedERK7QString@Base 6.2.1
 _ZN10Qt3DRender5QMesh16staticMetaObjectE@Base 6.2.1
 _ZN10Qt3DRender5QMesh9setSourceERK4QUrl@Base 6.2.1
 _ZN10Qt3DRender5QMeshC1EPN8Qt3DCore5QNodeE@Base 6.2.1
 _ZN10Qt3DRender5QMeshC1ERNS_12QMeshPrivateEPN8Qt3DCore5QNodeE@Base 6.2.1
 _ZN10Qt3DRender5QMeshC2EPN8Qt3DCore5QNodeE@Base 6.2.1
 _ZN10Qt3DRender5QMeshC2ERNS_12QMeshPrivateEPN8Qt3DCore5QNodeE@Base 6.2.1
 _ZN10Qt3DRender5QMeshD0Ev@Base 6.2.1
 _ZN10Qt3DRender5QMeshD1Ev@Base 6.2.1
 _ZN10Qt3DRender5QMeshD2Ev@Base 6.2.1
 _ZN10Qt3DRender6QLayer11qt_metacallEN11QMetaObject4CallEiPPv@Base 6.2.1
 _ZN10Qt3DRender6QLayer11qt_metacastEPKc@Base 6.2.1
 _ZN10Qt3DRender6QLayer12setRecursiveEb@Base 6.2.1
 _ZN10Qt3DRender6QLayer16recursiveChangedEv@Base 6.2.1
 _ZN10Qt3DRender6QLayer16staticMetaObjectE@Base 6.2.1
 _ZN10Qt3DRender6QLayerC1EPN8Qt3DCore5QNodeE@Base 6.2.1
 _ZN10Qt3DRender6QLayerC1ERNS_13QLayerPrivateEPN8Qt3DCore5QNodeE@Base 6.2.1
 _ZN10Qt3DRender6QLayerC2EPN8Qt3DCore5QNodeE@Base 6.2.1
 _ZN10Qt3DRender6QLayerC2ERNS_13QLayerPrivateEPN8Qt3DCore5QNodeE@Base 6.2.1
 _ZN10Qt3DRender6QLayerD0Ev@Base 6.2.1
 _ZN10Qt3DRender6QLayerD1Ev@Base 6.2.1
 _ZN10Qt3DRender6QLayerD2Ev@Base 6.2.1
 (arch=!amd64)_ZN10Qt3DRender6Render10CameraLens10viewMatrixERK10QMatrix4x4@Base 6.2.2
 (arch=amd64)_ZN10Qt3DRender6Render10CameraLens10viewMatrixERKN8Qt3DCore13Matrix4x4_SSEE@Base 6.2.2
 _ZN10Qt3DRender6Render10CameraLens11setExposureEf@Base 6.2.1
 (arch=!amd64)_ZN10Qt3DRender6Render10CameraLens13setProjectionERK10QMatrix4x4@Base 6.2.2
 (arch=amd64)_ZN10Qt3DRender6Render10CameraLens13setProjectionERKN8Qt3DCore13Matrix4x4_SSEE@Base 6.2.2
 _ZN10Qt3DRender6Render10CameraLens15setRenderAspectEPNS_13QRenderAspectE@Base 6.2.1
 _ZN10Qt3DRender6Render10CameraLens16syncFromFrontEndEPKN8Qt3DCore5QNodeEb@Base 6.2.1
 (arch=!amd64)_ZN10Qt3DRender6Render10CameraLens19viewMatrixForCameraEPNS0_13EntityManagerEN8Qt3DCore7QNodeIdER10QMatrix4x4S7_@Base 6.2.2
 (arch=amd64)_ZN10Qt3DRender6Render10CameraLens19viewMatrixForCameraEPNS0_13EntityManagerEN8Qt3DCore7QNodeIdERNS4_13Matrix4x4_SSEES7_@Base 6.2.2
 _ZN10Qt3DRender6Render10CameraLens20processViewAllResultEPN8Qt3DCore14QAspectManagerERKNS0_6SphereENS2_7QNodeIdE@Base 6.2.1
 _ZN10Qt3DRender6Render10CameraLens26computeSceneBoundingVolumeEN8Qt3DCore7QNodeIdES3_S3_@Base 6.2.1
 _ZN10Qt3DRender6Render10CameraLens7cleanupEv@Base 6.2.1
 _ZN10Qt3DRender6Render10CameraLensC1Ev@Base 6.2.1
 _ZN10Qt3DRender6Render10CameraLensC2Ev@Base 6.2.1
 _ZN10Qt3DRender6Render10CameraLensD0Ev@Base 6.2.1
 _ZN10Qt3DRender6Render10CameraLensD1Ev@Base 6.2.1
 _ZN10Qt3DRender6Render10CameraLensD2Ev@Base 6.2.1
 _ZN10Qt3DRender6Render10DepthRange16updatePropertiesEPKNS_12QRenderStateE@Base 6.2.1
 _ZN10Qt3DRender6Render10RasterMode16updatePropertiesEPKNS_12QRenderStateE@Base 6.2.1
 _ZN10Qt3DRender6Render10RenderPass14addRenderStateEN8Qt3DCore7QNodeIdE@Base 6.2.1
 _ZN10Qt3DRender6Render10RenderPass15appendFilterKeyEN8Qt3DCore7QNodeIdE@Base 6.2.1
 _ZN10Qt3DRender6Render10RenderPass15removeFilterKeyEN8Qt3DCore7QNodeIdE@Base 6.2.1
 _ZN10Qt3DRender6Render10RenderPass16syncFromFrontEndEPKN8Qt3DCore5QNodeEb@Base 6.2.1
 _ZN10Qt3DRender6Render10RenderPass17removeRenderStateEN8Qt3DCore7QNodeIdE@Base 6.2.1
 _ZN10Qt3DRender6Render10RenderPass7cleanupEv@Base 6.2.1
 _ZN10Qt3DRender6Render10RenderPassC1Ev@Base 6.2.1
 _ZN10Qt3DRender6Render10RenderPassC2Ev@Base 6.2.1
 _ZN10Qt3DRender6Render10RenderPassD0Ev@Base 6.2.1
 _ZN10Qt3DRender6Render10RenderPassD1Ev@Base 6.2.1
 _ZN10Qt3DRender6Render10RenderPassD2Ev@Base 6.2.1
 _ZN10Qt3DRender6Render10ShaderData11setManagersEPNS0_12NodeManagersE@Base 6.2.1
 _ZN10Qt3DRender6Render10ShaderData14lookupResourceEN8Qt3DCore7QNodeIdE@Base 6.2.1
 _ZN10Qt3DRender6Render10ShaderData14lookupResourceEPNS0_12NodeManagersEN8Qt3DCore7QNodeIdE@Base 6.2.1
 _ZN10Qt3DRender6Render10ShaderData16syncFromFrontEndEPKN8Qt3DCore5QNodeEb@Base 6.2.1
 (arch=!amd64)_ZN10Qt3DRender6Render10ShaderData20updateWorldTransformERK10QMatrix4x4@Base 6.2.2
 (arch=amd64)_ZN10Qt3DRender6Render10ShaderData20updateWorldTransformERKN8Qt3DCore13Matrix4x4_SSEE@Base 6.2.2
 _ZN10Qt3DRender6Render10ShaderData30generatePropertyValuesForBlockERK7QString@Base 6.2.1
 _ZN10Qt3DRender6Render10ShaderDataC1Ev@Base 6.2.1
 _ZN10Qt3DRender6Render10ShaderDataC2Ev@Base 6.2.1
 _ZN10Qt3DRender6Render10ShaderDataD0Ev@Base 6.2.1
 _ZN10Qt3DRender6Render10ShaderDataD1Ev@Base 6.2.1
 _ZN10Qt3DRender6Render10ShaderDataD2Ev@Base 6.2.1
 _ZN10Qt3DRender6Render10SortPolicy16syncFromFrontEndEPKN8Qt3DCore5QNodeEb@Base 6.2.1
 _ZN10Qt3DRender6Render10SortPolicyC1Ev@Base 6.2.1
 _ZN10Qt3DRender6Render10SortPolicyC2Ev@Base 6.2.1
 _ZN10Qt3DRender6Render11BackendNode11setRendererEPNS0_16AbstractRendererE@Base 6.2.1
 _ZN10Qt3DRender6Render11BackendNode16syncFromFrontEndEPKN8Qt3DCore5QNodeEb@Base 6.2.1
 _ZN10Qt3DRender6Render11BackendNode9markDirtyE6QFlagsINS0_16AbstractRenderer20BackendNodeDirtyFlagEE@Base 6.2.1
 _ZN10Qt3DRender6Render11BackendNodeC1EN8Qt3DCore12QBackendNode4ModeE@Base 6.2.1
 _ZN10Qt3DRender6Render11BackendNodeC1ERN8Qt3DCore19QBackendNodePrivateE@Base 6.2.1
 _ZN10Qt3DRender6Render11BackendNodeC2EN8Qt3DCore12QBackendNode4ModeE@Base 6.2.1
 _ZN10Qt3DRender6Render11BackendNodeC2ERN8Qt3DCore19QBackendNodePrivateE@Base 6.2.1
 _ZN10Qt3DRender6Render11BackendNodeD0Ev@Base 6.2.1
 _ZN10Qt3DRender6Render11BackendNodeD1Ev@Base 6.2.1
 _ZN10Qt3DRender6Render11BackendNodeD2Ev@Base 6.2.1
 _ZN10Qt3DRender6Render11LightSourceC1EPKNS0_6EntityERKSt6vectorIPNS0_5LightESaIS7_EE@Base 6.2.1
 _ZN10Qt3DRender6Render11LightSourceC1Ev@Base 6.2.1
 _ZN10Qt3DRender6Render11LightSourceC2EPKNS0_6EntityERKSt6vectorIPNS0_5LightESaIS7_EE@Base 6.2.1
 _ZN10Qt3DRender6Render11LightSourceC2Ev@Base 6.2.1
 _ZN10Qt3DRender6Render11MSAAEnabled16updatePropertiesEPKNS_12QRenderStateE@Base 6.2.1
 _ZN10Qt3DRender6Render11NoDepthMask16updatePropertiesEPKNS_12QRenderStateE@Base 6.2.1
 _ZN10Qt3DRender6Render11ScissorTest16updatePropertiesEPKNS_12QRenderStateE@Base 6.2.1
 _ZN10Qt3DRender6Render11StencilMask16updatePropertiesEPKNS_12QRenderStateE@Base 6.2.1
 _ZN10Qt3DRender6Render11StencilTest16updatePropertiesEPKNS_12QRenderStateE@Base 6.2.1
 _ZN10Qt3DRender6Render11StringToInt12lookupStringEi@Base 6.2.1
 _ZN10Qt3DRender6Render11StringToInt8lookupIdE13QLatin1String@Base 6.2.1
 _ZN10Qt3DRender6Render11StringToInt8lookupIdERK7QString@Base 6.2.1
 _ZN10Qt3DRender6Render12ClearBuffers16syncFromFrontEndEPKN8Qt3DCore5QNodeEb@Base 6.2.1
 _ZN10Qt3DRender6Render12ClearBuffersC1Ev@Base 6.2.1
 _ZN10Qt3DRender6Render12ClearBuffersC2Ev@Base 6.2.1
 _ZN10Qt3DRender6Render12JointManager11dirtyJointsEv@Base 6.2.1
 _ZN10Qt3DRender6Render12JointManager13addDirtyJointEN8Qt3DCore7QNodeIdE@Base 6.2.1
 _ZN10Qt3DRender6Render12JointManager16removeDirtyJointEN8Qt3DCore7QNodeIdE@Base 6.2.1
 (optional=templinst)_ZN10Qt3DRender6Render12LoadSceneJob12tryLoadSceneERNS_12QSceneLoader6StatusERK5QListI7QStringERKSt8functionIFvPNS_14QSceneImporterEEE@Base 6.2.1
 _ZN10Qt3DRender6Render12LoadSceneJob3runEv@Base 6.2.1
 _ZN10Qt3DRender6Render12LoadSceneJob7setDataERK10QByteArray@Base 6.2.1
 _ZN10Qt3DRender6Render12LoadSceneJobC1ERK4QUrlN8Qt3DCore7QNodeIdE@Base 6.2.1
 _ZN10Qt3DRender6Render12LoadSceneJobC2ERK4QUrlN8Qt3DCore7QNodeIdE@Base 6.2.1
 _ZN10Qt3DRender6Render12NodeManagersC1Ev@Base 6.2.1
 _ZN10Qt3DRender6Render12NodeManagersC2Ev@Base 6.2.1
 _ZN10Qt3DRender6Render12NodeManagersD1Ev@Base 6.2.1
 _ZN10Qt3DRender6Render12NodeManagersD2Ev@Base 6.2.1
 _ZN10Qt3DRender6Render12ObjectPicker10setPressedEb@Base 6.2.1
 _ZN10Qt3DRender6Render12ObjectPicker11setPriorityEi@Base 6.2.1
 _ZN10Qt3DRender6Render12ObjectPicker16syncFromFrontEndEPKN8Qt3DCore5QNodeEb@Base 6.2.1
 _ZN10Qt3DRender6Render12ObjectPicker7cleanupEv@Base 6.2.1
 _ZN10Qt3DRender6Render12ObjectPicker9notifyJobEv@Base 6.2.1
 _ZN10Qt3DRender6Render12ObjectPickerC1Ev@Base 6.2.1
 _ZN10Qt3DRender6Render12ObjectPickerC2Ev@Base 6.2.1
 _ZN10Qt3DRender6Render12ObjectPickerD0Ev@Base 6.2.1
 _ZN10Qt3DRender6Render12ObjectPickerD1Ev@Base 6.2.1
 _ZN10Qt3DRender6Render12ObjectPickerD2Ev@Base 6.2.1
 _ZN10Qt3DRender6Render12PickingProxy10setManagerEPNS0_19PickingProxyManagerE@Base 6.2.1
 _ZN10Qt3DRender6Render12PickingProxy10unsetDirtyEv@Base 6.2.1
 _ZN10Qt3DRender6Render12PickingProxy16syncFromFrontEndEPKN8Qt3DCore5QNodeEb@Base 6.2.1
 _ZN10Qt3DRender6Render12PickingProxy7cleanupEv@Base 6.2.1
 _ZN10Qt3DRender6Render12PickingProxyC1Ev@Base 6.2.1
 _ZN10Qt3DRender6Render12PickingProxyC2Ev@Base 6.2.1
 _ZN10Qt3DRender6Render12PickingProxyD0Ev@Base 6.2.1
 _ZN10Qt3DRender6Render12PickingProxyD1Ev@Base 6.2.1
 _ZN10Qt3DRender6Render12PickingProxyD2Ev@Base 6.2.1
 _ZN10Qt3DRender6Render12RenderTarget10unsetDirtyEv@Base 6.2.1
 _ZN10Qt3DRender6Render12RenderTarget16syncFromFrontEndEPKN8Qt3DCore5QNodeEb@Base 6.2.1
 _ZN10Qt3DRender6Render12RenderTarget7cleanupEv@Base 6.2.1
 _ZN10Qt3DRender6Render12RenderTargetC1Ev@Base 6.2.1
 _ZN10Qt3DRender6Render12RenderTargetC2Ev@Base 6.2.1
 _ZN10Qt3DRender6Render12SceneManager12addSceneDataERK4QUrlN8Qt3DCore7QNodeIdERK10QByteArray@Base 6.2.1
 _ZN10Qt3DRender6Render12SceneManager18clearSceneDownloadEPNS0_15SceneDownloaderE@Base 6.2.1
 _ZN10Qt3DRender6Render12SceneManager18setDownloadServiceEPN8Qt3DCore22QDownloadHelperServiceE@Base 6.2.1
 _ZN10Qt3DRender6Render12SceneManager18startSceneDownloadERK4QUrlN8Qt3DCore7QNodeIdE@Base 6.2.1
 _ZN10Qt3DRender6Render12SceneManager26takePendingSceneLoaderJobsEv@Base 6.2.1
 _ZN10Qt3DRender6Render12SceneManagerC1Ev@Base 6.2.1
 _ZN10Qt3DRender6Render12SceneManagerC2Ev@Base 6.2.1
 _ZN10Qt3DRender6Render12SceneManagerD1Ev@Base 6.2.1
 _ZN10Qt3DRender6Render12SceneManagerD2Ev@Base 6.2.1
 _ZN10Qt3DRender6Render12StateSetNode14addRenderStateEN8Qt3DCore7QNodeIdE@Base 6.2.1
 _ZN10Qt3DRender6Render12StateSetNode16syncFromFrontEndEPKN8Qt3DCore5QNodeEb@Base 6.2.1
 _ZN10Qt3DRender6Render12StateSetNode17removeRenderStateEN8Qt3DCore7QNodeIdE@Base 6.2.1
 _ZN10Qt3DRender6Render12StateSetNodeC1Ev@Base 6.2.1
 _ZN10Qt3DRender6Render12StateSetNodeC2Ev@Base 6.2.1
 _ZN10Qt3DRender6Render12StateSetNodeD0Ev@Base 6.2.1
 _ZN10Qt3DRender6Render12StateSetNodeD1Ev@Base 6.2.1
 _ZN10Qt3DRender6Render12StateSetNodeD2Ev@Base 6.2.1
 _ZN10Qt3DRender6Render12StateVariant5stateEv@Base 6.2.1
 _ZN10Qt3DRender6Render12TextureImage10unsetDirtyEv@Base 6.2.1
 _ZN10Qt3DRender6Render12TextureImage16syncFromFrontEndEPKN8Qt3DCore5QNodeEb@Base 6.2.1
 _ZN10Qt3DRender6Render12TextureImage7cleanupEv@Base 6.2.1
 _ZN10Qt3DRender6Render12TextureImageC1Ev@Base 6.2.1
 _ZN10Qt3DRender6Render12TextureImageC2Ev@Base 6.2.1
 _ZN10Qt3DRender6Render12TextureImageD0Ev@Base 6.2.1
 _ZN10Qt3DRender6Render12TextureImageD1Ev@Base 6.2.1
 _ZN10Qt3DRender6Render12TextureImageD2Ev@Base 6.2.1
 _ZN10Qt3DRender6Render12UniformValue11fromVariantERK8QVariant@Base 6.2.1
 (optional=templinst)_ZN10Qt3DRender6Render12UniformValue7setDataI10QMatrix4x4EEvRK5QListIT_E@Base 6.2.1
 _ZN10Qt3DRender6Render12ViewportNode15computeViewportERK6QRectFPKS1_@Base 6.2.1
 _ZN10Qt3DRender6Render12ViewportNode16syncFromFrontEndEPKN8Qt3DCore5QNodeEb@Base 6.2.1
 _ZN10Qt3DRender6Render12ViewportNode7setXMaxEf@Base 6.2.1
 _ZN10Qt3DRender6Render12ViewportNode7setXMinEf@Base 6.2.1
 _ZN10Qt3DRender6Render12ViewportNode7setYMaxEf@Base 6.2.1
 _ZN10Qt3DRender6Render12ViewportNode7setYMinEf@Base 6.2.1
 _ZN10Qt3DRender6Render12ViewportNode8setGammaEf@Base 6.2.1
 _ZN10Qt3DRender6Render12ViewportNodeC1Ev@Base 6.2.1
 _ZN10Qt3DRender6Render12ViewportNodeC2Ev@Base 6.2.1
 _ZN10Qt3DRender6Render13BlendEquation16updatePropertiesEPKNS_12QRenderStateE@Base 6.2.1
 _ZN10Qt3DRender6Render13BufferCaptureC1Ev@Base 6.2.1
 _ZN10Qt3DRender6Render13BufferCaptureC2Ev@Base 6.2.1
 _ZN10Qt3DRender6Render13BufferManager14addDirtyBufferEN8Qt3DCore7QNodeIdE@Base 6.2.1
 _ZN10Qt3DRender6Render13BufferManager16takeDirtyBuffersEv@Base 6.2.1
 _ZN10Qt3DRender6Render13BufferManager18addBufferReferenceEN8Qt3DCore7QNodeIdE@Base 6.2.1
 _ZN10Qt3DRender6Render13BufferManager20takeBuffersToReleaseEv@Base 6.2.1
 _ZN10Qt3DRender6Render13BufferManager21removeBufferReferenceEN8Qt3DCore7QNodeIdE@Base 6.2.1
 _ZN10Qt3DRender6Render13BufferManagerC1Ev@Base 6.2.1
 _ZN10Qt3DRender6Render13BufferManagerC2Ev@Base 6.2.1
 _ZN10Qt3DRender6Render13BufferManagerD1Ev@Base 6.2.1
 _ZN10Qt3DRender6Render13BufferManagerD2Ev@Base 6.2.1
 _ZN10Qt3DRender6Render13LevelOfDetail15setCurrentIndexEi@Base 6.2.1
 _ZN10Qt3DRender6Render13LevelOfDetail16syncFromFrontEndEPKN8Qt3DCore5QNodeEb@Base 6.2.1
 _ZN10Qt3DRender6Render13LevelOfDetail7cleanupEv@Base 6.2.1
 _ZN10Qt3DRender6Render13LevelOfDetailC1Ev@Base 6.2.1
 _ZN10Qt3DRender6Render13LevelOfDetailC2Ev@Base 6.2.1
 _ZN10Qt3DRender6Render13LevelOfDetailD0Ev@Base 6.2.1
 _ZN10Qt3DRender6Render13LevelOfDetailD1Ev@Base 6.2.1
 _ZN10Qt3DRender6Render13LevelOfDetailD2Ev@Base 6.2.1
 _ZN10Qt3DRender6Render13LightGatherer3runEv@Base 6.2.1
 _ZN10Qt3DRender6Render13LightGathererC1Ev@Base 6.2.1
 _ZN10Qt3DRender6Render13LightGathererC2Ev@Base 6.2.1
 _ZN10Qt3DRender6Render13MemoryBarrier16syncFromFrontEndEPKN8Qt3DCore5QNodeEb@Base 6.2.1
 _ZN10Qt3DRender6Render13MemoryBarrierC1Ev@Base 6.2.1
 _ZN10Qt3DRender6Render13MemoryBarrierC2Ev@Base 6.2.1
 _ZN10Qt3DRender6Render13MemoryBarrierD0Ev@Base 6.2.1
 _ZN10Qt3DRender6Render13MemoryBarrierD1Ev@Base 6.2.1
 _ZN10Qt3DRender6Render13MemoryBarrierD2Ev@Base 6.2.1
 _ZN10Qt3DRender6Render13PolygonOffset16updatePropertiesEPKNS_12QRenderStateE@Base 6.2.1
 _ZN10Qt3DRender6Render13RayCastingJob12dispatchHitsEPNS0_9RayCasterERKSt6vectorINS_10RayCasting21QCollisionQueryResult3HitESaIS7_EE@Base 6.2.1
 _ZN10Qt3DRender6Render13RayCastingJob16markCastersDirtyEv@Base 6.2.1
 _ZN10Qt3DRender6Render13RayCastingJob4pickEPNS_18QAbstractRayCasterE@Base 6.2.1
 _ZN10Qt3DRender6Render13RayCastingJob4pickERK5QListISt4pairIPNS0_6EntityEPNS0_9RayCasterEEE@Base 6.2.1
 _ZN10Qt3DRender6Render13RayCastingJob9runHelperEv@Base 6.2.1
 _ZN10Qt3DRender6Render13RayCastingJobC1Ev@Base 6.2.1
 _ZN10Qt3DRender6Render13RayCastingJobC2Ev@Base 6.2.1
 _ZN10Qt3DRender6Render13RenderCapture14requestCaptureERKNS_21QRenderCaptureRequestE@Base 6.2.1
 _ZN10Qt3DRender6Render13RenderCapture16addRenderCaptureEiRK6QImage@Base 6.2.1
 _ZN10Qt3DRender6Render13RenderCapture16syncFromFrontEndEPKN8Qt3DCore5QNodeEb@Base 6.2.1
 _ZN10Qt3DRender6Render13RenderCapture18takeCaptureRequestEv@Base 6.2.1
 _ZN10Qt3DRender6Render13RenderCapture28syncRenderCapturesToFrontendEPN8Qt3DCore14QAspectManagerE@Base 6.2.1
 _ZN10Qt3DRender6Render13RenderCaptureC1Ev@Base 6.2.1
 _ZN10Qt3DRender6Render13RenderCaptureC2Ev@Base 6.2.1
 _ZN10Qt3DRender6Render13ShaderBuilder12generateCodeENS_14QShaderProgram10ShaderTypeE@Base 6.2.1
 _ZN10Qt3DRender6Render13ShaderBuilder14setGraphicsApiERKNS_21GraphicsApiFilterDataE@Base 6.2.1
 _ZN10Qt3DRender6Render13ShaderBuilder14setShaderGraphENS_14QShaderProgram10ShaderTypeERK4QUrl@Base 6.2.1
 _ZN10Qt3DRender6Render13ShaderBuilder16setEnabledLayersERK5QListI7QStringE@Base 6.2.1
 _ZN10Qt3DRender6Render13ShaderBuilder16syncFromFrontEndEPKN8Qt3DCore5QNodeEb@Base 6.2.1
 _ZN10Qt3DRender6Render13ShaderBuilder17getPrototypeNamesEv@Base 6.2.1
 _ZN10Qt3DRender6Render13ShaderBuilder17getPrototypesFileEv@Base 6.2.1
 _ZN10Qt3DRender6Render13ShaderBuilder17setPrototypesFileERK7QString@Base 6.2.1
 _ZN10Qt3DRender6Render13ShaderBuilder7cleanupEv@Base 6.2.1
 _ZN10Qt3DRender6Render13ShaderBuilderC1Ev@Base 6.2.1
 _ZN10Qt3DRender6Render13ShaderBuilderC2Ev@Base 6.2.1
 _ZN10Qt3DRender6Render13ShaderBuilderD0Ev@Base 6.2.1
 _ZN10Qt3DRender6Render13ShaderBuilderD1Ev@Base 6.2.1
 _ZN10Qt3DRender6Render13ShaderBuilderD2Ev@Base 6.2.1
 _ZN10Qt3DRender6Render13SurfaceLockerC1EP8QSurface@Base 6.2.1
 _ZN10Qt3DRender6Render13SurfaceLockerC2EP8QSurface@Base 6.2.1
 _ZN10Qt3DRender6Render13SurfaceLockerD1Ev@Base 6.2.1
 _ZN10Qt3DRender6Render13SurfaceLockerD2Ev@Base 6.2.1
 _ZN10Qt3DRender6Render13findParamInfoEP5QListINS0_13ParameterInfoEEi@Base 6.2.1
 _ZN10Qt3DRender6Render14AttachmentPackC1EPKNS0_12RenderTargetEPNS0_17AttachmentManagerERK5QListINS_19QRenderTargetOutput15AttachmentPointEE@Base 6.2.1
 _ZN10Qt3DRender6Render14AttachmentPackC1Ev@Base 6.2.1
 _ZN10Qt3DRender6Render14AttachmentPackC2EPKNS0_12RenderTargetEPNS0_17AttachmentManagerERK5QListINS_19QRenderTargetOutput15AttachmentPointEE@Base 6.2.1
 _ZN10Qt3DRender6Render14AttachmentPackC2Ev@Base 6.2.1
 _ZN10Qt3DRender6Render14CameraSelector16syncFromFrontEndEPKN8Qt3DCore5QNodeEb@Base 6.2.1
 _ZN10Qt3DRender6Render14CameraSelectorC1Ev@Base 6.2.1
 _ZN10Qt3DRender6Render14CameraSelectorC2Ev@Base 6.2.1
 _ZN10Qt3DRender6Render14ComputeCommand16syncFromFrontEndEPKN8Qt3DCore5QNodeEb@Base 6.2.1
 _ZN10Qt3DRender6Render14ComputeCommand16updateFrameCountEv@Base 6.2.1
 _ZN10Qt3DRender6Render14ComputeCommand25resetHasReachedFrameCountEv@Base 6.2.1
 _ZN10Qt3DRender6Render14ComputeCommand7cleanupEv@Base 6.2.1
 _ZN10Qt3DRender6Render14ComputeCommandC1Ev@Base 6.2.1
 _ZN10Qt3DRender6Render14ComputeCommandC2Ev@Base 6.2.1
 _ZN10Qt3DRender6Render14ComputeCommandD0Ev@Base 6.2.1
 _ZN10Qt3DRender6Render14ComputeCommandD1Ev@Base 6.2.1
 _ZN10Qt3DRender6Render14ComputeCommandD2Ev@Base 6.2.1
 _ZN10Qt3DRender6Render14FrameGraphNode11setParentIdEN8Qt3DCore7QNodeIdE@Base 6.2.1
 _ZN10Qt3DRender6Render14FrameGraphNode16syncFromFrontEndEPKN8Qt3DCore5QNodeEb@Base 6.2.1
 _ZN10Qt3DRender6Render14FrameGraphNode20setFrameGraphManagerEPNS0_17FrameGraphManagerE@Base 6.2.1
 _ZN10Qt3DRender6Render14FrameGraphNode7cleanupEv@Base 6.2.1
 _ZN10Qt3DRender6Render14FrameGraphNodeC1ENS1_18FrameGraphNodeTypeEN8Qt3DCore12QBackendNode4ModeE@Base 6.2.1
 _ZN10Qt3DRender6Render14FrameGraphNodeC1Ev@Base 6.2.1
 _ZN10Qt3DRender6Render14FrameGraphNodeC2ENS1_18FrameGraphNodeTypeEN8Qt3DCore12QBackendNode4ModeE@Base 6.2.1
 _ZN10Qt3DRender6Render14FrameGraphNodeC2Ev@Base 6.2.1
 _ZN10Qt3DRender6Render14FrameGraphNodeD0Ev@Base 6.2.1
 _ZN10Qt3DRender6Render14FrameGraphNodeD1Ev@Base 6.2.1
 _ZN10Qt3DRender6Render14FrameGraphNodeD2Ev@Base 6.2.1
 _ZN10Qt3DRender6Render14FrustumCullingC1Ev@Base 6.2.1
 _ZN10Qt3DRender6Render14FrustumCullingC2Ev@Base 6.2.1
 _ZN10Qt3DRender6Render14FrustumCullingD0Ev@Base 6.2.1
 _ZN10Qt3DRender6Render14FrustumCullingD1Ev@Base 6.2.1
 _ZN10Qt3DRender6Render14FrustumCullingD2Ev@Base 6.2.1
 _ZN10Qt3DRender6Render14RenderSettings16syncFromFrontEndEPKN8Qt3DCore5QNodeEb@Base 6.2.1
 _ZN10Qt3DRender6Render14RenderSettingsC1Ev@Base 6.2.1
 _ZN10Qt3DRender6Render14RenderSettingsC2Ev@Base 6.2.1
 _ZN10Qt3DRender6Render14RenderStateSet10changeCostEPS1_@Base 6.2.1
 _ZN10Qt3DRender6Render14RenderStateSet5mergeEPKS1_@Base 6.2.1
 (optional=templinst)_ZN10Qt3DRender6Render14RenderStateSet8addStateINS0_12StateVariantEEEvRKT_@Base 6.2.1
 _ZN10Qt3DRender6Render14RenderStateSetC1Ev@Base 6.2.1
 _ZN10Qt3DRender6Render14RenderStateSetC2Ev@Base 6.2.1
 _ZN10Qt3DRender6Render14RenderStateSetD1Ev@Base 6.2.1
 _ZN10Qt3DRender6Render14RenderStateSetD2Ev@Base 6.2.1
 _ZN10Qt3DRender6Render15BlitFramebuffer16syncFromFrontEndEPKN8Qt3DCore5QNodeEb@Base 6.2.1
 _ZN10Qt3DRender6Render15BlitFramebufferC1Ev@Base 6.2.1
 _ZN10Qt3DRender6Render15BlitFramebufferC2Ev@Base 6.2.1
 _ZN10Qt3DRender6Render15DispatchCompute16syncFromFrontEndEPKN8Qt3DCore5QNodeEb@Base 6.2.1
 _ZN10Qt3DRender6Render15DispatchCompute7cleanupEv@Base 6.2.1
 _ZN10Qt3DRender6Render15DispatchComputeC1Ev@Base 6.2.1
 _ZN10Qt3DRender6Render15DispatchComputeC2Ev@Base 6.2.1
 _ZN10Qt3DRender6Render15DispatchComputeD0Ev@Base 6.2.1
 _ZN10Qt3DRender6Render15DispatchComputeD1Ev@Base 6.2.1
 _ZN10Qt3DRender6Render15DispatchComputeD2Ev@Base 6.2.1
 _ZN10Qt3DRender6Render15FrameCleanupJob11setManagersEPNS0_12NodeManagersE@Base 6.2.1
 _ZN10Qt3DRender6Render15FrameCleanupJob26updateBoundingVolumesDebugEPNS0_6EntityE@Base 6.2.1
 _ZN10Qt3DRender6Render15FrameCleanupJob3runEv@Base 6.2.1
 _ZN10Qt3DRender6Render15FrameCleanupJob7setRootEPNS0_6EntityE@Base 6.2.1
 _ZN10Qt3DRender6Render15FrameCleanupJobC1Ev@Base 6.2.1
 _ZN10Qt3DRender6Render15FrameCleanupJobC2Ev@Base 6.2.1
 _ZN10Qt3DRender6Render15FrameCleanupJobD0Ev@Base 6.2.1
 _ZN10Qt3DRender6Render15FrameCleanupJobD1Ev@Base 6.2.1
 _ZN10Qt3DRender6Render15FrameCleanupJobD2Ev@Base 6.2.1
 _ZN10Qt3DRender6Render15LayerFilterNode11setLayerIdsERK5QListIN8Qt3DCore7QNodeIdEE@Base 6.2.1
 _ZN10Qt3DRender6Render15LayerFilterNode16syncFromFrontEndEPKN8Qt3DCore5QNodeEb@Base 6.2.1
 _ZN10Qt3DRender6Render15LayerFilterNodeC1Ev@Base 6.2.1
 _ZN10Qt3DRender6Render15LayerFilterNodeC2Ev@Base 6.2.1
 _ZN10Qt3DRender6Render15LoadGeometryJob3runEv@Base 6.2.1
 _ZN10Qt3DRender6Render15LoadGeometryJobC1ERKN8Qt3DCore7QHandleINS0_16GeometryRendererEEE@Base 6.2.1
 _ZN10Qt3DRender6Render15LoadGeometryJobC2ERKN8Qt3DCore7QHandleINS0_16GeometryRendererEEE@Base 6.2.1
 _ZN10Qt3DRender6Render15LoadGeometryJobD0Ev@Base 6.2.1
 _ZN10Qt3DRender6Render15LoadGeometryJobD1Ev@Base 6.2.1
 _ZN10Qt3DRender6Render15LoadGeometryJobD2Ev@Base 6.2.1
 _ZN10Qt3DRender6Render15PickEventFilter11eventFilterEP7QObjectP6QEvent@Base 6.2.1
 _ZN10Qt3DRender6Render15PickEventFilter11qt_metacallEN11QMetaObject4CallEiPPv@Base 6.2.1
 _ZN10Qt3DRender6Render15PickEventFilter11qt_metacastEPKc@Base 6.2.1
 _ZN10Qt3DRender6Render15PickEventFilter16staticMetaObjectE@Base 6.2.1
 _ZN10Qt3DRender6Render15PickEventFilterC1EPNS_20QRenderAspectPrivateEP7QObject@Base 6.2.1
 _ZN10Qt3DRender6Render15PickEventFilterC2EPNS_20QRenderAspectPrivateEP7QObject@Base 6.2.1
 _ZN10Qt3DRender6Render15PickEventFilterD0Ev@Base 6.2.1
 _ZN10Qt3DRender6Render15PickEventFilterD1Ev@Base 6.2.1
 _ZN10Qt3DRender6Render15PickEventFilterD2Ev@Base 6.2.1
 _ZN10Qt3DRender6Render15ProximityFilter16syncFromFrontEndEPKN8Qt3DCore5QNodeEb@Base 6.2.1
 _ZN10Qt3DRender6Render15ProximityFilterC1Ev@Base 6.2.1
 _ZN10Qt3DRender6Render15ProximityFilterC2Ev@Base 6.2.1
 _ZN10Qt3DRender6Render15QRendererPlugin11qt_metacallEN11QMetaObject4CallEiPPv@Base 6.2.1
 _ZN10Qt3DRender6Render15QRendererPlugin11qt_metacastEPKc@Base 6.2.1
 _ZN10Qt3DRender6Render15QRendererPlugin16staticMetaObjectE@Base 6.2.1
 _ZN10Qt3DRender6Render15QRendererPlugin6createERK7QString@Base 6.2.1
 _ZN10Qt3DRender6Render15QRendererPluginC1EP7QObject@Base 6.2.1
 _ZN10Qt3DRender6Render15QRendererPluginC2EP7QObject@Base 6.2.1
 _ZN10Qt3DRender6Render15QRendererPluginD0Ev@Base 6.2.1
 _ZN10Qt3DRender6Render15QRendererPluginD1Ev@Base 6.2.1
 _ZN10Qt3DRender6Render15QRendererPluginD2Ev@Base 6.2.1
 _ZN10Qt3DRender6Render15RenderStateImpl16updatePropertiesEPKNS_12QRenderStateE@Base 6.2.1
 _ZN10Qt3DRender6Render15RenderStateNode16syncFromFrontEndEPKN8Qt3DCore5QNodeEb@Base 6.2.1
 _ZN10Qt3DRender6Render15RenderStateNode7cleanupEv@Base 6.2.1
 _ZN10Qt3DRender6Render15RenderStateNodeC1Ev@Base 6.2.1
 _ZN10Qt3DRender6Render15RenderStateNodeC2Ev@Base 6.2.1
 _ZN10Qt3DRender6Render15RenderStateNodeD0Ev@Base 6.2.1
 _ZN10Qt3DRender6Render15RenderStateNodeD1Ev@Base 6.2.1
 _ZN10Qt3DRender6Render15RenderStateNodeD2Ev@Base 6.2.1
 _ZN10Qt3DRender6Render15SkeletonManager16addDirtySkeletonENS1_9DirtyFlagEN8Qt3DCore7QHandleINS0_8SkeletonEEE@Base 6.2.1
 _ZN10Qt3DRender6Render15SkeletonManager18takeDirtySkeletonsENS1_9DirtyFlagE@Base 6.2.1
 _ZN10Qt3DRender6Render15TechniqueFilter12appendFilterEN8Qt3DCore7QNodeIdE@Base 6.2.1
 _ZN10Qt3DRender6Render15TechniqueFilter12removeFilterEN8Qt3DCore7QNodeIdE@Base 6.2.1
 _ZN10Qt3DRender6Render15TechniqueFilter16syncFromFrontEndEPKN8Qt3DCore5QNodeEb@Base 6.2.1
 _ZN10Qt3DRender6Render15TechniqueFilterC1Ev@Base 6.2.1
 _ZN10Qt3DRender6Render15TechniqueFilterC2Ev@Base 6.2.1
 _ZN10Qt3DRender6Render16CoordinateReader11setGeometryEPKNS0_16GeometryRendererERK7QString@Base 6.2.1
 _ZN10Qt3DRender6Render16CoordinateReader13getCoordinateEj@Base 6.2.1
 _ZN10Qt3DRender6Render16EnvironmentLight16syncFromFrontEndEPKN8Qt3DCore5QNodeEb@Base 6.2.1
 _ZN10Qt3DRender6Render16GeometryRenderer10setManagerEPNS0_23GeometryRendererManagerE@Base 6.2.1
 _ZN10Qt3DRender6Render16GeometryRenderer10unsetDirtyEv@Base 6.2.1
 _ZN10Qt3DRender6Render16GeometryRenderer14executeFunctorEv@Base 6.2.1
 _ZN10Qt3DRender6Render16GeometryRenderer16syncFromFrontEndEPKN8Qt3DCore5QNodeEb@Base 6.2.1
 _ZN10Qt3DRender6Render16GeometryRenderer7cleanupEv@Base 6.2.1
 _ZN10Qt3DRender6Render16GeometryRendererC1Ev@Base 6.2.1
 _ZN10Qt3DRender6Render16GeometryRendererC2Ev@Base 6.2.1
 _ZN10Qt3DRender6Render16GeometryRendererD0Ev@Base 6.2.1
 _ZN10Qt3DRender6Render16GeometryRendererD1Ev@Base 6.2.1
 _ZN10Qt3DRender6Render16GeometryRendererD2Ev@Base 6.2.1
 _ZN10Qt3DRender6Render16RenderPassFilter12appendFilterEN8Qt3DCore7QNodeIdE@Base 6.2.1
 _ZN10Qt3DRender6Render16RenderPassFilter12removeFilterEN8Qt3DCore7QNodeIdE@Base 6.2.1
 _ZN10Qt3DRender6Render16RenderPassFilter16syncFromFrontEndEPKN8Qt3DCore5QNodeEb@Base 6.2.1
 _ZN10Qt3DRender6Render16RenderPassFilterC1Ev@Base 6.2.1
 _ZN10Qt3DRender6Render16RenderPassFilterC2Ev@Base 6.2.1
 _ZN10Qt3DRender6Render16ResourceAccessor14accessResourceENS0_29RenderBackendResourceAccessor12ResourceTypeEN8Qt3DCore7QNodeIdEPPvPP6QMutex@Base 6.2.1
 _ZN10Qt3DRender6Render16ResourceAccessorC1EPNS0_16AbstractRendererEPNS0_12NodeManagersE@Base 6.2.1
 _ZN10Qt3DRender6Render16ResourceAccessorC2EPNS0_16AbstractRendererEPNS0_12NodeManagersE@Base 6.2.1
 _ZN10Qt3DRender6Render16TechniqueManager17addDirtyTechniqueEN8Qt3DCore7QNodeIdE@Base 6.2.1
 _ZN10Qt3DRender6Render16TechniqueManager19takeDirtyTechniquesEv@Base 6.2.1
 _ZN10Qt3DRender6Render16TechniqueManagerC1Ev@Base 6.2.1
 _ZN10Qt3DRender6Render16TechniqueManagerC2Ev@Base 6.2.1
 _ZN10Qt3DRender6Render16entitiesInSubsetERKSt6vectorIPNS0_6EntityESaIS3_EES7_@Base 6.2.1
 _ZN10Qt3DRender6Render17EntityAccumulatorC1EPNS0_12NodeManagersE@Base 6.2.1
 _ZN10Qt3DRender6Render17EntityAccumulatorC1ESt8functionIFbPNS0_6EntityEEEPNS0_12NodeManagersE@Base 6.2.1
 _ZN10Qt3DRender6Render17EntityAccumulatorC2EPNS0_12NodeManagersE@Base 6.2.1
 _ZN10Qt3DRender6Render17EntityAccumulatorC2ESt8functionIFbPNS0_6EntityEEEPNS0_12NodeManagersE@Base 6.2.1
 _ZN10Qt3DRender6Render17FrameGraphManager10appendNodeEN8Qt3DCore7QNodeIdEPNS0_14FrameGraphNodeE@Base 6.2.1
 _ZN10Qt3DRender6Render17FrameGraphManager11releaseNodeEN8Qt3DCore7QNodeIdE@Base 6.2.1
 _ZN10Qt3DRender6Render17FrameGraphManagerD1Ev@Base 6.2.1
 _ZN10Qt3DRender6Render17FrameGraphManagerD2Ev@Base 6.2.1
 _ZN10Qt3DRender6Render17FrameGraphVisitor21takeEnablersToDisableEv@Base 6.2.1
 _ZN10Qt3DRender6Render17FrameGraphVisitor5visitEPNS0_14FrameGraphNodeE@Base 6.2.1
 _ZN10Qt3DRender6Render17FrameGraphVisitor8traverseEPNS0_14FrameGraphNodeE@Base 6.2.1
 _ZN10Qt3DRender6Render17FrameGraphVisitorC1EPKNS0_17FrameGraphManagerE@Base 6.2.1
 _ZN10Qt3DRender6Render17FrameGraphVisitorC2EPKNS0_17FrameGraphManagerE@Base 6.2.1
 _ZN10Qt3DRender6Render17FrustumCullingJob10isRequiredEv@Base 6.2.1
 _ZN10Qt3DRender6Render17FrustumCullingJob3runEv@Base 6.2.1
 _ZN10Qt3DRender6Render17FrustumCullingJob9cullSceneEPNS0_6EntityEPKNS1_5PlaneE@Base 6.2.1
 _ZN10Qt3DRender6Render17FrustumCullingJobC1Ev@Base 6.2.1
 _ZN10Qt3DRender6Render17FrustumCullingJobC2Ev@Base 6.2.1
 _ZN10Qt3DRender6Render17FrustumCullingJobD0Ev@Base 6.2.1
 _ZN10Qt3DRender6Render17FrustumCullingJobD1Ev@Base 6.2.1
 _ZN10Qt3DRender6Render17FrustumCullingJobD2Ev@Base 6.2.1
 _ZN10Qt3DRender6Render18AbstractPickingJob11setManagersEPNS0_12NodeManagersE@Base 6.2.1
 (arch=!amd64)_ZN10Qt3DRender6Render18AbstractPickingJob15intersectionRayERK6QPointRK10QMatrix4x4S7_RK5QRect@Base 6.2.2
 (arch=amd64)_ZN10Qt3DRender6Render18AbstractPickingJob15intersectionRayERK6QPointRKN8Qt3DCore13Matrix4x4_SSEES8_RK5QRect@Base 6.2.2
 _ZN10Qt3DRender6Render18AbstractPickingJob17setFrameGraphRootEPNS0_14FrameGraphNodeE@Base 6.2.1
 _ZN10Qt3DRender6Render18AbstractPickingJob17setRenderSettingsEPNS0_14RenderSettingsE@Base 6.2.1
 _ZN10Qt3DRender6Render18AbstractPickingJob3runEv@Base 6.2.1
 _ZN10Qt3DRender6Render18AbstractPickingJob7setRootEPNS0_6EntityE@Base 6.2.1
 _ZN10Qt3DRender6Render18AbstractPickingJobC1ERN8Qt3DCore17QAspectJobPrivateE@Base 6.2.1
 _ZN10Qt3DRender6Render18AbstractPickingJobC1Ev@Base 6.2.1
 _ZN10Qt3DRender6Render18AbstractPickingJobC2ERN8Qt3DCore17QAspectJobPrivateE@Base 6.2.1
 _ZN10Qt3DRender6Render18AbstractPickingJobC2Ev@Base 6.2.1
 _ZN10Qt3DRender6Render18RenderTargetOutput10attachmentEv@Base 6.2.1
 _ZN10Qt3DRender6Render18RenderTargetOutput16syncFromFrontEndEPKN8Qt3DCore5QNodeEb@Base 6.2.1
 _ZN10Qt3DRender6Render18RenderTargetOutputC1Ev@Base 6.2.1
 _ZN10Qt3DRender6Render18RenderTargetOutputC2Ev@Base 6.2.1
 _ZN10Qt3DRender6Render19addParametersForIdsEP5QListINS0_13ParameterInfoEEPNS0_16ParameterManagerERKS1_IN8Qt3DCore7QNodeIdEE@Base 6.2.1
 _ZN10Qt3DRender6Render20FilterLayerEntityJob17selectAllEntitiesEv@Base 6.2.1
 _ZN10Qt3DRender6Render20FilterLayerEntityJob20filterLayerAndEntityEv@Base 6.2.1
 _ZN10Qt3DRender6Render20FilterLayerEntityJob25filterEntityAgainstLayersEPNS0_6EntityERK5QListIN8Qt3DCore7QNodeIdEENS_12QLayerFilter10FilterModeE@Base 6.2.1
 _ZN10Qt3DRender6Render20FilterLayerEntityJob29filterAcceptAllMatchingLayersEPNS0_6EntityERK5QListIN8Qt3DCore7QNodeIdEE@Base 6.2.1
 _ZN10Qt3DRender6Render20FilterLayerEntityJob29filterAcceptAnyMatchingLayersEPNS0_6EntityERK5QListIN8Qt3DCore7QNodeIdEE@Base 6.2.1
 _ZN10Qt3DRender6Render20FilterLayerEntityJob30filterDiscardAllMatchingLayersEPNS0_6EntityERK5QListIN8Qt3DCore7QNodeIdEE@Base 6.2.1
 _ZN10Qt3DRender6Render20FilterLayerEntityJob30filterDiscardAnyMatchingLayersEPNS0_6EntityERK5QListIN8Qt3DCore7QNodeIdEE@Base 6.2.1
 _ZN10Qt3DRender6Render20FilterLayerEntityJob3runEv@Base 6.2.1
 _ZN10Qt3DRender6Render20FilterLayerEntityJobC1Ev@Base 6.2.1
 _ZN10Qt3DRender6Render20FilterLayerEntityJobC2Ev@Base 6.2.1
 _ZN10Qt3DRender6Render20QRenderPluginFactory4keysEv@Base 6.2.4
 _ZN10Qt3DRender6Render20QRenderPluginFactory6createERK7QStringRK5QListIS2_E@Base 6.2.4
 _ZN10Qt3DRender6Render20RenderTargetSelector16syncFromFrontEndEPKN8Qt3DCore5QNodeEb@Base 6.2.1
 _ZN10Qt3DRender6Render20RenderTargetSelectorC1Ev@Base 6.2.1
 _ZN10Qt3DRender6Render20RenderTargetSelectorC2Ev@Base 6.2.1
 _ZN10Qt3DRender6Render20SendBufferCaptureJob10addRequestESt4pairIN8Qt3DCore7QNodeIdE10QByteArrayE@Base 6.2.1
 _ZN10Qt3DRender6Render20SendBufferCaptureJob3runEv@Base 6.2.1
 _ZN10Qt3DRender6Render20SendBufferCaptureJobC1Ev@Base 6.2.1
 _ZN10Qt3DRender6Render20SendBufferCaptureJobC2Ev@Base 6.2.1
 _ZN10Qt3DRender6Render20SendBufferCaptureJobD0Ev@Base 6.2.1
 _ZN10Qt3DRender6Render20SendBufferCaptureJobD1Ev@Base 6.2.1
 _ZN10Qt3DRender6Render20SendBufferCaptureJobD2Ev@Base 6.2.1
 _ZN10Qt3DRender6Render20UpdateTreeEnabledJob11setManagersEPNS0_12NodeManagersE@Base 6.2.1
 _ZN10Qt3DRender6Render20UpdateTreeEnabledJob3runEv@Base 6.2.1
 _ZN10Qt3DRender6Render20UpdateTreeEnabledJob7setRootEPNS0_6EntityE@Base 6.2.1
 _ZN10Qt3DRender6Render20UpdateTreeEnabledJobC1Ev@Base 6.2.1
 _ZN10Qt3DRender6Render20UpdateTreeEnabledJobC2Ev@Base 6.2.1
 _ZN10Qt3DRender6Render21PickBoundingVolumeJob16markPickersDirtyEv@Base 6.2.1
 _ZN10Qt3DRender6Render21PickBoundingVolumeJob16processPickEventERKNS0_12PickingUtils17PickConfigurationEP7QObjectPK11QMouseEvent@Base 6.2.1
 _ZN10Qt3DRender6Render21PickBoundingVolumeJob17processMouseEventEP7QObjectP11QMouseEvent@Base 6.2.1
 _ZN10Qt3DRender6Render21PickBoundingVolumeJob18dispatchPickEventsEPK11QMouseEventRKSt6vectorINS_10RayCasting21QCollisionQueryResult3HitESaIS8_EENS_10QPickEvent7ButtonsEiibN8Qt3DCore7QNodeIdE@Base 6.2.1
 _ZN10Qt3DRender6Render21PickBoundingVolumeJob29clearPreviouslyHoveredPickersEv@Base 6.2.1
 _ZN10Qt3DRender6Render21PickBoundingVolumeJob7setRootEPNS0_6EntityE@Base 6.2.1
 _ZN10Qt3DRender6Render21PickBoundingVolumeJob9runHelperEv@Base 6.2.1
 _ZN10Qt3DRender6Render21PickBoundingVolumeJobC1Ev@Base 6.2.1
 _ZN10Qt3DRender6Render21PickBoundingVolumeJobC2Ev@Base 6.2.1
 _ZN10Qt3DRender6Render21PlatformSurfaceFilter11eventFilterEP7QObjectP6QEvent@Base 6.2.1
 _ZN10Qt3DRender6Render21PlatformSurfaceFilter11lockSurfaceEv@Base 6.2.1
 _ZN10Qt3DRender6Render21PlatformSurfaceFilter11qt_metacallEN11QMetaObject4CallEiPPv@Base 6.2.1
 _ZN10Qt3DRender6Render21PlatformSurfaceFilter11qt_metacastEPKc@Base 6.2.1
 _ZN10Qt3DRender6Render21PlatformSurfaceFilter14isSurfaceValidEP8QSurface@Base 6.2.1
 _ZN10Qt3DRender6Render21PlatformSurfaceFilter14releaseSurfaceEv@Base 6.2.1
 _ZN10Qt3DRender6Render21PlatformSurfaceFilter16staticMetaObjectE@Base 6.2.1
 _ZN10Qt3DRender6Render21PlatformSurfaceFilter18m_surfacesValidityE@Base 6.2.1
 _ZN10Qt3DRender6Render21PlatformSurfaceFilter18markSurfaceAsValidEv@Base 6.2.1
 _ZN10Qt3DRender6Render21PlatformSurfaceFilter19m_surfacesSemaphoreE@Base 6.2.1
 _ZN10Qt3DRender6Render21PlatformSurfaceFilterC1EP7QObject@Base 6.2.1
 _ZN10Qt3DRender6Render21PlatformSurfaceFilterC2EP7QObject@Base 6.2.1
 _ZN10Qt3DRender6Render21PlatformSurfaceFilterD0Ev@Base 6.2.1
 _ZN10Qt3DRender6Render21PlatformSurfaceFilterD1Ev@Base 6.2.1
 _ZN10Qt3DRender6Render21PlatformSurfaceFilterD2Ev@Base 6.2.1
 _ZN10Qt3DRender6Render21RenderSurfaceSelector16syncFromFrontEndEPKN8Qt3DCore5QNodeEb@Base 6.2.1
 _ZN10Qt3DRender6Render21RenderSurfaceSelectorC1Ev@Base 6.2.1
 _ZN10Qt3DRender6Render21RenderSurfaceSelectorC2Ev@Base 6.2.1
 _ZN10Qt3DRender6Render21UpdateEntityLayersJob3runEv@Base 6.2.1
 _ZN10Qt3DRender6Render21UpdateEntityLayersJobC1Ev@Base 6.2.1
 _ZN10Qt3DRender6Render21UpdateEntityLayersJobC2Ev@Base 6.2.1
 _ZN10Qt3DRender6Render22BlendEquationArguments16updatePropertiesEPKNS_12QRenderStateE@Base 6.2.1
 _ZN10Qt3DRender6Render22OffscreenSurfaceHelper11qt_metacallEN11QMetaObject4CallEiPPv@Base 6.2.1
 _ZN10Qt3DRender6Render22OffscreenSurfaceHelper11qt_metacastEPKc@Base 6.2.1
 _ZN10Qt3DRender6Render22OffscreenSurfaceHelper16staticMetaObjectE@Base 6.2.1
 _ZN10Qt3DRender6Render22OffscreenSurfaceHelper22createOffscreenSurfaceEv@Base 6.2.1
 _ZN10Qt3DRender6Render22OffscreenSurfaceHelperC1EPNS0_16AbstractRendererEP7QObject@Base 6.2.1
 _ZN10Qt3DRender6Render22OffscreenSurfaceHelperC2EPNS0_16AbstractRendererEP7QObject@Base 6.2.1
 _ZN10Qt3DRender6Render22QRenderPluginFactoryIf11qt_metacallEN11QMetaObject4CallEiPPv@Base 6.2.1
 _ZN10Qt3DRender6Render22QRenderPluginFactoryIf11qt_metacastEPKc@Base 6.2.1
 _ZN10Qt3DRender6Render22QRenderPluginFactoryIf16staticMetaObjectE@Base 6.2.1
 _ZN10Qt3DRender6Render22QRenderPluginFactoryIf6createERK7QStringRK5QListIS2_E@Base 6.2.1
 _ZN10Qt3DRender6Render22QRenderPluginFactoryIfC1EP7QObject@Base 6.2.1
 _ZN10Qt3DRender6Render22QRenderPluginFactoryIfC2EP7QObject@Base 6.2.1
 _ZN10Qt3DRender6Render22QRenderPluginFactoryIfD0Ev@Base 6.2.1
 _ZN10Qt3DRender6Render22QRenderPluginFactoryIfD1Ev@Base 6.2.1
 _ZN10Qt3DRender6Render22QRenderPluginFactoryIfD2Ev@Base 6.2.1
 _ZN10Qt3DRender6Render22QRendererPluginFactory4keysEv@Base 6.2.4
 _ZN10Qt3DRender6Render22QRendererPluginFactory6createERK7QString@Base 6.2.4
 _ZN10Qt3DRender6Render22UpdateLevelOfDetailJob11setManagersEPNS0_12NodeManagersE@Base 6.2.1
 _ZN10Qt3DRender6Render22UpdateLevelOfDetailJob17setFrameGraphRootEPNS0_14FrameGraphNodeE@Base 6.2.1
 _ZN10Qt3DRender6Render22UpdateLevelOfDetailJob3runEv@Base 6.2.1
 _ZN10Qt3DRender6Render22UpdateLevelOfDetailJob7setRootEPNS0_6EntityE@Base 6.2.1
 _ZN10Qt3DRender6Render22UpdateLevelOfDetailJobC1Ev@Base 6.2.1
 _ZN10Qt3DRender6Render22UpdateLevelOfDetailJobC2Ev@Base 6.2.1
 _ZN10Qt3DRender6Render22UpdateLevelOfDetailJobD0Ev@Base 6.2.1
 _ZN10Qt3DRender6Render22UpdateLevelOfDetailJobD1Ev@Base 6.2.1
 _ZN10Qt3DRender6Render22UpdateLevelOfDetailJobD2Ev@Base 6.2.1
 _ZN10Qt3DRender6Render22findTechniqueForEffectEPNS0_12NodeManagersEPKNS0_15TechniqueFilterEPNS0_6EffectE@Base 6.2.1
 _ZN10Qt3DRender6Render23ExpandBoundingVolumeJob11setManagersEPNS0_12NodeManagersE@Base 6.2.1
 _ZN10Qt3DRender6Render23ExpandBoundingVolumeJob3runEv@Base 6.2.1
 _ZN10Qt3DRender6Render23ExpandBoundingVolumeJob7setRootEPNS0_6EntityE@Base 6.2.1
 _ZN10Qt3DRender6Render23ExpandBoundingVolumeJobC1Ev@Base 6.2.1
 _ZN10Qt3DRender6Render23ExpandBoundingVolumeJobC2Ev@Base 6.2.1
 _ZN10Qt3DRender6Render23GeometryRendererManager22dirtyGeometryRenderersEv@Base 6.2.1
 _ZN10Qt3DRender6Render23GeometryRendererManager24addDirtyGeometryRendererEN8Qt3DCore7QNodeIdE@Base 6.2.1
 _ZN10Qt3DRender6Render23GeometryRendererManagerC1Ev@Base 6.2.1
 _ZN10Qt3DRender6Render23GeometryRendererManagerC2Ev@Base 6.2.1
 _ZN10Qt3DRender6Render23GeometryRendererManagerD1Ev@Base 6.2.1
 _ZN10Qt3DRender6Render23GeometryRendererManagerD2Ev@Base 6.2.1
 _ZN10Qt3DRender6Render23UpdateWorldTransformJob11setManagersEPNS0_12NodeManagersE@Base 6.2.1
 _ZN10Qt3DRender6Render23UpdateWorldTransformJob3runEv@Base 6.2.1
 _ZN10Qt3DRender6Render23UpdateWorldTransformJob7setRootEPNS0_6EntityE@Base 6.2.1
 _ZN10Qt3DRender6Render23UpdateWorldTransformJobC1Ev@Base 6.2.1
 _ZN10Qt3DRender6Render23UpdateWorldTransformJobC2Ev@Base 6.2.1
 _ZN10Qt3DRender6Render24UniformBlockValueBuilder36buildActiveUniformNameValueMapHelperEPKNS0_10ShaderDataERK7QStringiiPKNS2_13PropertyValueE@Base 6.2.1
 _ZN10Qt3DRender6Render24UniformBlockValueBuilder42buildActiveUniformNameValueMapStructHelperEPNS0_10ShaderDataERK7QStringS6_@Base 6.2.1
 (arch=!amd64)_ZN10Qt3DRender6Render24UniformBlockValueBuilderC1ERKSt6vectorIiSaIiEEPNS0_17ShaderDataManagerEPNS0_14TextureManagerERK10QMatrix4x4@Base 6.2.2
 (arch=amd64)_ZN10Qt3DRender6Render24UniformBlockValueBuilderC1ERKSt6vectorIiSaIiEEPNS0_17ShaderDataManagerEPNS0_14TextureManagerERKN8Qt3DCore13Matrix4x4_SSEE@Base 6.2.2
 (arch=!amd64)_ZN10Qt3DRender6Render24UniformBlockValueBuilderC2ERKSt6vectorIiSaIiEEPNS0_17ShaderDataManagerEPNS0_14TextureManagerERK10QMatrix4x4@Base 6.2.2
 (arch=amd64)_ZN10Qt3DRender6Render24UniformBlockValueBuilderC2ERKSt6vectorIiSaIiEEPNS0_17ShaderDataManagerEPNS0_14TextureManagerERKN8Qt3DCore13Matrix4x4_SSEE@Base 6.2.2
 _ZN10Qt3DRender6Render24UpdateSkinningPaletteJob3runEv@Base 6.2.1
 _ZN10Qt3DRender6Render24UpdateSkinningPaletteJobC1Ev@Base 6.2.1
 _ZN10Qt3DRender6Render24UpdateSkinningPaletteJobC2Ev@Base 6.2.1
 _ZN10Qt3DRender6Render24UpdateSkinningPaletteJobD0Ev@Base 6.2.1
 _ZN10Qt3DRender6Render24UpdateSkinningPaletteJobD1Ev@Base 6.2.1
 _ZN10Qt3DRender6Render24UpdateSkinningPaletteJobD2Ev@Base 6.2.1
 _ZN10Qt3DRender6Render24VSyncFrameAdvanceService16waitForNextFrameEv@Base 6.2.1
 _ZN10Qt3DRender6Render24VSyncFrameAdvanceService18proceedToNextFrameEv@Base 6.2.1
 _ZN10Qt3DRender6Render24VSyncFrameAdvanceService4stopEv@Base 6.2.1
 _ZN10Qt3DRender6Render24VSyncFrameAdvanceService5startEv@Base 6.2.1
 _ZN10Qt3DRender6Render24VSyncFrameAdvanceServiceC1Eb@Base 6.2.1
 _ZN10Qt3DRender6Render24VSyncFrameAdvanceServiceC2Eb@Base 6.2.1
 _ZN10Qt3DRender6Render24VSyncFrameAdvanceServiceD0Ev@Base 6.2.1
 _ZN10Qt3DRender6Render24VSyncFrameAdvanceServiceD1Ev@Base 6.2.1
 _ZN10Qt3DRender6Render24VSyncFrameAdvanceServiceD2Ev@Base 6.2.1
 _ZN10Qt3DRender6Render24findIdealNumberOfWorkersEiii@Base 6.2.1
 _ZN10Qt3DRender6Render25addStatesToRenderStateSetEPNS0_14RenderStateSetE5QListIN8Qt3DCore7QNodeIdEEPNS0_18RenderStateManagerE@Base 6.2.1
 _ZN10Qt3DRender6Render26CalculateBoundingVolumeJob11setManagersEPNS0_12NodeManagersE@Base 6.2.1
 _ZN10Qt3DRender6Render26CalculateBoundingVolumeJob22setFrontEndNodeManagerEPN8Qt3DCore28QAbstractFrontEndNodeManagerE@Base 6.2.1
 _ZN10Qt3DRender6Render26CalculateBoundingVolumeJob3runEv@Base 6.2.1
 _ZN10Qt3DRender6Render26CalculateBoundingVolumeJob7processERKN8Qt3DCore27BoundingVolumeComputeResultEb@Base 6.2.1
 _ZN10Qt3DRender6Render26CalculateBoundingVolumeJob7setRootEPNS0_6EntityE@Base 6.2.1
 _ZN10Qt3DRender6Render26CalculateBoundingVolumeJob9postFrameEPN8Qt3DCore13QAspectEngineE@Base 6.2.1
 _ZN10Qt3DRender6Render26CalculateBoundingVolumeJobC1Ev@Base 6.2.1
 _ZN10Qt3DRender6Render26CalculateBoundingVolumeJobC2Ev@Base 6.2.1
 _ZN10Qt3DRender6Render26FilterProximityDistanceJob10isRequiredEv@Base 6.2.1
 _ZN10Qt3DRender6Render26FilterProximityDistanceJob14filterEntitiesERKSt6vectorIPNS0_6EntityESaIS4_EE@Base 6.2.1
 _ZN10Qt3DRender6Render26FilterProximityDistanceJob17selectAllEntitiesEv@Base 6.2.1
 _ZN10Qt3DRender6Render26FilterProximityDistanceJob3runEv@Base 6.2.1
 _ZN10Qt3DRender6Render26FilterProximityDistanceJobC1Ev@Base 6.2.1
 _ZN10Qt3DRender6Render26FilterProximityDistanceJobC2Ev@Base 6.2.1
 _ZN10Qt3DRender6Render26FilterProximityDistanceJobD0Ev@Base 6.2.1
 _ZN10Qt3DRender6Render26FilterProximityDistanceJobD1Ev@Base 6.2.1
 _ZN10Qt3DRender6Render26FilterProximityDistanceJobD2Ev@Base 6.2.1
 _ZN10Qt3DRender6Render28FilterCompatibleTechniqueJob10setManagerEPNS0_16TechniqueManagerE@Base 6.2.1
 _ZN10Qt3DRender6Render28FilterCompatibleTechniqueJob11setRendererEPNS0_16AbstractRendererE@Base 6.2.1
 _ZN10Qt3DRender6Render28FilterCompatibleTechniqueJob3runEv@Base 6.2.1
 _ZN10Qt3DRender6Render28FilterCompatibleTechniqueJobC1Ev@Base 6.2.1
 _ZN10Qt3DRender6Render28FilterCompatibleTechniqueJobC2Ev@Base 6.2.1
 _ZN10Qt3DRender6Render28MaterialParameterGathererJob3runEv@Base 6.2.1
 _ZN10Qt3DRender6Render28MaterialParameterGathererJobC1Ev@Base 6.2.1
 _ZN10Qt3DRender6Render28MaterialParameterGathererJobC2Ev@Base 6.2.1
 _ZN10Qt3DRender6Render28UpdateShaderDataTransformJob11setManagersEPNS0_12NodeManagersE@Base 6.2.1
 _ZN10Qt3DRender6Render28UpdateShaderDataTransformJob3runEv@Base 6.2.1
 _ZN10Qt3DRender6Render28UpdateShaderDataTransformJobC1Ev@Base 6.2.1
 _ZN10Qt3DRender6Render28UpdateShaderDataTransformJobC2Ev@Base 6.2.1
 _ZN10Qt3DRender6Render28UpdateShaderDataTransformJobD0Ev@Base 6.2.1
 _ZN10Qt3DRender6Render28UpdateShaderDataTransformJobD1Ev@Base 6.2.1
 _ZN10Qt3DRender6Render28UpdateShaderDataTransformJobD2Ev@Base 6.2.1
 _ZN10Qt3DRender6Render28UpdateWorldBoundingVolumeJob3runEv@Base 6.2.1
 _ZN10Qt3DRender6Render28UpdateWorldBoundingVolumeJobC1Ev@Base 6.2.1
 _ZN10Qt3DRender6Render28UpdateWorldBoundingVolumeJobC2Ev@Base 6.2.1
 _ZN10Qt3DRender6Render28findRenderPassesForTechniqueEPNS0_12NodeManagersEPKNS0_16RenderPassFilterEPNS0_9TechniqueE@Base 6.2.1
 _ZN10Qt3DRender6Render29RenderBackendResourceAccessorD0Ev@Base 6.2.1
 _ZN10Qt3DRender6Render29RenderBackendResourceAccessorD1Ev@Base 6.2.1
 _ZN10Qt3DRender6Render29RenderBackendResourceAccessorD2Ev@Base 6.2.1
 _ZN10Qt3DRender6Render30UpdateWorldTransformJobPrivate9postFrameEPN8Qt3DCore14QAspectManagerE@Base 6.2.1
 _ZN10Qt3DRender6Render32ComputeFilteredBoundingVolumeJob11setManagersEPNS0_12NodeManagersE@Base 6.2.1
 _ZN10Qt3DRender6Render32ComputeFilteredBoundingVolumeJob13ignoreSubTreeEPNS0_6EntityE@Base 6.2.1
 _ZN10Qt3DRender6Render32ComputeFilteredBoundingVolumeJob3runEv@Base 6.2.1
 _ZN10Qt3DRender6Render32ComputeFilteredBoundingVolumeJob7setRootEPNS0_6EntityE@Base 6.2.1
 _ZN10Qt3DRender6Render32ComputeFilteredBoundingVolumeJob8finishedEPN8Qt3DCore14QAspectManagerERKNS0_6SphereE@Base 6.2.1
 _ZN10Qt3DRender6Render32ComputeFilteredBoundingVolumeJobC1Ev@Base 6.2.1
 _ZN10Qt3DRender6Render32ComputeFilteredBoundingVolumeJobC2Ev@Base 6.2.1
 _ZN10Qt3DRender6Render37parametersFromMaterialEffectTechniqueEP5QListINS0_13ParameterInfoEEPNS0_16ParameterManagerEPNS0_8MaterialEPNS0_6EffectEPNS0_9TechniqueE@Base 6.2.1
 _ZN10Qt3DRender6Render5Joint16syncFromFrontEndEPKN8Qt3DCore5QNodeEb@Base 6.2.1
 _ZN10Qt3DRender6Render5Joint7cleanupEv@Base 6.2.1
 _ZN10Qt3DRender6Render5JointC1Ev@Base 6.2.1
 _ZN10Qt3DRender6Render5JointC2Ev@Base 6.2.1
 _ZN10Qt3DRender6Render5Light16syncFromFrontEndEPKN8Qt3DCore5QNodeEb@Base 6.2.1
 _ZN10Qt3DRender6Render5Scene15setSceneManagerEPNS0_12SceneManagerE@Base 6.2.1
 _ZN10Qt3DRender6Render5Scene16syncFromFrontEndEPKN8Qt3DCore5QNodeEb@Base 6.2.1
 _ZN10Qt3DRender6Render5Scene7cleanupEv@Base 6.2.1
 _ZN10Qt3DRender6Render5SceneC1Ev@Base 6.2.1
 _ZN10Qt3DRender6Render5SceneC2Ev@Base 6.2.1
 _ZN10Qt3DRender6Render6Buffer10setManagerEPNS0_13BufferManagerE@Base 6.2.1
 _ZN10Qt3DRender6Render6Buffer10unsetDirtyEv@Base 6.2.1
 _ZN10Qt3DRender6Render6Buffer15forceDataUploadEv@Base 6.2.1
 _ZN10Qt3DRender6Render6Buffer16syncFromFrontEndEPKN8Qt3DCore5QNodeEb@Base 6.2.1
 _ZN10Qt3DRender6Render6Buffer22updateDataFromGPUToCPUE10QByteArray@Base 6.2.1
 _ZN10Qt3DRender6Render6Buffer7cleanupEv@Base 6.2.1
 _ZN10Qt3DRender6Render6BufferC1Ev@Base 6.2.1
 _ZN10Qt3DRender6Render6BufferC2Ev@Base 6.2.1
 _ZN10Qt3DRender6Render6BufferD0Ev@Base 6.2.1
 _ZN10Qt3DRender6Render6BufferD1Ev@Base 6.2.1
 _ZN10Qt3DRender6Render6BufferD2Ev@Base 6.2.1
 _ZN10Qt3DRender6Render6Effect16syncFromFrontEndEPKN8Qt3DCore5QNodeEb@Base 6.2.1
 _ZN10Qt3DRender6Render6Effect21appendRenderTechniqueEN8Qt3DCore7QNodeIdE@Base 6.2.1
 _ZN10Qt3DRender6Render6Effect7cleanupEv@Base 6.2.1
 _ZN10Qt3DRender6Render6EffectC1Ev@Base 6.2.1
 _ZN10Qt3DRender6Render6EffectC2Ev@Base 6.2.1
 _ZN10Qt3DRender6Render6EffectD0Ev@Base 6.2.1
 _ZN10Qt3DRender6Render6EffectD1Ev@Base 6.2.1
 _ZN10Qt3DRender6Render6EffectD2Ev@Base 6.2.1
 _ZN10Qt3DRender6Render6Entity12addComponentEN8Qt3DCore15QNodeIdTypePairE@Base 6.2.1
 _ZN10Qt3DRender6Render6Entity14worldTransformEv@Base 6.2.1
 _ZN10Qt3DRender6Render6Entity15removeComponentEN8Qt3DCore7QNodeIdE@Base 6.2.1
 _ZN10Qt3DRender6Render6Entity15setNodeManagersEPNS0_12NodeManagersE@Base 6.2.1
 _ZN10Qt3DRender6Render6Entity15setParentHandleEN8Qt3DCore7QHandleIS1_EE@Base 6.2.1
 _ZN10Qt3DRender6Render6Entity16syncFromFrontEndEPKN8Qt3DCore5QNodeEb@Base 6.2.1
 _ZN10Qt3DRender6Render6Entity19addRecursiveLayerIdEN8Qt3DCore7QNodeIdE@Base 6.2.1
 _ZN10Qt3DRender6Render6Entity22removeRecursiveLayerIdEN8Qt3DCore7QNodeIdE@Base 6.2.1
 _ZN10Qt3DRender6Render6Entity24unsetBoundingVolumeDirtyEv@Base 6.2.1
 _ZN10Qt3DRender6Render6Entity28removeFromParentChildHandlesEv@Base 6.2.1
 _ZN10Qt3DRender6Render6Entity7cleanupEv@Base 6.2.1
 _ZN10Qt3DRender6Render6Entity8traverseERKSt8functionIFvPS1_EE@Base 6.2.1
 _ZN10Qt3DRender6Render6Entity9setHandleEN8Qt3DCore7QHandleIS1_EE@Base 6.2.1
 _ZN10Qt3DRender6Render6EntityC1Ev@Base 6.2.1
 _ZN10Qt3DRender6Render6EntityC2Ev@Base 6.2.1
 _ZN10Qt3DRender6Render6EntityD0Ev@Base 6.2.1
 _ZN10Qt3DRender6Render6EntityD1Ev@Base 6.2.1
 _ZN10Qt3DRender6Render6EntityD2Ev@Base 6.2.1
 _ZN10Qt3DRender6Render6NoDrawC1Ev@Base 6.2.1
 _ZN10Qt3DRender6Render6NoDrawC2Ev@Base 6.2.1
 _ZN10Qt3DRender6Render6NoDrawD0Ev@Base 6.2.1
 _ZN10Qt3DRender6Render6NoDrawD1Ev@Base 6.2.1
 _ZN10Qt3DRender6Render6NoDrawD2Ev@Base 6.2.1
 _ZN10Qt3DRender6Render6Shader10timeNameIdE@Base 6.2.1
 _ZN10Qt3DRender6Render6Shader10yUpInFBOIdE@Base 6.2.1
 _ZN10Qt3DRender6Render6Shader10yUpInNDCIdE@Base 6.2.1
 _ZN10Qt3DRender6Render6Shader11gammaNameIdE@Base 6.2.1
 _ZN10Qt3DRender6Render6Shader13setShaderCodeENS_14QShaderProgram10ShaderTypeERK10QByteArray@Base 6.2.1
 _ZN10Qt3DRender6Render6Shader14exposureNameIdE@Base 6.2.1
 _ZN10Qt3DRender6Render6Shader16syncFromFrontEndEPKN8Qt3DCore5QNodeEb@Base 6.2.1
 _ZN10Qt3DRender6Render6Shader16viewMatrixNameIdE@Base 6.2.1
 _ZN10Qt3DRender6Render6Shader17aspectRatioNameIdE@Base 6.2.1
 _ZN10Qt3DRender6Render6Shader17eyePositionNameIdE@Base 6.2.1
 _ZN10Qt3DRender6Render6Shader17modelMatrixNameIdE@Base 6.2.1
 _ZN10Qt3DRender6Render6Shader19requestCacheRebuildEv@Base 6.2.1
 _ZN10Qt3DRender6Render6Shader20viewportMatrixNameIdE@Base 6.2.1
 _ZN10Qt3DRender6Render6Shader21modelViewMatrixNameIdE@Base 6.2.1
 _ZN10Qt3DRender6Render6Shader21modelViewNormalNameIdE@Base 6.2.1
 _ZN10Qt3DRender6Render6Shader21skinningPaletteNameIdE@Base 6.2.1
 _ZN10Qt3DRender6Render6Shader22inverseModelViewNameIdE@Base 6.2.1
 _ZN10Qt3DRender6Render6Shader22projectionMatrixNameIdE@Base 6.2.1
 _ZN10Qt3DRender6Render6Shader23initializeFromReferenceERKS1_@Base 6.2.1
 _ZN10Qt3DRender6Render6Shader23inverseViewMatrixNameIdE@Base 6.2.1
 _ZN10Qt3DRender6Render6Shader23modelNormalMatrixNameIdE@Base 6.2.1
 _ZN10Qt3DRender6Render6Shader24inverseModelMatrixNameIdE@Base 6.2.1
 _ZN10Qt3DRender6Render6Shader25modelViewProjectionNameIdE@Base 6.2.1
 _ZN10Qt3DRender6Render6Shader26viewProjectionMatrixNameIdE@Base 6.2.1
 _ZN10Qt3DRender6Render6Shader27inverseViewportMatrixNameIdE@Base 6.2.1
 _ZN10Qt3DRender6Render6Shader28textureTransformMatrixNameIdE@Base 6.2.1
 _ZN10Qt3DRender6Render6Shader29inverseProjectionMatrixNameIdE@Base 6.2.1
 _ZN10Qt3DRender6Render6Shader32inverseModelViewProjectionNameIdE@Base 6.2.1
 _ZN10Qt3DRender6Render6Shader33inverseViewProjectionMatrixNameIdE@Base 6.2.1
 _ZN10Qt3DRender6Render6Shader6setLogERK7QString@Base 6.2.1
 _ZN10Qt3DRender6Render6Shader7cleanupEv@Base 6.2.1
 _ZN10Qt3DRender6Render6Shader9mvpNameIdE@Base 6.2.1
 _ZN10Qt3DRender6Render6Shader9setFormatENS_14QShaderProgram6FormatE@Base 6.2.1
 _ZN10Qt3DRender6Render6Shader9setStatusENS_14QShaderProgram6StatusE@Base 6.2.1
 _ZN10Qt3DRender6Render6ShaderC1Ev@Base 6.2.1
 _ZN10Qt3DRender6Render6ShaderC2Ev@Base 6.2.1
 _ZN10Qt3DRender6Render6ShaderD0Ev@Base 6.2.1
 _ZN10Qt3DRender6Render6ShaderD1Ev@Base 6.2.1
 _ZN10Qt3DRender6Render6ShaderD2Ev@Base 6.2.1
 (arch=!amd64)_ZN10Qt3DRender6Render6Sphere10fromPointsERK5QListI9QVector3DE@Base 6.2.2
 (arch=amd64)_ZN10Qt3DRender6Render6Sphere10fromPointsERK5QListIN8Qt3DCore12Vector3D_SSEEE@Base 6.2.2
 _ZN10Qt3DRender6Render6Sphere10ms_epsilonE@Base 6.2.1
 (arch=!amd64)_ZN10Qt3DRender6Render6Sphere15expandToContainERK9QVector3D@Base 6.2.2
 (arch=amd64)_ZN10Qt3DRender6Render6Sphere15expandToContainERKN8Qt3DCore12Vector3D_SSEE@Base 6.2.2
 _ZN10Qt3DRender6Render6Sphere15expandToContainERKS1_@Base 6.2.1
 (arch=!amd64)_ZN10Qt3DRender6Render6Sphere20initializeFromPointsERK5QListI9QVector3DE@Base 6.2.2
 (arch=amd64)_ZN10Qt3DRender6Render6Sphere20initializeFromPointsERK5QListIN8Qt3DCore12Vector3D_SSEEE@Base 6.2.2
 _ZN10Qt3DRender6Render7Texture10dirtyFlagsEv@Base 6.2.1
 _ZN10Qt3DRender6Render7Texture10unsetDirtyEv@Base 6.2.1
 _ZN10Qt3DRender6Render7Texture12addDirtyFlagE6QFlagsINS1_9DirtyFlagEE@Base 6.2.1
 _ZN10Qt3DRender6Render7Texture16setDataGeneratorERK14QSharedPointerINS_17QTextureGeneratorEE@Base 6.2.1
 _ZN10Qt3DRender6Render7Texture16syncFromFrontEndEPKN8Qt3DCore5QNodeEb@Base 6.2.1
 _ZN10Qt3DRender6Render7Texture20addTextureDataUpdateERKNS_18QTextureDataUpdateE@Base 6.2.1
 _ZN10Qt3DRender6Render7Texture7cleanupEv@Base 6.2.1
 _ZN10Qt3DRender6Render7TextureC1Ev@Base 6.2.1
 _ZN10Qt3DRender6Render7TextureC2Ev@Base 6.2.1
 _ZN10Qt3DRender6Render7TextureD0Ev@Base 6.2.1
 _ZN10Qt3DRender6Render7TextureD1Ev@Base 6.2.1
 _ZN10Qt3DRender6Render7TextureD2Ev@Base 6.2.1
 _ZN10Qt3DRender6Render8Armature16syncFromFrontEndEPKN8Qt3DCore5QNodeEb@Base 6.2.1
 _ZN10Qt3DRender6Render8Armature7cleanupEv@Base 6.2.1
 _ZN10Qt3DRender6Render8ArmatureC1Ev@Base 6.2.1
 _ZN10Qt3DRender6Render8ArmatureC2Ev@Base 6.2.1
 _ZN10Qt3DRender6Render8CullFace16updatePropertiesEPKNS_12QRenderStateE@Base 6.2.1
 _ZN10Qt3DRender6Render8Geometry10unsetDirtyEv@Base 6.2.1
 _ZN10Qt3DRender6Render8Geometry12updateExtentERK9QVector3DS4_@Base 6.2.1
 _ZN10Qt3DRender6Render8Geometry16syncFromFrontEndEPKN8Qt3DCore5QNodeEb@Base 6.2.1
 _ZN10Qt3DRender6Render8Geometry7cleanupEv@Base 6.2.1
 _ZN10Qt3DRender6Render8GeometryC1Ev@Base 6.2.1
 _ZN10Qt3DRender6Render8GeometryC2Ev@Base 6.2.1
 _ZN10Qt3DRender6Render8GeometryD0Ev@Base 6.2.1
 _ZN10Qt3DRender6Render8GeometryD1Ev@Base 6.2.1
 _ZN10Qt3DRender6Render8GeometryD2Ev@Base 6.2.1
 _ZN10Qt3DRender6Render8Material16syncFromFrontEndEPKN8Qt3DCore5QNodeEb@Base 6.2.1
 _ZN10Qt3DRender6Render8Material7cleanupEv@Base 6.2.1
 _ZN10Qt3DRender6Render8MaterialC1Ev@Base 6.2.1
 _ZN10Qt3DRender6Render8MaterialC2Ev@Base 6.2.1
 _ZN10Qt3DRender6Render8MaterialD0Ev@Base 6.2.1
 _ZN10Qt3DRender6Render8MaterialD1Ev@Base 6.2.1
 _ZN10Qt3DRender6Render8MaterialD2Ev@Base 6.2.1
 _ZN10Qt3DRender6Render8SetFenceC1Ev@Base 6.2.1
 _ZN10Qt3DRender6Render8SetFenceC2Ev@Base 6.2.1
 _ZN10Qt3DRender6Render8SetFenceD0Ev@Base 6.2.1
 _ZN10Qt3DRender6Render8SetFenceD1Ev@Base 6.2.1
 _ZN10Qt3DRender6Render8SetFenceD2Ev@Base 6.2.1
 _ZN10Qt3DRender6Render8Skeleton12setLocalPoseEN8Qt3DCore7QHandleINS0_5JointEEERKNS2_3SqtE@Base 6.2.1
 _ZN10Qt3DRender6Render8Skeleton15setSkeletonDataERKNS0_12SkeletonDataE@Base 6.2.1
 _ZN10Qt3DRender6Render8Skeleton16syncFromFrontEndEPKN8Qt3DCore5QNodeEb@Base 6.2.1
 _ZN10Qt3DRender6Render8Skeleton30calculateSkinningMatrixPaletteEv@Base 6.2.1
 _ZN10Qt3DRender6Render8Skeleton7cleanupEv@Base 6.2.1
 _ZN10Qt3DRender6Render8Skeleton9clearDataEv@Base 6.2.1
 _ZN10Qt3DRender6Render8Skeleton9setStatusEN8Qt3DCore15QSkeletonLoader6StatusE@Base 6.2.1
 _ZN10Qt3DRender6Render8SkeletonC1Ev@Base 6.2.1
 _ZN10Qt3DRender6Render8SkeletonC2Ev@Base 6.2.1
 _ZN10Qt3DRender6Render9AlphaFunc16updatePropertiesEPKNS_12QRenderStateE@Base 6.2.1
 _ZN10Qt3DRender6Render9Attribute10unsetDirtyEv@Base 6.2.1
 _ZN10Qt3DRender6Render9Attribute16syncFromFrontEndEPKN8Qt3DCore5QNodeEb@Base 6.2.1
 _ZN10Qt3DRender6Render9Attribute7cleanupEv@Base 6.2.1
 _ZN10Qt3DRender6Render9AttributeC1Ev@Base 6.2.1
 _ZN10Qt3DRender6Render9AttributeC2Ev@Base 6.2.1
 _ZN10Qt3DRender6Render9AttributeD0Ev@Base 6.2.1
 _ZN10Qt3DRender6Render9AttributeD1Ev@Base 6.2.1
 _ZN10Qt3DRender6Render9AttributeD2Ev@Base 6.2.1
 _ZN10Qt3DRender6Render9ClipPlane16updatePropertiesEPKNS_12QRenderStateE@Base 6.2.1
 _ZN10Qt3DRender6Render9ColorMask16updatePropertiesEPKNS_12QRenderStateE@Base 6.2.1
 _ZN10Qt3DRender6Render9DepthTest16updatePropertiesEPKNS_12QRenderStateE@Base 6.2.1
 _ZN10Qt3DRender6Render9FilterKey16syncFromFrontEndEPKN8Qt3DCore5QNodeEb@Base 6.2.1
 _ZN10Qt3DRender6Render9FilterKey7cleanupEv@Base 6.2.1
 _ZN10Qt3DRender6Render9FilterKeyC1Ev@Base 6.2.1
 _ZN10Qt3DRender6Render9FilterKeyC2Ev@Base 6.2.1
 _ZN10Qt3DRender6Render9FilterKeyD0Ev@Base 6.2.1
 _ZN10Qt3DRender6Render9FilterKeyD1Ev@Base 6.2.1
 _ZN10Qt3DRender6Render9FilterKeyD2Ev@Base 6.2.1
 _ZN10Qt3DRender6Render9FilterKeyeqERKS1_@Base 6.2.1
 _ZN10Qt3DRender6Render9FilterKeyneERKS1_@Base 6.2.1
 _ZN10Qt3DRender6Render9FrontFace16updatePropertiesEPKNS_12QRenderStateE@Base 6.2.1
 _ZN10Qt3DRender6Render9LineWidth16updatePropertiesEPKNS_12QRenderStateE@Base 6.2.1
 _ZN10Qt3DRender6Render9Parameter16syncFromFrontEndEPKN8Qt3DCore5QNodeEb@Base 6.2.1
 _ZN10Qt3DRender6Render9Parameter7cleanupEv@Base 6.2.1
 _ZN10Qt3DRender6Render9ParameterC1Ev@Base 6.2.1
 _ZN10Qt3DRender6Render9ParameterC2Ev@Base 6.2.1
 _ZN10Qt3DRender6Render9PointSize16updatePropertiesEPKNS_12QRenderStateE@Base 6.2.1
 _ZN10Qt3DRender6Render9RayCaster16syncFromFrontEndEPKN8Qt3DCore5QNodeEb@Base 6.2.1
 _ZN10Qt3DRender6Render9RayCaster7cleanupEv@Base 6.2.1
 _ZN10Qt3DRender6Render9RayCaster9notifyJobEv@Base 6.2.1
 _ZN10Qt3DRender6Render9RayCasterC1Ev@Base 6.2.1
 _ZN10Qt3DRender6Render9RayCasterC2Ev@Base 6.2.1
 _ZN10Qt3DRender6Render9RayCasterD0Ev@Base 6.2.1
 _ZN10Qt3DRender6Render9RayCasterD1Ev@Base 6.2.1
 _ZN10Qt3DRender6Render9RayCasterD2Ev@Base 6.2.1
 _ZN10Qt3DRender6Render9StencilOp16updatePropertiesEPKNS_12QRenderStateE@Base 6.2.1
 _ZN10Qt3DRender6Render9Technique14setNodeManagerEPNS0_12NodeManagersE@Base 6.2.1
 _ZN10Qt3DRender6Render9Technique15appendFilterKeyEN8Qt3DCore7QNodeIdE@Base 6.2.1
 _ZN10Qt3DRender6Render9Technique15removeFilterKeyEN8Qt3DCore7QNodeIdE@Base 6.2.1
 _ZN10Qt3DRender6Render9Technique16appendRenderPassEN8Qt3DCore7QNodeIdE@Base 6.2.1
 _ZN10Qt3DRender6Render9Technique16removeRenderPassEN8Qt3DCore7QNodeIdE@Base 6.2.1
 _ZN10Qt3DRender6Render9Technique16syncFromFrontEndEPKN8Qt3DCore5QNodeEb@Base 6.2.1
 _ZN10Qt3DRender6Render9Technique23isCompatibleWithFiltersERK5QListIN8Qt3DCore7QNodeIdEE@Base 6.2.1
 _ZN10Qt3DRender6Render9Technique25setCompatibleWithRendererEb@Base 6.2.1
 _ZN10Qt3DRender6Render9Technique7cleanupEv@Base 6.2.1
 _ZN10Qt3DRender6Render9TechniqueC1Ev@Base 6.2.1
 _ZN10Qt3DRender6Render9TechniqueC2Ev@Base 6.2.1
 _ZN10Qt3DRender6Render9TechniqueD0Ev@Base 6.2.1
 _ZN10Qt3DRender6Render9TechniqueD1Ev@Base 6.2.1
 _ZN10Qt3DRender6Render9TechniqueD2Ev@Base 6.2.1
 _ZN10Qt3DRender6Render9Transform12updateMatrixEv@Base 6.2.1
 _ZN10Qt3DRender6Render9Transform16syncFromFrontEndEPKN8Qt3DCore5QNodeEb@Base 6.2.1
 _ZN10Qt3DRender6Render9Transform7cleanupEv@Base 6.2.1
 _ZN10Qt3DRender6Render9TransformC1Ev@Base 6.2.1
 _ZN10Qt3DRender6Render9TransformC2Ev@Base 6.2.1
 _ZN10Qt3DRender6RendereqERKNS0_10AttachmentES3_@Base 6.2.1
 _ZN10Qt3DRender6RendereqERKNS0_14AttachmentPackES3_@Base 6.2.1
 _ZN10Qt3DRender6RenderlsE6QDebugRKNS0_6SphereE@Base 6.2.1
 _ZN10Qt3DRender6RenderneERKNS0_10AttachmentES3_@Base 6.2.1
 _ZN10Qt3DRender6RenderneERKNS0_14AttachmentPackES3_@Base 6.2.1
 _ZN10Qt3DRender7QCamera10topChangedEf@Base 6.2.1
 _ZN10Qt3DRender7QCamera10viewEntityEPN8Qt3DCore7QEntityE@Base 6.2.1
 _ZN10Qt3DRender7QCamera10viewSphereERK9QVector3Df@Base 6.2.1
 _ZN10Qt3DRender7QCamera11leftChangedEf@Base 6.2.1
 _ZN10Qt3DRender7QCamera11qt_metacallEN11QMetaObject4CallEiPPv@Base 6.2.1
 _ZN10Qt3DRender7QCamera11qt_metacastEPKc@Base 6.2.1
 _ZN10Qt3DRender7QCamera11setExposureEf@Base 6.2.1
 _ZN10Qt3DRender7QCamera11setFarPlaneEf@Base 6.2.1
 _ZN10Qt3DRender7QCamera11setPositionERK9QVector3D@Base 6.2.1
 _ZN10Qt3DRender7QCamera11setUpVectorERK9QVector3D@Base 6.2.1
 _ZN10Qt3DRender7QCamera12rightChangedEf@Base 6.2.1
 _ZN10Qt3DRender7QCamera12setNearPlaneEf@Base 6.2.1
 _ZN10Qt3DRender7QCamera13bottomChangedEf@Base 6.2.1
 _ZN10Qt3DRender7QCamera13setViewCenterERK9QVector3D@Base 6.2.1
 _ZN10Qt3DRender7QCamera14setAspectRatioEf@Base 6.2.1
 _ZN10Qt3DRender7QCamera14setFieldOfViewEf@Base 6.2.1
 _ZN10Qt3DRender7QCamera14translateWorldERK9QVector3DNS0_23CameraTranslationOptionE@Base 6.2.1
 _ZN10Qt3DRender7QCamera15exposureChangedEf@Base 6.2.1
 _ZN10Qt3DRender7QCamera15farPlaneChangedEf@Base 6.2.1
 _ZN10Qt3DRender7QCamera15positionChangedERK9QVector3D@Base 6.2.1
 _ZN10Qt3DRender7QCamera15upVectorChangedERK9QVector3D@Base 6.2.1
 _ZN10Qt3DRender7QCamera16nearPlaneChangedEf@Base 6.2.1
 _ZN10Qt3DRender7QCamera16staticMetaObjectE@Base 6.2.1
 _ZN10Qt3DRender7QCamera17setProjectionTypeENS_11QCameraLens14ProjectionTypeE@Base 6.2.1
 _ZN10Qt3DRender7QCamera17viewCenterChangedERK9QVector3D@Base 6.2.1
 _ZN10Qt3DRender7QCamera17viewMatrixChangedEv@Base 6.2.1
 _ZN10Qt3DRender7QCamera17viewVectorChangedERK9QVector3D@Base 6.2.1
 _ZN10Qt3DRender7QCamera18aspectRatioChangedEf@Base 6.2.1
 _ZN10Qt3DRender7QCamera18fieldOfViewChangedEf@Base 6.2.1
 _ZN10Qt3DRender7QCamera18panAboutViewCenterEf@Base 6.2.1
 _ZN10Qt3DRender7QCamera18panAboutViewCenterEfRK9QVector3D@Base 6.2.1
 _ZN10Qt3DRender7QCamera19rollAboutViewCenterEf@Base 6.2.1
 _ZN10Qt3DRender7QCamera19setProjectionMatrixERK10QMatrix4x4@Base 6.2.1
 _ZN10Qt3DRender7QCamera19tiltAboutViewCenterEf@Base 6.2.1
 _ZN10Qt3DRender7QCamera21projectionTypeChangedENS_11QCameraLens14ProjectionTypeE@Base 6.2.1
 _ZN10Qt3DRender7QCamera21rotateAboutViewCenterERK11QQuaternion@Base 6.2.1
 _ZN10Qt3DRender7QCamera23projectionMatrixChangedERK10QMatrix4x4@Base 6.2.1
 _ZN10Qt3DRender7QCamera3panEf@Base 6.2.1
 _ZN10Qt3DRender7QCamera3panEfRK9QVector3D@Base 6.2.1
 _ZN10Qt3DRender7QCamera4rollEf@Base 6.2.1
 _ZN10Qt3DRender7QCamera4tiltEf@Base 6.2.1
 _ZN10Qt3DRender7QCamera6rotateERK11QQuaternion@Base 6.2.1
 _ZN10Qt3DRender7QCamera6setTopEf@Base 6.2.1
 _ZN10Qt3DRender7QCamera7setLeftEf@Base 6.2.1
 _ZN10Qt3DRender7QCamera7viewAllEv@Base 6.2.1
 _ZN10Qt3DRender7QCamera8setRightEf@Base 6.2.1
 _ZN10Qt3DRender7QCamera9setBottomEf@Base 6.2.1
 _ZN10Qt3DRender7QCamera9translateERK9QVector3DNS0_23CameraTranslationOptionE@Base 6.2.1
 _ZN10Qt3DRender7QCameraC1EPN8Qt3DCore5QNodeE@Base 6.2.1
 _ZN10Qt3DRender7QCameraC1ERNS_14QCameraPrivateEPN8Qt3DCore5QNodeE@Base 6.2.1
 _ZN10Qt3DRender7QCameraC2EPN8Qt3DCore5QNodeE@Base 6.2.1
 _ZN10Qt3DRender7QCameraC2ERNS_14QCameraPrivateEPN8Qt3DCore5QNodeE@Base 6.2.1
 _ZN10Qt3DRender7QCameraD0Ev@Base 6.2.1
 _ZN10Qt3DRender7QCameraD1Ev@Base 6.2.1
 _ZN10Qt3DRender7QCameraD2Ev@Base 6.2.1
 _ZN10Qt3DRender7QEffect11qt_metacallEN11QMetaObject4CallEiPPv@Base 6.2.1
 _ZN10Qt3DRender7QEffect11qt_metacastEPKc@Base 6.2.1
 _ZN10Qt3DRender7QEffect12addParameterEPNS_10QParameterE@Base 6.2.1
 _ZN10Qt3DRender7QEffect12addTechniqueEPNS_10QTechniqueE@Base 6.2.1
 _ZN10Qt3DRender7QEffect15removeParameterEPNS_10QParameterE@Base 6.2.1
 _ZN10Qt3DRender7QEffect15removeTechniqueEPNS_10QTechniqueE@Base 6.2.1
 _ZN10Qt3DRender7QEffect16staticMetaObjectE@Base 6.2.1
 _ZN10Qt3DRender7QEffectC1EPN8Qt3DCore5QNodeE@Base 6.2.1
 _ZN10Qt3DRender7QEffectC1ERNS_14QEffectPrivateEPN8Qt3DCore5QNodeE@Base 6.2.1
 _ZN10Qt3DRender7QEffectC2EPN8Qt3DCore5QNodeE@Base 6.2.1
 _ZN10Qt3DRender7QEffectC2ERNS_14QEffectPrivateEPN8Qt3DCore5QNodeE@Base 6.2.1
 _ZN10Qt3DRender7QEffectD0Ev@Base 6.2.1
 _ZN10Qt3DRender7QEffectD1Ev@Base 6.2.1
 _ZN10Qt3DRender7QEffectD2Ev@Base 6.2.1
 _ZN10Qt3DRender7QNoDraw11qt_metacallEN11QMetaObject4CallEiPPv@Base 6.2.1
 _ZN10Qt3DRender7QNoDraw11qt_metacastEPKc@Base 6.2.1
 _ZN10Qt3DRender7QNoDraw16staticMetaObjectE@Base 6.2.1
 _ZN10Qt3DRender7QNoDrawC1EPN8Qt3DCore5QNodeE@Base 6.2.1
 _ZN10Qt3DRender7QNoDrawC2EPN8Qt3DCore5QNodeE@Base 6.2.1
 _ZN10Qt3DRender7QNoDrawD0Ev@Base 6.2.1
 _ZN10Qt3DRender7QNoDrawD1Ev@Base 6.2.1
 _ZN10Qt3DRender7QNoDrawD2Ev@Base 6.2.1
 _ZN10Qt3DRender9QCullFace11modeChangedENS0_11CullingModeE@Base 6.2.1
 _ZN10Qt3DRender9QCullFace11qt_metacallEN11QMetaObject4CallEiPPv@Base 6.2.1
 _ZN10Qt3DRender9QCullFace11qt_metacastEPKc@Base 6.2.1
 _ZN10Qt3DRender9QCullFace16staticMetaObjectE@Base 6.2.1
 _ZN10Qt3DRender9QCullFace7setModeENS0_11CullingModeE@Base 6.2.1
 _ZN10Qt3DRender9QCullFaceC1EPN8Qt3DCore5QNodeE@Base 6.2.1
 _ZN10Qt3DRender9QCullFaceC2EPN8Qt3DCore5QNodeE@Base 6.2.1
 _ZN10Qt3DRender9QCullFaceD0Ev@Base 6.2.1
 _ZN10Qt3DRender9QCullFaceD1Ev@Base 6.2.1
 _ZN10Qt3DRender9QCullFaceD2Ev@Base 6.2.1
 _ZN10Qt3DRender9QMaterial11qt_metacallEN11QMetaObject4CallEiPPv@Base 6.2.1
 _ZN10Qt3DRender9QMaterial11qt_metacastEPKc@Base 6.2.1
 _ZN10Qt3DRender9QMaterial12addParameterEPNS_10QParameterE@Base 6.2.1
 _ZN10Qt3DRender9QMaterial13effectChangedEPNS_7QEffectE@Base 6.2.1
 _ZN10Qt3DRender9QMaterial15removeParameterEPNS_10QParameterE@Base 6.2.1
 _ZN10Qt3DRender9QMaterial16staticMetaObjectE@Base 6.2.1
 _ZN10Qt3DRender9QMaterial9setEffectEPNS_7QEffectE@Base 6.2.1
 _ZN10Qt3DRender9QMaterialC1EPN8Qt3DCore5QNodeE@Base 6.2.1
 _ZN10Qt3DRender9QMaterialC1ERNS_16QMaterialPrivateEPN8Qt3DCore5QNodeE@Base 6.2.1
 _ZN10Qt3DRender9QMaterialC2EPN8Qt3DCore5QNodeE@Base 6.2.1
 _ZN10Qt3DRender9QMaterialC2ERNS_16QMaterialPrivateEPN8Qt3DCore5QNodeE@Base 6.2.1
 _ZN10Qt3DRender9QMaterialD0Ev@Base 6.2.1
 _ZN10Qt3DRender9QMaterialD1Ev@Base 6.2.1
 _ZN10Qt3DRender9QMaterialD2Ev@Base 6.2.1
 _ZN10Qt3DRender9QSetFence11qt_metacallEN11QMetaObject4CallEiPPv@Base 6.2.1
 _ZN10Qt3DRender9QSetFence11qt_metacastEPKc@Base 6.2.1
 _ZN10Qt3DRender9QSetFence13handleChangedE8QVariant@Base 6.2.1
 _ZN10Qt3DRender9QSetFence16staticMetaObjectE@Base 6.2.1
 _ZN10Qt3DRender9QSetFence17handleTypeChangedENS0_10HandleTypeE@Base 6.2.1
 _ZN10Qt3DRender9QSetFenceC1EPN8Qt3DCore5QNodeE@Base 6.2.1
 _ZN10Qt3DRender9QSetFenceC1ERNS_16QSetFencePrivateEPN8Qt3DCore5QNodeE@Base 6.2.1
 _ZN10Qt3DRender9QSetFenceC2EPN8Qt3DCore5QNodeE@Base 6.2.1
 _ZN10Qt3DRender9QSetFenceC2ERNS_16QSetFencePrivateEPN8Qt3DCore5QNodeE@Base 6.2.1
 _ZN10Qt3DRender9QSetFenceD0Ev@Base 6.2.1
 _ZN10Qt3DRender9QSetFenceD1Ev@Base 6.2.1
 _ZN10Qt3DRender9QSetFenceD2Ev@Base 6.2.1
 _ZN10Qt3DRender9QViewport11qt_metacallEN11QMetaObject4CallEiPPv@Base 6.2.1
 _ZN10Qt3DRender9QViewport11qt_metacastEPKc@Base 6.2.1
 _ZN10Qt3DRender9QViewport12gammaChangedEf@Base 6.2.1
 _ZN10Qt3DRender9QViewport16staticMetaObjectE@Base 6.2.1
 _ZN10Qt3DRender9QViewport17setNormalizedRectERK6QRectF@Base 6.2.1
 _ZN10Qt3DRender9QViewport21normalizedRectChangedERK6QRectF@Base 6.2.1
 _ZN10Qt3DRender9QViewport8setGammaEf@Base 6.2.1
 _ZN10Qt3DRender9QViewportC1EPN8Qt3DCore5QNodeE@Base 6.2.1
 _ZN10Qt3DRender9QViewportC1ERNS_16QViewportPrivateEPN8Qt3DCore5QNodeE@Base 6.2.1
 _ZN10Qt3DRender9QViewportC2EPN8Qt3DCore5QNodeE@Base 6.2.1
 _ZN10Qt3DRender9QViewportC2ERNS_16QViewportPrivateEPN8Qt3DCore5QNodeE@Base 6.2.1
 _ZN10Qt3DRender9QViewportD0Ev@Base 6.2.1
 _ZN10Qt3DRender9QViewportD1Ev@Base 6.2.1
 _ZN10Qt3DRender9QViewportD2Ev@Base 6.2.1
 _ZN10Qt3DRendereqERKNS_11QShaderNode4RuleES3_@Base 6.2.1
 _ZN10Qt3DRendereqERKNS_12QShaderGraph4EdgeES3_@Base 6.2.1
 _ZN10Qt3DRendereqERKNS_12QShaderGraph9StatementES3_@Base 6.2.1
 _ZN10Qt3DRendereqERKNS_13QShaderFormatES2_@Base 6.2.1
 _ZN10Qt3DRendereqERKNS_15QShaderNodePortES2_@Base 6.2.1
 _ZN10Qt3DRendereqERKNS_18QTextureDataUpdateES2_@Base 6.2.1
 _ZN13QMetaSequence12MetaSequenceI5QListIN10Qt3DRender11QSortPolicy8SortTypeEEE5valueE@Base 6.2.1
 _ZN13QMetaSequence12MetaSequenceI5QListIN10Qt3DRender13QRayCasterHitEEE5valueE@Base 6.2.1
 _ZN13QMetaSequence12MetaSequenceI5QListIPN10Qt3DRender11QShaderDataEEE5valueE@Base 6.2.1
 _ZN13QMetaSequence12MetaSequenceI5QListIdEE5valueE@Base 6.2.1
 _ZN13QMetaSequence12MetaSequenceI5QListIiEE5valueE@Base 6.2.1
 _ZN15QShaderLanguage16staticMetaObjectE@Base 6.2.1
 _ZNK10Qt3DRender10QAlphaTest10metaObjectEv@Base 6.2.1
 _ZNK10Qt3DRender10QAlphaTest13alphaFunctionEv@Base 6.2.1
 _ZNK10Qt3DRender10QAlphaTest14referenceValueEv@Base 6.2.1
 _ZNK10Qt3DRender10QClipPlane10metaObjectEv@Base 6.2.1
 _ZNK10Qt3DRender10QClipPlane10planeIndexEv@Base 6.2.1
 _ZNK10Qt3DRender10QClipPlane6normalEv@Base 6.2.1
 _ZNK10Qt3DRender10QClipPlane8distanceEv@Base 6.2.1
 _ZNK10Qt3DRender10QColorMask10metaObjectEv@Base 6.2.1
 _ZNK10Qt3DRender10QColorMask11isRedMaskedEv@Base 6.2.1
 _ZNK10Qt3DRender10QColorMask12isBlueMaskedEv@Base 6.2.1
 _ZNK10Qt3DRender10QColorMask13isAlphaMaskedEv@Base 6.2.1
 _ZNK10Qt3DRender10QColorMask13isGreenMaskedEv@Base 6.2.1
 _ZNK10Qt3DRender10QDepthTest10metaObjectEv@Base 6.2.1
 _ZNK10Qt3DRender10QDepthTest13depthFunctionEv@Base 6.2.1
 _ZNK10Qt3DRender10QDithering10metaObjectEv@Base 6.2.1
 _ZNK10Qt3DRender10QFilterKey10metaObjectEv@Base 6.2.1
 _ZNK10Qt3DRender10QFilterKey4nameEv@Base 6.2.1
 _ZNK10Qt3DRender10QFilterKey5valueEv@Base 6.2.1
 _ZNK10Qt3DRender10QFrontFace10metaObjectEv@Base 6.2.1
 _ZNK10Qt3DRender10QFrontFace9directionEv@Base 6.2.1
 _ZNK10Qt3DRender10QLineWidth10metaObjectEv@Base 6.2.1
 _ZNK10Qt3DRender10QLineWidth5valueEv@Base 6.2.1
 _ZNK10Qt3DRender10QLineWidth6smoothEv@Base 6.2.1
 _ZNK10Qt3DRender10QNoPicking10metaObjectEv@Base 6.2.1
 _ZNK10Qt3DRender10QParameter10metaObjectEv@Base 6.2.1
 _ZNK10Qt3DRender10QParameter4nameEv@Base 6.2.1
 _ZNK10Qt3DRender10QParameter5valueEv@Base 6.2.1
 _ZNK10Qt3DRender10QPickEvent10isAcceptedEv@Base 6.2.1
 _ZNK10Qt3DRender10QPickEvent10metaObjectEv@Base 6.2.1
 _ZNK10Qt3DRender10QPickEvent17localIntersectionEv@Base 6.2.1
 _ZNK10Qt3DRender10QPickEvent17worldIntersectionEv@Base 6.2.1
 _ZNK10Qt3DRender10QPickEvent6buttonEv@Base 6.2.1
 _ZNK10Qt3DRender10QPickEvent6entityEv@Base 6.2.1
 _ZNK10Qt3DRender10QPickEvent7buttonsEv@Base 6.2.1
 _ZNK10Qt3DRender10QPickEvent8distanceEv@Base 6.2.1
 _ZNK10Qt3DRender10QPickEvent8positionEv@Base 6.2.1
 _ZNK10Qt3DRender10QPickEvent8viewportEv@Base 6.2.1
 _ZNK10Qt3DRender10QPickEvent9modifiersEv@Base 6.2.1
 _ZNK10Qt3DRender10QPointSize10metaObjectEv@Base 6.2.1
 _ZNK10Qt3DRender10QPointSize5valueEv@Base 6.2.1
 _ZNK10Qt3DRender10QPointSize8sizeModeEv@Base 6.2.1
 _ZNK10Qt3DRender10QRayCaster10metaObjectEv@Base 6.2.1
 _ZNK10Qt3DRender10QRayCaster6lengthEv@Base 6.2.1
 _ZNK10Qt3DRender10QRayCaster6originEv@Base 6.2.1
 _ZNK10Qt3DRender10QRayCaster9directionEv@Base 6.2.1
 _ZNK10Qt3DRender10QSpotLight10metaObjectEv@Base 6.2.1
 _ZNK10Qt3DRender10QSpotLight11cutOffAngleEv@Base 6.2.1
 _ZNK10Qt3DRender10QSpotLight14localDirectionEv@Base 6.2.1
 _ZNK10Qt3DRender10QSpotLight17linearAttenuationEv@Base 6.2.1
 _ZNK10Qt3DRender10QSpotLight19constantAttenuationEv@Base 6.2.1
 _ZNK10Qt3DRender10QSpotLight20quadraticAttenuationEv@Base 6.2.1
 _ZNK10Qt3DRender10QTechnique10filterKeysEv@Base 6.2.1
 _ZNK10Qt3DRender10QTechnique10metaObjectEv@Base 6.2.1
 _ZNK10Qt3DRender10QTechnique10parametersEv@Base 6.2.1
 _ZNK10Qt3DRender10QTechnique12renderPassesEv@Base 6.2.1
 _ZNK10Qt3DRender10QTechnique17graphicsApiFilterEv@Base 6.2.1
 _ZNK10Qt3DRender10QTexture1D10metaObjectEv@Base 6.2.1
 _ZNK10Qt3DRender10QTexture2D10metaObjectEv@Base 6.2.1
 _ZNK10Qt3DRender10QTexture3D10metaObjectEv@Base 6.2.1
 _ZNK10Qt3DRender10QWaitFence10handleTypeEv@Base 6.2.1
 _ZNK10Qt3DRender10QWaitFence10metaObjectEv@Base 6.2.1
 _ZNK10Qt3DRender10QWaitFence6handleEv@Base 6.2.1
 _ZNK10Qt3DRender10QWaitFence7timeoutEv@Base 6.2.1
 _ZNK10Qt3DRender10QWaitFence9waitOnCPUEv@Base 6.2.1
 _ZNK10Qt3DRender10RayCasting18QRayCastingService15fetchAllResultsEv@Base 6.2.1
 _ZNK10Qt3DRender10RayCasting21QCollisionQueryResult11entitiesHitEv@Base 6.2.1
 _ZNK10Qt3DRender10RayCasting21QCollisionQueryResult4hitsEv@Base 6.2.1
 _ZNK10Qt3DRender10RayCasting21QCollisionQueryResult6handleEv@Base 6.2.1
 _ZNK10Qt3DRender10RayCasting30QAbstractCollisionQueryService10metaObjectEv@Base 6.2.1
 (arch=!amd64)_ZNK10Qt3DRender10RayCasting6QRay3D11transformedERK10QMatrix4x4@Base 6.2.2
 (arch=amd64)_ZNK10Qt3DRender10RayCasting6QRay3D11transformedERKN8Qt3DCore13Matrix4x4_SSEE@Base 6.2.2
 (arch=!amd64)_ZNK10Qt3DRender10RayCasting6QRay3D17projectedDistanceERK9QVector3D@Base 6.2.2
 (arch=amd64)_ZNK10Qt3DRender10RayCasting6QRay3D17projectedDistanceERKN8Qt3DCore12Vector3D_SSEE@Base 6.2.2
 _ZNK10Qt3DRender10RayCasting6QRay3D5pointEf@Base 6.2.1
 _ZNK10Qt3DRender10RayCasting6QRay3D6originEv@Base 6.2.1
 (arch=!amd64)_ZNK10Qt3DRender10RayCasting6QRay3D7projectERK9QVector3D@Base 6.2.2
 (arch=amd64)_ZNK10Qt3DRender10RayCasting6QRay3D7projectERKN8Qt3DCore12Vector3D_SSEE@Base 6.2.2
 (arch=!amd64)_ZNK10Qt3DRender10RayCasting6QRay3D8containsERK9QVector3D@Base 6.2.2
 (arch=amd64)_ZNK10Qt3DRender10RayCasting6QRay3D8containsERKN8Qt3DCore12Vector3D_SSEE@Base 6.2.2
 _ZNK10Qt3DRender10RayCasting6QRay3D8containsERKS1_@Base 6.2.1
 (arch=!amd64)_ZNK10Qt3DRender10RayCasting6QRay3D8distanceERK9QVector3D@Base 6.2.2
 (arch=amd64)_ZNK10Qt3DRender10RayCasting6QRay3D8distanceERKN8Qt3DCore12Vector3D_SSEE@Base 6.2.2
 _ZNK10Qt3DRender10RayCasting6QRay3D8distanceEv@Base 6.2.1
 _ZNK10Qt3DRender10RayCasting6QRay3D9directionEv@Base 6.2.1
 _ZNK10Qt3DRender10RayCasting6QRay3DeqERKS1_@Base 6.2.1
 _ZNK10Qt3DRender10RayCasting6QRay3DneERKS1_@Base 6.2.1
 _ZNK10Qt3DRender11QCameraLens10metaObjectEv@Base 6.2.1
 _ZNK10Qt3DRender11QCameraLens11aspectRatioEv@Base 6.2.1
 _ZNK10Qt3DRender11QCameraLens11fieldOfViewEv@Base 6.2.1
 _ZNK10Qt3DRender11QCameraLens14projectionTypeEv@Base 6.2.1
 _ZNK10Qt3DRender11QCameraLens16projectionMatrixEv@Base 6.2.1
 _ZNK10Qt3DRender11QCameraLens3topEv@Base 6.2.1
 _ZNK10Qt3DRender11QCameraLens4leftEv@Base 6.2.1
 _ZNK10Qt3DRender11QCameraLens5rightEv@Base 6.2.1
 _ZNK10Qt3DRender11QCameraLens6bottomEv@Base 6.2.1
 _ZNK10Qt3DRender11QCameraLens8exposureEv@Base 6.2.1
 _ZNK10Qt3DRender11QCameraLens8farPlaneEv@Base 6.2.1
 _ZNK10Qt3DRender11QCameraLens9nearPlaneEv@Base 6.2.1
 _ZNK10Qt3DRender11QDepthRange10metaObjectEv@Base 6.2.1
 _ZNK10Qt3DRender11QDepthRange8farValueEv@Base 6.2.1
 _ZNK10Qt3DRender11QDepthRange9nearValueEv@Base 6.2.1
 _ZNK10Qt3DRender11QPointLight10metaObjectEv@Base 6.2.1
 _ZNK10Qt3DRender11QPointLight17linearAttenuationEv@Base 6.2.1
 _ZNK10Qt3DRender11QPointLight19constantAttenuationEv@Base 6.2.1
 _ZNK10Qt3DRender11QPointLight20quadraticAttenuationEv@Base 6.2.1
 _ZNK10Qt3DRender11QRasterMode10metaObjectEv@Base 6.2.1
 _ZNK10Qt3DRender11QRasterMode10rasterModeEv@Base 6.2.1
 _ZNK10Qt3DRender11QRasterMode8faceModeEv@Base 6.2.1
 _ZNK10Qt3DRender11QRenderPass10filterKeysEv@Base 6.2.1
 _ZNK10Qt3DRender11QRenderPass10metaObjectEv@Base 6.2.1
 _ZNK10Qt3DRender11QRenderPass10parametersEv@Base 6.2.1
 _ZNK10Qt3DRender11QRenderPass12renderStatesEv@Base 6.2.1
 _ZNK10Qt3DRender11QRenderPass13shaderProgramEv@Base 6.2.1
 _ZNK10Qt3DRender11QShaderData10metaObjectEv@Base 6.2.1
 _ZNK10Qt3DRender11QShaderData14propertyReaderEv@Base 6.2.1
 _ZNK10Qt3DRender11QShaderNode14parameterNamesEv@Base 6.2.1
 _ZNK10Qt3DRender11QShaderNode16availableFormatsEv@Base 6.2.1
 _ZNK10Qt3DRender11QShaderNode4ruleERKNS_13QShaderFormatE@Base 6.2.1
 _ZNK10Qt3DRender11QShaderNode4typeEv@Base 6.2.1
 _ZNK10Qt3DRender11QShaderNode4uuidEv@Base 6.2.1
 _ZNK10Qt3DRender11QShaderNode5portsEv@Base 6.2.1
 _ZNK10Qt3DRender11QShaderNode6layersEv@Base 6.2.1
 _ZNK10Qt3DRender11QShaderNode9parameterERK7QString@Base 6.2.1
 _ZNK10Qt3DRender11QSortPolicy10metaObjectEv@Base 6.2.1
 _ZNK10Qt3DRender11QSortPolicy12sortTypesIntEv@Base 6.2.1
 _ZNK10Qt3DRender11QSortPolicy9sortTypesEv@Base 6.2.1
 _ZNK10Qt3DRender12QLayerFilter10filterModeEv@Base 6.2.1
 _ZNK10Qt3DRender12QLayerFilter10metaObjectEv@Base 6.2.1
 _ZNK10Qt3DRender12QLayerFilter6layersEv@Base 6.2.1
 _ZNK10Qt3DRender12QNoDepthMask10metaObjectEv@Base 6.2.1
 _ZNK10Qt3DRender12QRenderState10metaObjectEv@Base 6.2.1
 _ZNK10Qt3DRender12QSceneLoader10metaObjectEv@Base 6.2.1
 _ZNK10Qt3DRender12QSceneLoader11entityNamesEv@Base 6.2.1
 _ZNK10Qt3DRender12QSceneLoader6entityERK7QString@Base 6.2.1
 _ZNK10Qt3DRender12QSceneLoader6sourceEv@Base 6.2.1
 _ZNK10Qt3DRender12QSceneLoader6statusEv@Base 6.2.1
 _ZNK10Qt3DRender12QSceneLoader9componentERK7QStringNS0_13ComponentTypeE@Base 6.2.1
 _ZNK10Qt3DRender12QScissorTest10metaObjectEv@Base 6.2.1
 _ZNK10Qt3DRender12QScissorTest4leftEv@Base 6.2.1
 _ZNK10Qt3DRender12QScissorTest5widthEv@Base 6.2.1
 _ZNK10Qt3DRender12QScissorTest6bottomEv@Base 6.2.1
 _ZNK10Qt3DRender12QScissorTest6heightEv@Base 6.2.1
 _ZNK10Qt3DRender12QShaderGraph16createStatementsERK5QListI7QStringE@Base 6.2.1
 _ZNK10Qt3DRender12QShaderGraph5edgesEv@Base 6.2.1
 _ZNK10Qt3DRender12QShaderGraph5nodesEv@Base 6.2.1
 _ZNK10Qt3DRender12QShaderGraph9Statement4uuidEv@Base 6.2.1
 _ZNK10Qt3DRender12QShaderGraph9Statement9portIndexENS_15QShaderNodePort9DirectionERK7QString@Base 6.2.1
 _ZNK10Qt3DRender12QShaderImage10metaObjectEv@Base 6.2.1
 _ZNK10Qt3DRender12QShaderImage5layerEv@Base 6.2.1
 _ZNK10Qt3DRender12QShaderImage6accessEv@Base 6.2.1
 _ZNK10Qt3DRender12QShaderImage6formatEv@Base 6.2.1
 _ZNK10Qt3DRender12QShaderImage7layeredEv@Base 6.2.1
 _ZNK10Qt3DRender12QShaderImage7textureEv@Base 6.2.1
 _ZNK10Qt3DRender12QShaderImage8mipLevelEv@Base 6.2.1
 _ZNK10Qt3DRender12QStencilMask10metaObjectEv@Base 6.2.1
 _ZNK10Qt3DRender12QStencilMask14backOutputMaskEv@Base 6.2.1
 _ZNK10Qt3DRender12QStencilMask15frontOutputMaskEv@Base 6.2.1
 _ZNK10Qt3DRender12QStencilTest10metaObjectEv@Base 6.2.1
 _ZNK10Qt3DRender12QStencilTest4backEv@Base 6.2.1
 _ZNK10Qt3DRender12QStencilTest5frontEv@Base 6.2.1
 _ZNK10Qt3DRender12QTextureData14comparisonModeEv@Base 6.2.1
 _ZNK10Qt3DRender12QTextureData17maximumAnisotropyEv@Base 6.2.1
 _ZNK10Qt3DRender12QTextureData18comparisonFunctionEv@Base 6.2.1
 _ZNK10Qt3DRender12QTextureData18minificationFilterEv@Base 6.2.1
 _ZNK10Qt3DRender12QTextureData19magnificationFilterEv@Base 6.2.1
 _ZNK10Qt3DRender12QTextureData29isAutoMipMapGenerationEnabledEv@Base 6.2.1
 _ZNK10Qt3DRender12QTextureData5depthEv@Base 6.2.1
 _ZNK10Qt3DRender12QTextureData5widthEv@Base 6.2.1
 _ZNK10Qt3DRender12QTextureData6formatEv@Base 6.2.1
 _ZNK10Qt3DRender12QTextureData6heightEv@Base 6.2.1
 _ZNK10Qt3DRender12QTextureData6layersEv@Base 6.2.1
 _ZNK10Qt3DRender12QTextureData6targetEv@Base 6.2.1
 _ZNK10Qt3DRender12QTextureData9imageDataEv@Base 6.2.1
 _ZNK10Qt3DRender12QTextureData9wrapModeXEv@Base 6.2.1
 _ZNK10Qt3DRender12QTextureData9wrapModeYEv@Base 6.2.1
 _ZNK10Qt3DRender12QTextureData9wrapModeZEv@Base 6.2.1
 _ZNK10Qt3DRender13QClearBuffers10clearColorEv@Base 6.2.1
 _ZNK10Qt3DRender13QClearBuffers10metaObjectEv@Base 6.2.1
 _ZNK10Qt3DRender13QClearBuffers11colorBufferEv@Base 6.2.1
 _ZNK10Qt3DRender13QClearBuffers15clearDepthValueEv@Base 6.2.1
 _ZNK10Qt3DRender13QClearBuffers17clearStencilValueEv@Base 6.2.1
 _ZNK10Qt3DRender13QClearBuffers7buffersEv@Base 6.2.1
 _ZNK10Qt3DRender13QDebugOverlay10metaObjectEv@Base 6.2.1
 _ZNK10Qt3DRender13QObjectPicker10metaObjectEv@Base 6.2.1
 _ZNK10Qt3DRender13QObjectPicker13containsMouseEv@Base 6.2.1
 _ZNK10Qt3DRender13QObjectPicker13isDragEnabledEv@Base 6.2.1
 _ZNK10Qt3DRender13QObjectPicker14isHoverEnabledEv@Base 6.2.1
 _ZNK10Qt3DRender13QObjectPicker8priorityEv@Base 6.2.1
 _ZNK10Qt3DRender13QObjectPicker9isPressedEv@Base 6.2.1
 _ZNK10Qt3DRender13QPickingProxy10metaObjectEv@Base 6.2.1
 _ZNK10Qt3DRender13QRayCasterHit12vertex1IndexEv@Base 6.2.1
 _ZNK10Qt3DRender13QRayCasterHit12vertex2IndexEv@Base 6.2.1
 _ZNK10Qt3DRender13QRayCasterHit12vertex3IndexEv@Base 6.2.1
 _ZNK10Qt3DRender13QRayCasterHit14primitiveIndexEv@Base 6.2.1
 _ZNK10Qt3DRender13QRayCasterHit17localIntersectionEv@Base 6.2.1
 _ZNK10Qt3DRender13QRayCasterHit17worldIntersectionEv@Base 6.2.1
 _ZNK10Qt3DRender13QRayCasterHit4typeEv@Base 6.2.1
 _ZNK10Qt3DRender13QRayCasterHit6entityEv@Base 6.2.1
 _ZNK10Qt3DRender13QRayCasterHit8distanceEv@Base 6.2.1
 _ZNK10Qt3DRender13QRayCasterHit8entityIdEv@Base 6.2.1
 _ZNK10Qt3DRender13QRayCasterHit9setEntityEPN8Qt3DCore7QEntityE@Base 6.2.1
 _ZNK10Qt3DRender13QRenderAspect10metaObjectEv@Base 6.2.1
 _ZNK10Qt3DRender13QRenderAspect12dependenciesEv@Base 6.2.1
 _ZNK10Qt3DRender13QRenderTarget10metaObjectEv@Base 6.2.1
 _ZNK10Qt3DRender13QRenderTarget7outputsEv@Base 6.2.1
 _ZNK10Qt3DRender13QShaderFormat10extensionsEv@Base 6.2.1
 _ZNK10Qt3DRender13QShaderFormat10shaderTypeEv@Base 6.2.1
 _ZNK10Qt3DRender13QShaderFormat3apiEv@Base 6.2.1
 _ZNK10Qt3DRender13QShaderFormat6vendorEv@Base 6.2.1
 _ZNK10Qt3DRender13QShaderFormat7isValidEv@Base 6.2.1
 _ZNK10Qt3DRender13QShaderFormat7versionEv@Base 6.2.1
 _ZNK10Qt3DRender13QShaderFormat8supportsERKS0_@Base 6.2.1
 _ZNK10Qt3DRender13QTextureImage10isMirroredEv@Base 6.2.1
 _ZNK10Qt3DRender13QTextureImage10metaObjectEv@Base 6.2.1
 _ZNK10Qt3DRender13QTextureImage13dataGeneratorEv@Base 6.2.1
 _ZNK10Qt3DRender13QTextureImage6sourceEv@Base 6.2.1
 _ZNK10Qt3DRender13QTextureImage6statusEv@Base 6.2.1
 _ZNK10Qt3DRender14QAbstractLight10metaObjectEv@Base 6.2.1
 _ZNK10Qt3DRender14QAbstractLight4typeEv@Base 6.2.1
 _ZNK10Qt3DRender14QAbstractLight5colorEv@Base 6.2.1
 _ZNK10Qt3DRender14QAbstractLight9intensityEv@Base 6.2.1
 _ZNK10Qt3DRender14QAlphaCoverage10metaObjectEv@Base 6.2.1
 _ZNK10Qt3DRender14QBlendEquation10metaObjectEv@Base 6.2.1
 _ZNK10Qt3DRender14QBlendEquation13blendFunctionEv@Base 6.2.1
 _ZNK10Qt3DRender14QBufferCapture10metaObjectEv@Base 6.2.1
 _ZNK10Qt3DRender14QLevelOfDetail10metaObjectEv@Base 6.2.1
 _ZNK10Qt3DRender14QLevelOfDetail10thresholdsEv@Base 6.2.1
 _ZNK10Qt3DRender14QLevelOfDetail12currentIndexEv@Base 6.2.1
 _ZNK10Qt3DRender14QLevelOfDetail13thresholdTypeEv@Base 6.2.1
 _ZNK10Qt3DRender14QLevelOfDetail14volumeOverrideEv@Base 6.2.1
 _ZNK10Qt3DRender14QLevelOfDetail6cameraEv@Base 6.2.1
 _ZNK10Qt3DRender14QMemoryBarrier10metaObjectEv@Base 6.2.1
 _ZNK10Qt3DRender14QMemoryBarrier14waitOperationsEv@Base 6.2.1
 _ZNK10Qt3DRender14QPickLineEvent10metaObjectEv@Base 6.2.1
 _ZNK10Qt3DRender14QPickLineEvent12vertex1IndexEv@Base 6.2.1
 _ZNK10Qt3DRender14QPickLineEvent12vertex2IndexEv@Base 6.2.1
 _ZNK10Qt3DRender14QPickLineEvent9edgeIndexEv@Base 6.2.1
 _ZNK10Qt3DRender14QPolygonOffset10depthStepsEv@Base 6.2.1
 _ZNK10Qt3DRender14QPolygonOffset10metaObjectEv@Base 6.2.1
 _ZNK10Qt3DRender14QPolygonOffset11scaleFactorEv@Base 6.2.1
 _ZNK10Qt3DRender14QRenderCapture10metaObjectEv@Base 6.2.1
 _ZNK10Qt3DRender14QSceneExporter10metaObjectEv@Base 6.2.1
 _ZNK10Qt3DRender14QSceneExporter6errorsEv@Base 6.2.1
 _ZNK10Qt3DRender14QSceneImporter10metaObjectEv@Base 6.2.1
 _ZNK10Qt3DRender14QSceneImporter6errorsEv@Base 6.2.1
 _ZNK10Qt3DRender14QSceneImporter6statusEv@Base 6.2.1
 _ZNK10Qt3DRender14QShaderProgram10metaObjectEv@Base 6.2.1
 _ZNK10Qt3DRender14QShaderProgram10shaderCodeENS0_10ShaderTypeE@Base 6.2.1
 _ZNK10Qt3DRender14QShaderProgram16vertexShaderCodeEv@Base 6.2.1
 _ZNK10Qt3DRender14QShaderProgram17computeShaderCodeEv@Base 6.2.1
 _ZNK10Qt3DRender14QShaderProgram18fragmentShaderCodeEv@Base 6.2.1
 _ZNK10Qt3DRender14QShaderProgram18geometryShaderCodeEv@Base 6.2.1
 _ZNK10Qt3DRender14QShaderProgram29tessellationControlShaderCodeEv@Base 6.2.1
 _ZNK10Qt3DRender14QShaderProgram32tessellationEvaluationShaderCodeEv@Base 6.2.1
 _ZNK10Qt3DRender14QShaderProgram3logEv@Base 6.2.1
 _ZNK10Qt3DRender14QShaderProgram6formatEv@Base 6.2.1
 _ZNK10Qt3DRender14QShaderProgram6statusEv@Base 6.2.1
 _ZNK10Qt3DRender14QTextureBuffer10metaObjectEv@Base 6.2.1
 _ZNK10Qt3DRender14QTextureLoader10isMirroredEv@Base 6.2.1
 _ZNK10Qt3DRender14QTextureLoader10metaObjectEv@Base 6.2.1
 _ZNK10Qt3DRender14QTextureLoader6sourceEv@Base 6.2.1
 _ZNK10Qt3DRender15QCameraSelector10metaObjectEv@Base 6.2.1
 _ZNK10Qt3DRender15QCameraSelector6cameraEv@Base 6.2.1
 _ZNK10Qt3DRender15QComputeCommand10metaObjectEv@Base 6.2.1
 _ZNK10Qt3DRender15QComputeCommand10workGroupXEv@Base 6.2.1
 _ZNK10Qt3DRender15QComputeCommand10workGroupYEv@Base 6.2.1
 _ZNK10Qt3DRender15QComputeCommand10workGroupZEv@Base 6.2.1
 _ZNK10Qt3DRender15QComputeCommand7runTypeEv@Base 6.2.1
 _ZNK10Qt3DRender15QFrameGraphNode10metaObjectEv@Base 6.2.1
 _ZNK10Qt3DRender15QFrameGraphNode20parentFrameGraphNodeEv@Base 6.2.1
 _ZNK10Qt3DRender15QFrustumCulling10metaObjectEv@Base 6.2.1
 _ZNK10Qt3DRender15QPickPointEvent10metaObjectEv@Base 6.2.1
 _ZNK10Qt3DRender15QPickPointEvent10pointIndexEv@Base 6.2.1
 _ZNK10Qt3DRender15QRenderSettings10metaObjectEv@Base 6.2.1
 _ZNK10Qt3DRender15QRenderSettings12renderPolicyEv@Base 6.2.1
 _ZNK10Qt3DRender15QRenderSettings16activeFrameGraphEv@Base 6.2.1
 _ZNK10Qt3DRender15QRenderStateSet10metaObjectEv@Base 6.2.1
 _ZNK10Qt3DRender15QRenderStateSet12renderStatesEv@Base 6.2.1
 _ZNK10Qt3DRender15QSubtreeEnabler10enablementEv@Base 6.2.1
 _ZNK10Qt3DRender15QSubtreeEnabler10metaObjectEv@Base 6.2.1
 _ZNK10Qt3DRender15QTexture1DArray10metaObjectEv@Base 6.2.1
 _ZNK10Qt3DRender15QTexture2DArray10metaObjectEv@Base 6.2.1
 _ZNK10Qt3DRender15QTextureCubeMap10metaObjectEv@Base 6.2.1
 _ZNK10Qt3DRender16QAbstractTexture10handleTypeEv@Base 6.2.1
 _ZNK10Qt3DRender16QAbstractTexture10metaObjectEv@Base 6.2.1
 _ZNK10Qt3DRender16QAbstractTexture13textureImagesEv@Base 6.2.1
 _ZNK10Qt3DRender16QAbstractTexture14comparisonModeEv@Base 6.2.1
 _ZNK10Qt3DRender16QAbstractTexture15generateMipMapsEv@Base 6.2.1
 _ZNK10Qt3DRender16QAbstractTexture17maximumAnisotropyEv@Base 6.2.1
 _ZNK10Qt3DRender16QAbstractTexture18comparisonFunctionEv@Base 6.2.1
 _ZNK10Qt3DRender16QAbstractTexture18minificationFilterEv@Base 6.2.1
 _ZNK10Qt3DRender16QAbstractTexture19magnificationFilterEv@Base 6.2.1
 _ZNK10Qt3DRender16QAbstractTexture5depthEv@Base 6.2.1
 _ZNK10Qt3DRender16QAbstractTexture5widthEv@Base 6.2.1
 _ZNK10Qt3DRender16QAbstractTexture6formatEv@Base 6.2.1
 _ZNK10Qt3DRender16QAbstractTexture6handleEv@Base 6.2.1
 _ZNK10Qt3DRender16QAbstractTexture6heightEv@Base 6.2.1
 _ZNK10Qt3DRender16QAbstractTexture6layersEv@Base 6.2.1
 _ZNK10Qt3DRender16QAbstractTexture6statusEv@Base 6.2.1
 _ZNK10Qt3DRender16QAbstractTexture6targetEv@Base 6.2.1
 _ZNK10Qt3DRender16QAbstractTexture7samplesEv@Base 6.2.1
 _ZNK10Qt3DRender16QAbstractTexture9mipLevelsEv@Base 6.2.1
 _ZNK10Qt3DRender16QBlitFramebuffer10metaObjectEv@Base 6.2.1
 _ZNK10Qt3DRender16QBlitFramebuffer10sourceRectEv@Base 6.2.1
 _ZNK10Qt3DRender16QBlitFramebuffer11destinationEv@Base 6.2.1
 _ZNK10Qt3DRender16QBlitFramebuffer15destinationRectEv@Base 6.2.1
 _ZNK10Qt3DRender16QBlitFramebuffer19interpolationMethodEv@Base 6.2.1
 _ZNK10Qt3DRender16QBlitFramebuffer21sourceAttachmentPointEv@Base 6.2.1
 _ZNK10Qt3DRender16QBlitFramebuffer26destinationAttachmentPointEv@Base 6.2.1
 _ZNK10Qt3DRender16QBlitFramebuffer6sourceEv@Base 6.2.1
 _ZNK10Qt3DRender16QDispatchCompute10metaObjectEv@Base 6.2.1
 _ZNK10Qt3DRender16QDispatchCompute10workGroupXEv@Base 6.2.1
 _ZNK10Qt3DRender16QDispatchCompute10workGroupYEv@Base 6.2.1
 _ZNK10Qt3DRender16QDispatchCompute10workGroupZEv@Base 6.2.1
 _ZNK10Qt3DRender16QPickingSettings10metaObjectEv@Base 6.2.1
 _ZNK10Qt3DRender16QPickingSettings10pickMethodEv@Base 6.2.1
 _ZNK10Qt3DRender16QPickingSettings14pickResultModeEv@Base 6.2.1
 _ZNK10Qt3DRender16QPickingSettings19worldSpaceToleranceEv@Base 6.2.1
 _ZNK10Qt3DRender16QPickingSettings26faceOrientationPickingModeEv@Base 6.2.1
 _ZNK10Qt3DRender16QProximityFilter10metaObjectEv@Base 6.2.1
 _ZNK10Qt3DRender16QProximityFilter17distanceThresholdEv@Base 6.2.1
 _ZNK10Qt3DRender16QProximityFilter6entityEv@Base 6.2.1
 _ZNK10Qt3DRender16QScreenRayCaster10metaObjectEv@Base 6.2.1
 _ZNK10Qt3DRender16QScreenRayCaster8positionEv@Base 6.2.1
 _ZNK10Qt3DRender16QSeamlessCubemap10metaObjectEv@Base 6.2.1
 _ZNK10Qt3DRender16QShaderGenerator16createShaderCodeERK5QListI7QStringE@Base 6.2.1
 _ZNK10Qt3DRender16QSharedGLTexture10metaObjectEv@Base 6.2.1
 _ZNK10Qt3DRender16QSharedGLTexture9textureIdEv@Base 6.2.1
 _ZNK10Qt3DRender16QTechniqueFilter10metaObjectEv@Base 6.2.1
 _ZNK10Qt3DRender16QTechniqueFilter10parametersEv@Base 6.2.1
 _ZNK10Qt3DRender16QTechniqueFilter8matchAllEv@Base 6.2.1
 _ZNK10Qt3DRender16QTextureWrapMode10metaObjectEv@Base 6.2.1
 _ZNK10Qt3DRender16QTextureWrapMode1xEv@Base 6.2.1
 _ZNK10Qt3DRender16QTextureWrapMode1yEv@Base 6.2.1
 _ZNK10Qt3DRender16QTextureWrapMode1zEv@Base 6.2.1
 _ZNK10Qt3DRender17QDirectionalLight10metaObjectEv@Base 6.2.1
 _ZNK10Qt3DRender17QDirectionalLight14worldDirectionEv@Base 6.2.1
 _ZNK10Qt3DRender17QEnvironmentLight10irradianceEv@Base 6.2.1
 _ZNK10Qt3DRender17QEnvironmentLight10metaObjectEv@Base 6.2.1
 _ZNK10Qt3DRender17QEnvironmentLight8specularEv@Base 6.2.1
 _ZNK10Qt3DRender17QGeometryRenderer10metaObjectEv@Base 6.2.1
 _ZNK10Qt3DRender17QGeometryRenderer11firstVertexEv@Base 6.2.1
 _ZNK10Qt3DRender17QGeometryRenderer11indexOffsetEv@Base 6.2.1
 _ZNK10Qt3DRender17QGeometryRenderer11vertexCountEv@Base 6.2.1
 _ZNK10Qt3DRender17QGeometryRenderer13firstInstanceEv@Base 6.2.1
 _ZNK10Qt3DRender17QGeometryRenderer13instanceCountEv@Base 6.2.1
 _ZNK10Qt3DRender17QGeometryRenderer13primitiveTypeEv@Base 6.2.1
 _ZNK10Qt3DRender17QGeometryRenderer16verticesPerPatchEv@Base 6.2.1
 _ZNK10Qt3DRender17QGeometryRenderer17restartIndexValueEv@Base 6.2.1
 _ZNK10Qt3DRender17QGeometryRenderer21indexBufferByteOffsetEv@Base 6.2.1
 _ZNK10Qt3DRender17QGeometryRenderer23primitiveRestartEnabledEv@Base 6.2.1
 _ZNK10Qt3DRender17QGeometryRenderer8geometryEv@Base 6.2.1
 _ZNK10Qt3DRender17QGeometryRenderer9sortIndexEv@Base 6.2.1
 _ZNK10Qt3DRender17QRenderPassFilter10metaObjectEv@Base 6.2.1
 _ZNK10Qt3DRender17QRenderPassFilter10parametersEv@Base 6.2.1
 _ZNK10Qt3DRender17QRenderPassFilter8matchAnyEv@Base 6.2.1
 _ZNK10Qt3DRender17QStencilOperation10metaObjectEv@Base 6.2.1
 _ZNK10Qt3DRender17QStencilOperation4backEv@Base 6.2.1
 _ZNK10Qt3DRender17QStencilOperation5frontEv@Base 6.2.1
 _ZNK10Qt3DRender17QTextureImageData11pixelFormatEv@Base 6.2.1
 _ZNK10Qt3DRender17QTextureImageData12isCompressedEv@Base 6.2.1
 _ZNK10Qt3DRender17QTextureImageData4dataEiii@Base 6.2.1
 _ZNK10Qt3DRender17QTextureImageData5depthEv@Base 6.2.1
 _ZNK10Qt3DRender17QTextureImageData5facesEv@Base 6.2.1
 _ZNK10Qt3DRender17QTextureImageData5widthEv@Base 6.2.1
 _ZNK10Qt3DRender17QTextureImageData6formatEv@Base 6.2.1
 _ZNK10Qt3DRender17QTextureImageData6heightEv@Base 6.2.1
 _ZNK10Qt3DRender17QTextureImageData6layersEv@Base 6.2.1
 _ZNK10Qt3DRender17QTextureImageData6targetEv@Base 6.2.1
 _ZNK10Qt3DRender17QTextureImageData9alignmentEv@Base 6.2.1
 _ZNK10Qt3DRender17QTextureImageData9mipLevelsEv@Base 6.2.1
 _ZNK10Qt3DRender17QTextureImageData9pixelTypeEv@Base 6.2.1
 _ZNK10Qt3DRender17QTextureRectangle10metaObjectEv@Base 6.2.1
 _ZNK10Qt3DRender18QAbstractRayCaster10filterModeEv@Base 6.2.1
 _ZNK10Qt3DRender18QAbstractRayCaster10metaObjectEv@Base 6.2.1
 _ZNK10Qt3DRender18QAbstractRayCaster4hitsEv@Base 6.2.1
 _ZNK10Qt3DRender18QAbstractRayCaster6layersEv@Base 6.2.1
 _ZNK10Qt3DRender18QAbstractRayCaster7runModeEv@Base 6.2.1
 _ZNK10Qt3DRender18QGraphicsApiFilter10extensionsEv@Base 6.2.1
 _ZNK10Qt3DRender18QGraphicsApiFilter10metaObjectEv@Base 6.2.1
 _ZNK10Qt3DRender18QGraphicsApiFilter12majorVersionEv@Base 6.2.1
 _ZNK10Qt3DRender18QGraphicsApiFilter12minorVersionEv@Base 6.2.1
 _ZNK10Qt3DRender18QGraphicsApiFilter3apiEv@Base 6.2.1
 _ZNK10Qt3DRender18QGraphicsApiFilter6vendorEv@Base 6.2.1
 _ZNK10Qt3DRender18QGraphicsApiFilter7profileEv@Base 6.2.1
 _ZNK10Qt3DRender18QPickTriangleEvent10metaObjectEv@Base 6.2.1
 _ZNK10Qt3DRender18QPickTriangleEvent12vertex1IndexEv@Base 6.2.1
 _ZNK10Qt3DRender18QPickTriangleEvent12vertex2IndexEv@Base 6.2.1
 _ZNK10Qt3DRender18QPickTriangleEvent12vertex3IndexEv@Base 6.2.1
 _ZNK10Qt3DRender18QPickTriangleEvent13triangleIndexEv@Base 6.2.1
 _ZNK10Qt3DRender18QPickTriangleEvent3uvwEv@Base 6.2.1
 _ZNK10Qt3DRender18QSceneExportPlugin10metaObjectEv@Base 6.2.1
 _ZNK10Qt3DRender18QSceneImportPlugin10metaObjectEv@Base 6.2.1
 _ZNK10Qt3DRender18QShaderGraphLoader10prototypesEv@Base 6.2.1
 _ZNK10Qt3DRender18QShaderGraphLoader5graphEv@Base 6.2.1
 _ZNK10Qt3DRender18QShaderGraphLoader6deviceEv@Base 6.2.1
 _ZNK10Qt3DRender18QShaderGraphLoader6statusEv@Base 6.2.1
 _ZNK10Qt3DRender18QShaderNodesLoader5nodesEv@Base 6.2.1
 _ZNK10Qt3DRender18QShaderNodesLoader6deviceEv@Base 6.2.1
 _ZNK10Qt3DRender18QShaderNodesLoader6statusEv@Base 6.2.1
 _ZNK10Qt3DRender18QTextureDataUpdate1xEv@Base 6.2.1
 _ZNK10Qt3DRender18QTextureDataUpdate1yEv@Base 6.2.1
 _ZNK10Qt3DRender18QTextureDataUpdate1zEv@Base 6.2.1
 _ZNK10Qt3DRender18QTextureDataUpdate4dataEv@Base 6.2.1
 _ZNK10Qt3DRender18QTextureDataUpdate4faceEv@Base 6.2.1
 _ZNK10Qt3DRender18QTextureDataUpdate5layerEv@Base 6.2.1
 _ZNK10Qt3DRender18QTextureDataUpdate8mipLevelEv@Base 6.2.1
 _ZNK10Qt3DRender19QRenderCapabilities10extensionsEv@Base 6.2.1
 _ZNK10Qt3DRender19QRenderCapabilities10maxSamplesEv@Base 6.2.1
 _ZNK10Qt3DRender19QRenderCapabilities10maxUBOSizeEv@Base 6.2.1
 _ZNK10Qt3DRender19QRenderCapabilities10metaObjectEv@Base 6.2.1
 _ZNK10Qt3DRender19QRenderCapabilities11glslVersionEv@Base 6.2.1
 _ZNK10Qt3DRender19QRenderCapabilities11maxSSBOSizeEv@Base 6.2.1
 _ZNK10Qt3DRender19QRenderCapabilities11supportsUBOEv@Base 6.2.1
 _ZNK10Qt3DRender19QRenderCapabilities12majorVersionEv@Base 6.2.1
 _ZNK10Qt3DRender19QRenderCapabilities12minorVersionEv@Base 6.2.1
 _ZNK10Qt3DRender19QRenderCapabilities12supportsSSBOEv@Base 6.2.1
 _ZNK10Qt3DRender19QRenderCapabilities13driverVersionEv@Base 6.2.1
 _ZNK10Qt3DRender19QRenderCapabilities13maxImageUnitsEv@Base 6.2.1
 _ZNK10Qt3DRender19QRenderCapabilities14maxTextureSizeEv@Base 6.2.1
 _ZNK10Qt3DRender19QRenderCapabilities14maxUBOBindingsEv@Base 6.2.1
 _ZNK10Qt3DRender19QRenderCapabilities15maxSSBOBindingsEv@Base 6.2.1
 _ZNK10Qt3DRender19QRenderCapabilities15maxTextureUnitsEv@Base 6.2.1
 _ZNK10Qt3DRender19QRenderCapabilities15supportsComputeEv@Base 6.2.1
 _ZNK10Qt3DRender19QRenderCapabilities16maxTextureLayersEv@Base 6.2.1
 _ZNK10Qt3DRender19QRenderCapabilities17maxWorkGroupSizeXEv@Base 6.2.1
 _ZNK10Qt3DRender19QRenderCapabilities17maxWorkGroupSizeYEv@Base 6.2.1
 _ZNK10Qt3DRender19QRenderCapabilities17maxWorkGroupSizeZEv@Base 6.2.1
 _ZNK10Qt3DRender19QRenderCapabilities18maxWorkGroupCountXEv@Base 6.2.1
 _ZNK10Qt3DRender19QRenderCapabilities18maxWorkGroupCountYEv@Base 6.2.1
 _ZNK10Qt3DRender19QRenderCapabilities18maxWorkGroupCountZEv@Base 6.2.1
 _ZNK10Qt3DRender19QRenderCapabilities18supportsImageStoreEv@Base 6.2.1
 _ZNK10Qt3DRender19QRenderCapabilities21maxComputeInvocationsEv@Base 6.2.1
 _ZNK10Qt3DRender19QRenderCapabilities26maxComputeSharedMemorySizeEv@Base 6.2.1
 _ZNK10Qt3DRender19QRenderCapabilities3apiEv@Base 6.2.1
 _ZNK10Qt3DRender19QRenderCapabilities6vendorEv@Base 6.2.1
 _ZNK10Qt3DRender19QRenderCapabilities7isValidEv@Base 6.2.1
 _ZNK10Qt3DRender19QRenderCapabilities7profileEv@Base 6.2.1
 _ZNK10Qt3DRender19QRenderCapabilities8rendererEv@Base 6.2.1
 _ZNK10Qt3DRender19QRenderCaptureReply10isCompleteEv@Base 6.2.1
 _ZNK10Qt3DRender19QRenderCaptureReply10metaObjectEv@Base 6.2.1
 _ZNK10Qt3DRender19QRenderCaptureReply5imageEv@Base 6.2.1
 _ZNK10Qt3DRender19QRenderCaptureReply9captureIdEv@Base 6.2.1
 _ZNK10Qt3DRender19QRenderCaptureReply9saveImageERK7QString@Base 6.2.1
 _ZNK10Qt3DRender19QRenderTargetOutput10metaObjectEv@Base 6.2.1
 _ZNK10Qt3DRender19QRenderTargetOutput15attachmentPointEv@Base 6.2.1
 _ZNK10Qt3DRender19QRenderTargetOutput4faceEv@Base 6.2.1
 _ZNK10Qt3DRender19QRenderTargetOutput5layerEv@Base 6.2.1
 _ZNK10Qt3DRender19QRenderTargetOutput7textureEv@Base 6.2.1
 _ZNK10Qt3DRender19QRenderTargetOutput8mipLevelEv@Base 6.2.1
 _ZNK10Qt3DRender19QStencilTestPrivate8fillDataERNS_16QStencilTestDataE@Base 6.2.1
 _ZNK10Qt3DRender20QLevelOfDetailSwitch10metaObjectEv@Base 6.2.1
 _ZNK10Qt3DRender20QPaintedTextureImage10metaObjectEv@Base 6.2.1
 _ZNK10Qt3DRender20QPaintedTextureImage13dataGeneratorEv@Base 6.2.1
 _ZNK10Qt3DRender20QPaintedTextureImage4sizeEv@Base 6.2.1
 _ZNK10Qt3DRender20QPaintedTextureImage5widthEv@Base 6.2.1
 _ZNK10Qt3DRender20QPaintedTextureImage6heightEv@Base 6.2.1
 _ZNK10Qt3DRender20QRenderAspectPrivate21createPreRendererJobsEv@Base 6.2.1
 _ZNK10Qt3DRender20QRenderAspectPrivate26createGeometryRendererJobsEv@Base 6.2.1
 _ZNK10Qt3DRender20QTextureCubeMapArray10metaObjectEv@Base 6.2.1
 _ZNK10Qt3DRender21GraphicsApiFilterData8toStringEv@Base 6.2.1
 _ZNK10Qt3DRender21GraphicsApiFilterDataeqERKS0_@Base 6.2.1
 _ZNK10Qt3DRender21GraphicsApiFilterDataltERKS0_@Base 6.2.1
 _ZNK10Qt3DRender21GraphicsApiFilterDataneERKS0_@Base 6.2.1
 _ZNK10Qt3DRender21QAbstractTextureImage10metaObjectEv@Base 6.2.1
 _ZNK10Qt3DRender21QAbstractTextureImage4faceEv@Base 6.2.1
 _ZNK10Qt3DRender21QAbstractTextureImage5layerEv@Base 6.2.1
 _ZNK10Qt3DRender21QAbstractTextureImage8mipLevelEv@Base 6.2.1
 _ZNK10Qt3DRender21QRenderTargetSelector10metaObjectEv@Base 6.2.1
 _ZNK10Qt3DRender21QRenderTargetSelector6targetEv@Base 6.2.1
 _ZNK10Qt3DRender21QShaderProgramBuilder10metaObjectEv@Base 6.2.1
 _ZNK10Qt3DRender21QShaderProgramBuilder13enabledLayersEv@Base 6.2.1
 _ZNK10Qt3DRender21QShaderProgramBuilder13shaderProgramEv@Base 6.2.1
 _ZNK10Qt3DRender21QShaderProgramBuilder16vertexShaderCodeEv@Base 6.2.1
 _ZNK10Qt3DRender21QShaderProgramBuilder17computeShaderCodeEv@Base 6.2.1
 _ZNK10Qt3DRender21QShaderProgramBuilder17vertexShaderGraphEv@Base 6.2.1
 _ZNK10Qt3DRender21QShaderProgramBuilder18computeShaderGraphEv@Base 6.2.1
 _ZNK10Qt3DRender21QShaderProgramBuilder18fragmentShaderCodeEv@Base 6.2.1
 _ZNK10Qt3DRender21QShaderProgramBuilder18geometryShaderCodeEv@Base 6.2.1
 _ZNK10Qt3DRender21QShaderProgramBuilder19fragmentShaderGraphEv@Base 6.2.1
 _ZNK10Qt3DRender21QShaderProgramBuilder19geometryShaderGraphEv@Base 6.2.1
 _ZNK10Qt3DRender21QShaderProgramBuilder29tessellationControlShaderCodeEv@Base 6.2.1
 _ZNK10Qt3DRender21QShaderProgramBuilder30tessellationControlShaderGraphEv@Base 6.2.1
 _ZNK10Qt3DRender21QShaderProgramBuilder32tessellationEvaluationShaderCodeEv@Base 6.2.1
 _ZNK10Qt3DRender21QShaderProgramBuilder33tessellationEvaluationShaderGraphEv@Base 6.2.1
 _ZNK10Qt3DRender21QStencilTestArguments10metaObjectEv@Base 6.2.1
 _ZNK10Qt3DRender21QStencilTestArguments14comparisonMaskEv@Base 6.2.1
 _ZNK10Qt3DRender21QStencilTestArguments14referenceValueEv@Base 6.2.1
 _ZNK10Qt3DRender21QStencilTestArguments15stencilFunctionEv@Base 6.2.1
 _ZNK10Qt3DRender21QStencilTestArguments8faceModeEv@Base 6.2.1
 _ZNK10Qt3DRender21QTexture2DMultisample10metaObjectEv@Base 6.2.1
 _ZNK10Qt3DRender22QFrameGraphNodePrivate14dumpFrameGraphEv@Base 6.2.1
 _ZNK10Qt3DRender22QFrameGraphNodePrivate19dumpFrameGraphPathsEv@Base 6.2.1
 _ZNK10Qt3DRender22QFrameGraphNodePrivate20childFrameGraphNodesEv@Base 6.2.1
 _ZNK10Qt3DRender22QFrameGraphNodePrivate25dumpFrameGraphFilterStateEv@Base 6.2.1
 _ZNK10Qt3DRender22QGeometryLoaderFactory10metaObjectEv@Base 6.2.1
 _ZNK10Qt3DRender22QRenderSurfaceSelector10metaObjectEv@Base 6.2.1
 _ZNK10Qt3DRender22QRenderSurfaceSelector17surfacePixelRatioEv@Base 6.2.1
 _ZNK10Qt3DRender22QRenderSurfaceSelector24externalRenderTargetSizeEv@Base 6.2.1
 _ZNK10Qt3DRender22QRenderSurfaceSelector7surfaceEv@Base 6.2.1
 _ZNK10Qt3DRender23QAbstractTexturePrivate11dataFunctorEv@Base 6.2.1
 _ZNK10Qt3DRender23QBlendEquationArguments10metaObjectEv@Base 6.2.1
 _ZNK10Qt3DRender23QBlendEquationArguments11bufferIndexEv@Base 6.2.1
 _ZNK10Qt3DRender23QBlendEquationArguments11sourceAlphaEv@Base 6.2.1
 _ZNK10Qt3DRender23QBlendEquationArguments14destinationRgbEv@Base 6.2.1
 _ZNK10Qt3DRender23QBlendEquationArguments16destinationAlphaEv@Base 6.2.1
 _ZNK10Qt3DRender23QBlendEquationArguments9sourceRgbEv@Base 6.2.1
 _ZNK10Qt3DRender24QMultiSampleAntiAliasing10metaObjectEv@Base 6.2.1
 _ZNK10Qt3DRender24QStencilOperationPrivate8fillDataERNS_21QStencilOperationDataE@Base 6.2.1
 _ZNK10Qt3DRender24QTextureImageDataPrivate11ddsFaceSizeEv@Base 6.2.1
 _ZNK10Qt3DRender24QTextureImageDataPrivate12ddsLayerSizeEv@Base 6.2.1
 _ZNK10Qt3DRender24QTextureImageDataPrivate15mipmapLevelSizeEi@Base 6.2.1
 _ZNK10Qt3DRender24QTextureImageDataPrivate4dataEiii@Base 6.2.1
 _ZNK10Qt3DRender24QTextureImageDataPrivate7ktxDataEiii@Base 6.2.1
 _ZNK10Qt3DRender25QPickTriangleEventPrivate5cloneEv@Base 6.2.1
 _ZNK10Qt3DRender26QRenderCapabilitiesPrivate8toStringEv@Base 6.2.1
 _ZNK10Qt3DRender26QStencilOperationArguments10metaObjectEv@Base 6.2.1
 _ZNK10Qt3DRender26QStencilOperationArguments21allTestsPassOperationEv@Base 6.2.1
 _ZNK10Qt3DRender26QStencilOperationArguments25depthTestFailureOperationEv@Base 6.2.1
 _ZNK10Qt3DRender26QStencilOperationArguments27stencilTestFailureOperationEv@Base 6.2.1
 _ZNK10Qt3DRender26QStencilOperationArguments8faceModeEv@Base 6.2.1
 _ZNK10Qt3DRender26QTexture2DMultisampleArray10metaObjectEv@Base 6.2.1
 _ZNK10Qt3DRender28QAbstractTextureImagePrivate13dataGeneratorEv@Base 6.2.1
 _ZNK10Qt3DRender28QLevelOfDetailBoundingSphere6centerEv@Base 6.2.1
 _ZNK10Qt3DRender28QLevelOfDetailBoundingSphere6radiusEv@Base 6.2.1
 _ZNK10Qt3DRender28QLevelOfDetailBoundingSphere7isEmptyEv@Base 6.2.1
 _ZNK10Qt3DRender28QLevelOfDetailBoundingSphereeqERKS0_@Base 6.2.1
 _ZNK10Qt3DRender28QLevelOfDetailBoundingSphereneERKS0_@Base 6.2.1
 _ZNK10Qt3DRender5QMesh10metaObjectEv@Base 6.2.1
 _ZNK10Qt3DRender5QMesh6sourceEv@Base 6.2.1
 _ZNK10Qt3DRender5QMesh6statusEv@Base 6.2.1
 _ZNK10Qt3DRender5QMesh8meshNameEv@Base 6.2.1
 _ZNK10Qt3DRender6QLayer10metaObjectEv@Base 6.2.1
 _ZNK10Qt3DRender6QLayer9recursiveEv@Base 6.2.1
 _ZNK10Qt3DRender6Render10RenderPass10filterKeysEv@Base 6.2.1
 _ZNK10Qt3DRender6Render10RenderPass10parametersEv@Base 6.2.1
 _ZNK10Qt3DRender6Render10RenderPass12renderStatesEv@Base 6.2.1
 _ZNK10Qt3DRender6Render10RenderPass13shaderProgramEv@Base 6.2.1
 _ZNK10Qt3DRender6Render10ShaderData21propertyTransformTypeERK7QString@Base 6.2.1
 (arch=!amd64)_ZNK10Qt3DRender6Render10ShaderData22getTransformedPropertyEPKNS1_13PropertyValueERK10QMatrix4x4@Base 6.2.2
 (arch=amd64)_ZNK10Qt3DRender6Render10ShaderData22getTransformedPropertyEPKNS1_13PropertyValueERKN8Qt3DCore13Matrix4x4_SSEE@Base 6.2.2
 _ZNK10Qt3DRender6Render10ShaderData22propertyValuesForBlockEi@Base 6.2.1
 _ZNK10Qt3DRender6Render10ShaderData25hasPropertyValuesForBlockEi@Base 6.2.1
 _ZNK10Qt3DRender6Render10SortPolicy9sortTypesEv@Base 6.2.1
 _ZNK10Qt3DRender6Render11BackendNode16resourceAccessorEv@Base 6.2.1
 _ZNK10Qt3DRender6Render11BackendNode8rendererEv@Base 6.2.1
 _ZNK10Qt3DRender6Render12ClearBuffers10clearColorEv@Base 6.2.1
 _ZNK10Qt3DRender6Render12ClearBuffers15clearDepthValueEv@Base 6.2.1
 _ZNK10Qt3DRender6Render12ClearBuffers17clearColorAsColorEv@Base 6.2.1
 _ZNK10Qt3DRender6Render12ClearBuffers17clearStencilValueEv@Base 6.2.1
 _ZNK10Qt3DRender6Render12ClearBuffers21clearsAllColorBuffersEv@Base 6.2.1
 _ZNK10Qt3DRender6Render12ClearBuffers4typeEv@Base 6.2.1
 _ZNK10Qt3DRender6Render12ClearBuffers8bufferIdEv@Base 6.2.1
 _ZNK10Qt3DRender6Render12LoadSceneJob12nodeManagersEv@Base 6.2.1
 _ZNK10Qt3DRender6Render12LoadSceneJob14sceneImportersEv@Base 6.2.1
 _ZNK10Qt3DRender6Render12LoadSceneJob16sceneComponentIdEv@Base 6.2.1
 _ZNK10Qt3DRender6Render12LoadSceneJob6sourceEv@Base 6.2.1
 (optional=templinst|arch=!amd64)_ZNK10Qt3DRender6Render12NodeManagers7managerI10QMatrix4x4NS0_13MatrixManagerEEEPT0_v@Base 6.2.2
 (optional=templinst|arch=amd64)_ZNK10Qt3DRender6Render12NodeManagers7managerIN8Qt3DCore13Matrix4x4_SSEENS0_13MatrixManagerEEEPT0_v@Base 6.2.2
 (optional=templinst)_ZNK10Qt3DRender6Render12NodeManagers7managerINS0_10CameraLensENS0_13CameraManagerEEEPT0_v@Base 6.2.1
 (optional=templinst)_ZNK10Qt3DRender6Render12NodeManagers7managerINS0_10RenderPassENS0_17RenderPassManagerEEEPT0_v@Base 6.2.1
 (optional=templinst)_ZNK10Qt3DRender6Render12NodeManagers7managerINS0_10ShaderDataENS0_17ShaderDataManagerEEEPT0_v@Base 6.2.1
 (optional=templinst)_ZNK10Qt3DRender6Render12NodeManagers7managerINS0_11ShaderImageENS0_18ShaderImageManagerEEEPT0_v@Base 6.2.1
 (optional=templinst)_ZNK10Qt3DRender6Render12NodeManagers7managerINS0_12ObjectPickerENS0_19ObjectPickerManagerEEEPT0_v@Base 6.2.1
 (optional=templinst)_ZNK10Qt3DRender6Render12NodeManagers7managerINS0_12PickingProxyENS0_19PickingProxyManagerEEEPT0_v@Base 6.2.1
 (optional=templinst)_ZNK10Qt3DRender6Render12NodeManagers7managerINS0_12RenderTargetENS0_19RenderTargetManagerEEEPT0_v@Base 6.2.1
 (optional=templinst)_ZNK10Qt3DRender6Render12NodeManagers7managerINS0_12TextureImageENS0_19TextureImageManagerEEEPT0_v@Base 6.2.1
 (optional=templinst)_ZNK10Qt3DRender6Render12NodeManagers7managerINS0_13LevelOfDetailENS0_20LevelOfDetailManagerEEEPT0_v@Base 6.2.1
 (optional=templinst)_ZNK10Qt3DRender6Render12NodeManagers7managerINS0_13ShaderBuilderENS0_20ShaderBuilderManagerEEEPT0_v@Base 6.2.1
 (optional=templinst)_ZNK10Qt3DRender6Render12NodeManagers7managerINS0_14ComputeCommandENS0_21ComputeCommandManagerEEEPT0_v@Base 6.2.1
 (optional=templinst)_ZNK10Qt3DRender6Render12NodeManagers7managerINS0_15RenderStateNodeENS0_18RenderStateManagerEEEPT0_v@Base 6.2.1
 (optional=templinst)_ZNK10Qt3DRender6Render12NodeManagers7managerINS0_16EnvironmentLightENS0_23EnvironmentLightManagerEEEPT0_v@Base 6.2.1
 (optional=templinst)_ZNK10Qt3DRender6Render12NodeManagers7managerINS0_16GeometryRendererENS0_23GeometryRendererManagerEEEPT0_v@Base 6.2.1
 (optional=templinst)_ZNK10Qt3DRender6Render12NodeManagers7managerINS0_18RenderTargetOutputENS0_17AttachmentManagerEEEPT0_v@Base 6.2.1
 (optional=templinst)_ZNK10Qt3DRender6Render12NodeManagers7managerINS0_5JointENS0_12JointManagerEEEPT0_v@Base 6.2.1
 (optional=templinst)_ZNK10Qt3DRender6Render12NodeManagers7managerINS0_5LayerENS0_12LayerManagerEEEPT0_v@Base 6.2.1
 (optional=templinst)_ZNK10Qt3DRender6Render12NodeManagers7managerINS0_5LightENS0_12LightManagerEEEPT0_v@Base 6.2.1
 (optional=templinst)_ZNK10Qt3DRender6Render12NodeManagers7managerINS0_5SceneENS0_12SceneManagerEEEPT0_v@Base 6.2.1
 (optional=templinst)_ZNK10Qt3DRender6Render12NodeManagers7managerINS0_6BufferENS0_13BufferManagerEEEPT0_v@Base 6.2.1
 (optional=templinst)_ZNK10Qt3DRender6Render12NodeManagers7managerINS0_6EffectENS0_13EffectManagerEEEPT0_v@Base 6.2.1
 (optional=templinst)_ZNK10Qt3DRender6Render12NodeManagers7managerINS0_6EntityENS0_13EntityManagerEEEPT0_v@Base 6.2.1
 (optional=templinst)_ZNK10Qt3DRender6Render12NodeManagers7managerINS0_6ShaderENS0_13ShaderManagerEEEPT0_v@Base 6.2.1
 (optional=templinst)_ZNK10Qt3DRender6Render12NodeManagers7managerINS0_7TextureENS0_14TextureManagerEEEPT0_v@Base 6.2.1
 (optional=templinst)_ZNK10Qt3DRender6Render12NodeManagers7managerINS0_8ArmatureENS0_15ArmatureManagerEEEPT0_v@Base 6.2.1
 (optional=templinst)_ZNK10Qt3DRender6Render12NodeManagers7managerINS0_8GeometryENS0_15GeometryManagerEEEPT0_v@Base 6.2.1
 (optional=templinst)_ZNK10Qt3DRender6Render12NodeManagers7managerINS0_8MaterialENS0_15MaterialManagerEEEPT0_v@Base 6.2.1
 (optional=templinst)_ZNK10Qt3DRender6Render12NodeManagers7managerINS0_8SkeletonENS0_15SkeletonManagerEEEPT0_v@Base 6.2.1
 (optional=templinst)_ZNK10Qt3DRender6Render12NodeManagers7managerINS0_9AttributeENS0_16AttributeManagerEEEPT0_v@Base 6.2.1
 (optional=templinst)_ZNK10Qt3DRender6Render12NodeManagers7managerINS0_9FilterKeyENS0_16FilterKeyManagerEEEPT0_v@Base 6.2.1
 (optional=templinst)_ZNK10Qt3DRender6Render12NodeManagers7managerINS0_9ParameterENS0_16ParameterManagerEEEPT0_v@Base 6.2.1
 (optional=templinst)_ZNK10Qt3DRender6Render12NodeManagers7managerINS0_9RayCasterENS0_16RayCasterManagerEEEPT0_v@Base 6.2.1
 (optional=templinst)_ZNK10Qt3DRender6Render12NodeManagers7managerINS0_9TechniqueENS0_16TechniqueManagerEEEPT0_v@Base 6.2.1
 (optional=templinst)_ZNK10Qt3DRender6Render12NodeManagers7managerINS0_9TransformENS0_16TransformManagerEEEPT0_v@Base 6.2.1
 (optional=templinst)_ZNK10Qt3DRender6Render12NodeManagers7managerIPNS0_14FrameGraphNodeENS0_17FrameGraphManagerEEEPT0_v@Base 6.2.1
 _ZNK10Qt3DRender6Render12ObjectPicker13isDragEnabledEv@Base 6.2.1
 _ZNK10Qt3DRender6Render12ObjectPicker14isHoverEnabledEv@Base 6.2.1
 _ZNK10Qt3DRender6Render12ObjectPicker8priorityEv@Base 6.2.1
 _ZNK10Qt3DRender6Render12ObjectPicker9isPressedEv@Base 6.2.1
 _ZNK10Qt3DRender6Render12RenderTarget13renderOutputsEv@Base 6.2.1
 _ZNK10Qt3DRender6Render12RenderTarget7isDirtyEv@Base 6.2.1
 _ZNK10Qt3DRender6Render12StateSetNode12renderStatesEv@Base 6.2.1
 _ZNK10Qt3DRender6Render12StateVariant10constStateEv@Base 6.2.1
 _ZNK10Qt3DRender6Render12StateVarianteqERKS1_@Base 6.2.1
 _ZNK10Qt3DRender6Render12StateVariantneERKS1_@Base 6.2.1
 _ZNK10Qt3DRender6Render12ViewportNode4xMaxEv@Base 6.2.1
 _ZNK10Qt3DRender6Render12ViewportNode4xMinEv@Base 6.2.1
 _ZNK10Qt3DRender6Render12ViewportNode4yMaxEv@Base 6.2.1
 _ZNK10Qt3DRender6Render12ViewportNode4yMinEv@Base 6.2.1
 _ZNK10Qt3DRender6Render12ViewportNode5gammaEv@Base 6.2.1
 _ZNK10Qt3DRender6Render13MemoryBarrier14waitOperationsEv@Base 6.2.1
 _ZNK10Qt3DRender6Render13RenderCapture19wasCaptureRequestedEv@Base 6.2.1
 _ZNK10Qt3DRender6Render13ShaderBuilder10shaderCodeENS_14QShaderProgram10ShaderTypeE@Base 6.2.1
 _ZNK10Qt3DRender6Render13ShaderBuilder11graphicsApiEv@Base 6.2.1
 _ZNK10Qt3DRender6Render13ShaderBuilder11shaderGraphENS_14QShaderProgram10ShaderTypeE@Base 6.2.1
 _ZNK10Qt3DRender6Render13ShaderBuilder13enabledLayersEv@Base 6.2.1
 _ZNK10Qt3DRender6Render13ShaderBuilder15shaderProgramIdEv@Base 6.2.1
 _ZNK10Qt3DRender6Render13ShaderBuilder17isShaderCodeDirtyENS_14QShaderProgram10ShaderTypeE@Base 6.2.1
 _ZNK10Qt3DRender6Render13ShaderBuilder21hashKeyForShaderGraphENS_14QShaderProgram10ShaderTypeE@Base 6.2.1
 _ZNK10Qt3DRender6Render13SurfaceLocker14isSurfaceValidEv@Base 6.2.1
 _ZNK10Qt3DRender6Render14AttachmentPack18getDrawBufferIndexENS_19QRenderTargetOutput15AttachmentPointE@Base 6.2.1
 _ZNK10Qt3DRender6Render14CameraSelector10cameraUuidEv@Base 6.2.1
 _ZNK10Qt3DRender6Render14ComputeCommand20hasReachedFrameCountEv@Base 6.2.1
 _ZNK10Qt3DRender6Render14FrameGraphNode11childrenIdsEv@Base 6.2.1
 _ZNK10Qt3DRender6Render14FrameGraphNode6parentEv@Base 6.2.1
 _ZNK10Qt3DRender6Render14FrameGraphNode7managerEv@Base 6.2.1
 _ZNK10Qt3DRender6Render14FrameGraphNode8childrenEv@Base 6.2.1
 _ZNK10Qt3DRender6Render14FrameGraphNode8parentIdEv@Base 6.2.1
 _ZNK10Qt3DRender6Render14RenderStateSet14hasStateOfTypeENS0_9StateMaskE@Base 6.2.1
 _ZNK10Qt3DRender6Render14RenderStateSet17canAddStateOfTypeENS0_9StateMaskE@Base 6.2.1
 _ZNK10Qt3DRender6Render14RenderStateSet25allowMultipleStatesOfTypeENS0_9StateMaskE@Base 6.2.1
 _ZNK10Qt3DRender6Render14RenderStateSet8containsERKNS0_12StateVariantE@Base 6.2.1
 _ZNK10Qt3DRender6Render14RenderStateSet9stateMaskEv@Base 6.2.1
 _ZNK10Qt3DRender6Render15BlitFramebuffer10sourceRectEv@Base 6.2.1
 _ZNK10Qt3DRender6Render15BlitFramebuffer15destinationRectEv@Base 6.2.1
 _ZNK10Qt3DRender6Render15BlitFramebuffer19interpolationMethodEv@Base 6.2.1
 _ZNK10Qt3DRender6Render15BlitFramebuffer20sourceRenderTargetIdEv@Base 6.2.1
 _ZNK10Qt3DRender6Render15BlitFramebuffer21sourceAttachmentPointEv@Base 6.2.1
 _ZNK10Qt3DRender6Render15BlitFramebuffer25destinationRenderTargetIdEv@Base 6.2.1
 _ZNK10Qt3DRender6Render15BlitFramebuffer26destinationAttachmentPointEv@Base 6.2.1
 _ZNK10Qt3DRender6Render15LayerFilterNode10filterModeEv@Base 6.2.1
 _ZNK10Qt3DRender6Render15LayerFilterNode8layerIdsEv@Base 6.2.1
 _ZNK10Qt3DRender6Render15PickEventFilter10metaObjectEv@Base 6.2.1
 _ZNK10Qt3DRender6Render15QRendererPlugin10metaObjectEv@Base 6.2.1
 _ZNK10Qt3DRender6Render15TechniqueFilter10parametersEv@Base 6.2.1
 _ZNK10Qt3DRender6Render15TechniqueFilter7filtersEv@Base 6.2.1
 _ZNK10Qt3DRender6Render16EnvironmentLight10shaderDataEv@Base 6.2.1
 _ZNK10Qt3DRender6Render16RenderPassFilter10parametersEv@Base 6.2.1
 _ZNK10Qt3DRender6Render16RenderPassFilter7filtersEv@Base 6.2.1
 _ZNK10Qt3DRender6Render17EntityAccumulator5applyEPNS0_6EntityE@Base 6.2.1
 _ZNK10Qt3DRender6Render17FrameGraphManager10lookupNodeEN8Qt3DCore7QNodeIdE@Base 6.2.1
 _ZNK10Qt3DRender6Render17FrameGraphManager12containsNodeEN8Qt3DCore7QNodeIdE@Base 6.2.1
 _ZNK10Qt3DRender6Render18AbstractPickingJob14windowViewportERK5QSizeRK6QRectF@Base 6.2.1
 _ZNK10Qt3DRender6Render18AbstractPickingJob23rayForViewportAndCameraERKNS0_12PickingUtils25ViewportCameraAreaDetailsEP7QObjectRK6QPoint@Base 6.2.1
 _ZNK10Qt3DRender6Render18RenderTargetOutput10attachmentEv@Base 6.2.1
 _ZNK10Qt3DRender6Render18RenderTargetOutput11textureUuidEv@Base 6.2.1
 _ZNK10Qt3DRender6Render18RenderTargetOutput4faceEv@Base 6.2.1
 _ZNK10Qt3DRender6Render18RenderTargetOutput4nameEv@Base 6.2.1
 _ZNK10Qt3DRender6Render18RenderTargetOutput5layerEv@Base 6.2.1
 _ZNK10Qt3DRender6Render18RenderTargetOutput5pointEv@Base 6.2.1
 _ZNK10Qt3DRender6Render18RenderTargetOutput8mipLevelEv@Base 6.2.1
 _ZNK10Qt3DRender6Render20SendBufferCaptureJob11hasRequestsEv@Base 6.2.1
 _ZNK10Qt3DRender6Render21PlatformSurfaceFilter10metaObjectEv@Base 6.2.1
 _ZNK10Qt3DRender6Render21RenderSurfaceSelector16renderTargetSizeEv@Base 6.2.1
 _ZNK10Qt3DRender6Render22OffscreenSurfaceHelper10metaObjectEv@Base 6.2.1
 _ZNK10Qt3DRender6Render22QRenderPluginFactoryIf10metaObjectEv@Base 6.2.1
 _ZNK10Qt3DRender6Render28FilterCompatibleTechniqueJob7managerEv@Base 6.2.1
 _ZNK10Qt3DRender6Render28FilterCompatibleTechniqueJob8rendererEv@Base 6.2.1
 _ZNK10Qt3DRender6Render28UpdateShaderDataTransformJob8managersEv@Base 6.2.1
 _ZNK10Qt3DRender6Render5Light10shaderDataEv@Base 6.2.1
 _ZNK10Qt3DRender6Render5Scene6sourceEv@Base 6.2.1
 _ZNK10Qt3DRender6Render6Effect10parametersEv@Base 6.2.1
 _ZNK10Qt3DRender6Render6Effect10techniquesEv@Base 6.2.1
 (optional=templinst)_ZNK10Qt3DRender6Render6Entity13componentUuidINS0_10CameraLensEEEN8Qt3DCore7QNodeIdEv@Base 6.2.1
 (optional=templinst)_ZNK10Qt3DRender6Render6Entity13componentUuidINS0_12ObjectPickerEEEN8Qt3DCore7QNodeIdEv@Base 6.2.1
 (optional=templinst)_ZNK10Qt3DRender6Render6Entity13componentUuidINS0_12PickingProxyEEEN8Qt3DCore7QNodeIdEv@Base 6.2.1
 (optional=templinst)_ZNK10Qt3DRender6Render6Entity13componentUuidINS0_14ComputeCommandEEEN8Qt3DCore7QNodeIdEv@Base 6.2.1
 (optional=templinst)_ZNK10Qt3DRender6Render6Entity13componentUuidINS0_16GeometryRendererEEEN8Qt3DCore7QNodeIdEv@Base 6.2.1
 (optional=templinst)_ZNK10Qt3DRender6Render6Entity13componentUuidINS0_8ArmatureEEEN8Qt3DCore7QNodeIdEv@Base 6.2.1
 (optional=templinst)_ZNK10Qt3DRender6Render6Entity13componentUuidINS0_8MaterialEEEN8Qt3DCore7QNodeIdEv@Base 6.2.1
 (optional=templinst)_ZNK10Qt3DRender6Render6Entity13componentUuidINS0_9TransformEEEN8Qt3DCore7QNodeIdEv@Base 6.2.1
 (optional=templinst)_ZNK10Qt3DRender6Render6Entity14componentsUuidINS0_10ShaderDataEEE5QListIN8Qt3DCore7QNodeIdEEv@Base 6.2.1
 (optional=templinst)_ZNK10Qt3DRender6Render6Entity14componentsUuidINS0_13LevelOfDetailEEE5QListIN8Qt3DCore7QNodeIdEEv@Base 6.2.1
 (optional=templinst)_ZNK10Qt3DRender6Render6Entity14componentsUuidINS0_16EnvironmentLightEEE5QListIN8Qt3DCore7QNodeIdEEv@Base 6.2.1
 (optional=templinst)_ZNK10Qt3DRender6Render6Entity14componentsUuidINS0_5LayerEEE5QListIN8Qt3DCore7QNodeIdEEv@Base 6.2.1
 (optional=templinst)_ZNK10Qt3DRender6Render6Entity14componentsUuidINS0_5LightEEE5QListIN8Qt3DCore7QNodeIdEEv@Base 6.2.1
 (optional=templinst)_ZNK10Qt3DRender6Render6Entity14componentsUuidINS0_9RayCasterEEE5QListIN8Qt3DCore7QNodeIdEEv@Base 6.2.1
 _ZNK10Qt3DRender6Render6Entity14worldTransformEv@Base 6.2.1
 (optional=templinst)_ZNK10Qt3DRender6Render6Entity15componentHandleINS0_10CameraLensEEEN8Qt3DCore7QHandleIT_EEv@Base 6.2.1
 (optional=templinst)_ZNK10Qt3DRender6Render6Entity15componentHandleINS0_12ObjectPickerEEEN8Qt3DCore7QHandleIT_EEv@Base 6.2.1
 (optional=templinst)_ZNK10Qt3DRender6Render6Entity15componentHandleINS0_12PickingProxyEEEN8Qt3DCore7QHandleIT_EEv@Base 6.2.1
 (optional=templinst)_ZNK10Qt3DRender6Render6Entity15componentHandleINS0_14ComputeCommandEEEN8Qt3DCore7QHandleIT_EEv@Base 6.2.1
 (optional=templinst)_ZNK10Qt3DRender6Render6Entity15componentHandleINS0_16GeometryRendererEEEN8Qt3DCore7QHandleIT_EEv@Base 6.2.1
 (optional=templinst)_ZNK10Qt3DRender6Render6Entity15componentHandleINS0_8ArmatureEEEN8Qt3DCore7QHandleIT_EEv@Base 6.2.1
 (optional=templinst)_ZNK10Qt3DRender6Render6Entity15componentHandleINS0_8MaterialEEEN8Qt3DCore7QHandleIT_EEv@Base 6.2.1
 (optional=templinst)_ZNK10Qt3DRender6Render6Entity15componentHandleINS0_9TransformEEEN8Qt3DCore7QHandleIT_EEv@Base 6.2.1
 (optional=templinst)_ZNK10Qt3DRender6Render6Entity15renderComponentINS0_10CameraLensEEEPT_v@Base 6.2.1
 (optional=templinst)_ZNK10Qt3DRender6Render6Entity15renderComponentINS0_12ObjectPickerEEEPT_v@Base 6.2.1
 (optional=templinst)_ZNK10Qt3DRender6Render6Entity15renderComponentINS0_12PickingProxyEEEPT_v@Base 6.2.1
 (optional=templinst)_ZNK10Qt3DRender6Render6Entity15renderComponentINS0_14ComputeCommandEEEPT_v@Base 6.2.1
 (optional=templinst)_ZNK10Qt3DRender6Render6Entity15renderComponentINS0_16GeometryRendererEEEPT_v@Base 6.2.1
 (optional=templinst)_ZNK10Qt3DRender6Render6Entity15renderComponentINS0_8ArmatureEEEPT_v@Base 6.2.1
 (optional=templinst)_ZNK10Qt3DRender6Render6Entity15renderComponentINS0_8MaterialEEEPT_v@Base 6.2.1
 (optional=templinst)_ZNK10Qt3DRender6Render6Entity15renderComponentINS0_9TransformEEEPT_v@Base 6.2.1
 (optional=templinst)_ZNK10Qt3DRender6Render6Entity16componentsHandleINS0_10ShaderDataEEE5QListIN8Qt3DCore7QHandleIT_EEEv@Base 6.2.1
 (optional=templinst)_ZNK10Qt3DRender6Render6Entity16componentsHandleINS0_13LevelOfDetailEEE5QListIN8Qt3DCore7QHandleIT_EEEv@Base 6.2.1
 (optional=templinst)_ZNK10Qt3DRender6Render6Entity16componentsHandleINS0_16EnvironmentLightEEE5QListIN8Qt3DCore7QHandleIT_EEEv@Base 6.2.1
 (optional=templinst)_ZNK10Qt3DRender6Render6Entity16componentsHandleINS0_5LayerEEE5QListIN8Qt3DCore7QHandleIT_EEEv@Base 6.2.1
 (optional=templinst)_ZNK10Qt3DRender6Render6Entity16componentsHandleINS0_5LightEEE5QListIN8Qt3DCore7QHandleIT_EEEv@Base 6.2.1
 (optional=templinst)_ZNK10Qt3DRender6Render6Entity16componentsHandleINS0_9RayCasterEEE5QListIN8Qt3DCore7QHandleIT_EEEv@Base 6.2.1
 (optional=templinst)_ZNK10Qt3DRender6Render6Entity16renderComponentsINS0_10ShaderDataEEESt6vectorIPT_SaIS6_EEv@Base 6.2.1
 (optional=templinst)_ZNK10Qt3DRender6Render6Entity16renderComponentsINS0_13LevelOfDetailEEESt6vectorIPT_SaIS6_EEv@Base 6.2.1
 (optional=templinst)_ZNK10Qt3DRender6Render6Entity16renderComponentsINS0_16EnvironmentLightEEESt6vectorIPT_SaIS6_EEv@Base 6.2.1
 (optional=templinst)_ZNK10Qt3DRender6Render6Entity16renderComponentsINS0_5LayerEEESt6vectorIPT_SaIS6_EEv@Base 6.2.1
 (optional=templinst)_ZNK10Qt3DRender6Render6Entity16renderComponentsINS0_5LightEEESt6vectorIPT_SaIS6_EEv@Base 6.2.1
 (optional=templinst)_ZNK10Qt3DRender6Render6Entity16renderComponentsINS0_9RayCasterEEESt6vectorIPT_SaIS6_EEv@Base 6.2.1
 _ZNK10Qt3DRender6Render6Entity21isBoundingVolumeDirtyEv@Base 6.2.1
 _ZNK10Qt3DRender6Render6Entity4dumpEv@Base 6.2.1
 _ZNK10Qt3DRender6Render6Entity6parentEv@Base 6.2.1
 _ZNK10Qt3DRender6Render6Entity8childrenEv@Base 6.2.1
 _ZNK10Qt3DRender6Render6Entity8traverseERKSt8functionIFvPKS1_EE@Base 6.2.1
 _ZNK10Qt3DRender6Render6Shader10shaderCodeEv@Base 6.2.1
 (arch=!amd64)_ZNK10Qt3DRender6Render6Sphere10intersectsERKNS_10RayCasting6QRay3DEP9QVector3DS7_@Base 6.2.2
 (arch=amd64)_ZNK10Qt3DRender6Render6Sphere10intersectsERKNS_10RayCasting6QRay3DEPN8Qt3DCore12Vector3D_SSEES8_@Base 6.2.2
 (arch=!amd64)_ZNK10Qt3DRender6Render6Sphere11transformedERK10QMatrix4x4@Base 6.2.2
 (arch=amd64)_ZNK10Qt3DRender6Render6Sphere11transformedERKN8Qt3DCore13Matrix4x4_SSEE@Base 6.2.2
 _ZNK10Qt3DRender6Render6Sphere2idEv@Base 6.2.1
 _ZNK10Qt3DRender6Render6Sphere4typeEv@Base 6.2.1
 _ZNK10Qt3DRender6Render6Sphere6centerEv@Base 6.2.1
 _ZNK10Qt3DRender6Render6Sphere6radiusEv@Base 6.2.1
 _ZNK10Qt3DRender6Render7Texture7isValidEPNS0_19TextureImageManagerE@Base 6.2.1
 _ZNK10Qt3DRender6Render8Material10parametersEv@Base 6.2.1
 _ZNK10Qt3DRender6Render8Material6effectEv@Base 6.2.1
 _ZNK10Qt3DRender6Render9Parameter4nameEv@Base 6.2.1
 _ZNK10Qt3DRender6Render9RayCaster10filterModeEv@Base 6.2.1
 _ZNK10Qt3DRender6Render9RayCaster4typeEv@Base 6.2.1
 _ZNK10Qt3DRender6Render9RayCaster6lengthEv@Base 6.2.1
 _ZNK10Qt3DRender6Render9RayCaster6originEv@Base 6.2.1
 _ZNK10Qt3DRender6Render9RayCaster7runModeEv@Base 6.2.1
 _ZNK10Qt3DRender6Render9RayCaster8layerIdsEv@Base 6.2.1
 _ZNK10Qt3DRender6Render9RayCaster8positionEv@Base 6.2.1
 _ZNK10Qt3DRender6Render9RayCaster9directionEv@Base 6.2.1
 _ZNK10Qt3DRender6Render9Technique10filterKeysEv@Base 6.2.1
 _ZNK10Qt3DRender6Render9Technique10parametersEv@Base 6.2.1
 _ZNK10Qt3DRender6Render9Technique11nodeManagerEv@Base 6.2.1
 _ZNK10Qt3DRender6Render9Technique12renderPassesEv@Base 6.2.1
 _ZNK10Qt3DRender6Render9Technique17graphicsApiFilterEv@Base 6.2.1
 _ZNK10Qt3DRender6Render9Technique24isCompatibleWithRendererEv@Base 6.2.1
 _ZNK10Qt3DRender6Render9Transform11translationEv@Base 6.2.1
 _ZNK10Qt3DRender6Render9Transform15transformMatrixEv@Base 6.2.1
 _ZNK10Qt3DRender6Render9Transform5scaleEv@Base 6.2.1
 _ZNK10Qt3DRender6Render9Transform8rotationEv@Base 6.2.1
 _ZNK10Qt3DRender7QCamera10metaObjectEv@Base 6.2.1
 _ZNK10Qt3DRender7QCamera10viewCenterEv@Base 6.2.1
 _ZNK10Qt3DRender7QCamera10viewMatrixEv@Base 6.2.1
 _ZNK10Qt3DRender7QCamera10viewVectorEv@Base 6.2.1
 _ZNK10Qt3DRender7QCamera11aspectRatioEv@Base 6.2.1
 _ZNK10Qt3DRender7QCamera11fieldOfViewEv@Base 6.2.1
 _ZNK10Qt3DRender7QCamera11panRotationEf@Base 6.2.1
 _ZNK10Qt3DRender7QCamera12rollRotationEf@Base 6.2.1
 _ZNK10Qt3DRender7QCamera12tiltRotationEf@Base 6.2.1
 _ZNK10Qt3DRender7QCamera14projectionTypeEv@Base 6.2.1
 _ZNK10Qt3DRender7QCamera16projectionMatrixEv@Base 6.2.1
 _ZNK10Qt3DRender7QCamera3topEv@Base 6.2.1
 _ZNK10Qt3DRender7QCamera4leftEv@Base 6.2.1
 _ZNK10Qt3DRender7QCamera4lensEv@Base 6.2.1
 _ZNK10Qt3DRender7QCamera5rightEv@Base 6.2.1
 _ZNK10Qt3DRender7QCamera6bottomEv@Base 6.2.1
 _ZNK10Qt3DRender7QCamera8exposureEv@Base 6.2.1
 _ZNK10Qt3DRender7QCamera8farPlaneEv@Base 6.2.1
 _ZNK10Qt3DRender7QCamera8positionEv@Base 6.2.1
 _ZNK10Qt3DRender7QCamera8rotationEfRK9QVector3D@Base 6.2.1
 _ZNK10Qt3DRender7QCamera8upVectorEv@Base 6.2.1
 _ZNK10Qt3DRender7QCamera9nearPlaneEv@Base 6.2.1
 _ZNK10Qt3DRender7QCamera9transformEv@Base 6.2.1
 _ZNK10Qt3DRender7QEffect10metaObjectEv@Base 6.2.1
 _ZNK10Qt3DRender7QEffect10parametersEv@Base 6.2.1
 _ZNK10Qt3DRender7QEffect10techniquesEv@Base 6.2.1
 _ZNK10Qt3DRender7QNoDraw10metaObjectEv@Base 6.2.1
 _ZNK10Qt3DRender9QCullFace10metaObjectEv@Base 6.2.1
 _ZNK10Qt3DRender9QCullFace4modeEv@Base 6.2.1
 _ZNK10Qt3DRender9QMaterial10metaObjectEv@Base 6.2.1
 _ZNK10Qt3DRender9QMaterial10parametersEv@Base 6.2.1
 _ZNK10Qt3DRender9QMaterial6effectEv@Base 6.2.1
 _ZNK10Qt3DRender9QSetFence10handleTypeEv@Base 6.2.1
 _ZNK10Qt3DRender9QSetFence10metaObjectEv@Base 6.2.1
 _ZNK10Qt3DRender9QSetFence6handleEv@Base 6.2.1
 _ZNK10Qt3DRender9QViewport10metaObjectEv@Base 6.2.1
 _ZNK10Qt3DRender9QViewport14normalizedRectEv@Base 6.2.1
 _ZNK10Qt3DRender9QViewport5gammaEv@Base 6.2.1
 (optional=templinst)_ZNKSt10_HashtableIiSt4pairIKiSt6vectorISt5tupleIJiiPKN10Qt3DRender6Render10ShaderData13PropertyValueEEESaISA_EEESaISD_ENSt8__detail10_Select1stESt8equal_toIiESt4hashIiENSF_18_Mod_range_hashingENSF_20_Default_ranged_hashENSF_20_Prime_rehash_policyENSF_17_Hashtable_traitsILb0ELb0ELb1EEEE4findERS1_@Base 6.2.1
 (optional=templinst)_ZNSt10_HashtableIiSt4pairIKiSt6vectorISt5tupleIJiiPKN10Qt3DRender6Render10ShaderData13PropertyValueEEESaISA_EEESaISD_ENSt8__detail10_Select1stESt8equal_toIiESt4hashIiENSF_18_Mod_range_hashingENSF_20_Default_ranged_hashENSF_20_Prime_rehash_policyENSF_17_Hashtable_traitsILb0ELb0ELb1EEEE5clearEv@Base 6.2.1
 (optional=templinst|subst)_ZNSt6vectorI10QByteArraySaIS0_EE17_M_default_appendE{size_t}@Base 6.2.1
 (optional=templinst)_ZNSt6vectorI7QStringSaIS0_EE17_M_realloc_insertIJRKS0_EEEvN9__gnu_cxx17__normal_iteratorIPS0_S2_EEDpOT_@Base 6.2.1
 (optional=templinst)_ZNSt6vectorIN10Qt3DRender10RayCasting21QCollisionQueryResult3HitESaIS3_EE17_M_realloc_insertIJRKS3_EEEvN9__gnu_cxx17__normal_iteratorIPS3_S5_EEDpOT_@Base 6.2.1
 (optional=templinst|arch=!amd64)_ZNSt6vectorIN10Qt3DRender10RayCasting21QCollisionQueryResult3HitESaIS3_EE17_M_realloc_insertIJRN8Qt3DCore7QNodeIdERK9QVector3DRfSC_EEEvN9__gnu_cxx17__normal_iteratorIPS3_S5_EEDpOT_@Base 6.2.2
 (optional=templinst|arch=amd64)_ZNSt6vectorIN10Qt3DRender10RayCasting21QCollisionQueryResult3HitESaIS3_EE17_M_realloc_insertIJRN8Qt3DCore7QNodeIdERKNS7_12Vector3D_SSEERfSC_EEEvN9__gnu_cxx17__normal_iteratorIPS3_S5_EEDpOT_@Base 6.2.2
 (optional=templinst)_ZNSt6vectorIN10Qt3DRender10RayCasting21QCollisionQueryResult3HitESaIS3_EE6insertEN9__gnu_cxx17__normal_iteratorIPKS3_S5_EERS8_@Base 6.2.1
 (optional=templinst)_ZNSt6vectorIN10Qt3DRender10RayCasting21QCollisionQueryResult3HitESaIS3_EEaSERKS5_@Base 6.2.1
 (optional=templinst|arch=arm64 mipsel)_ZNSt6vectorIN10Qt3DRender10RayCasting6QRay3DESaIS2_EE17_M_realloc_insertIJ9QVector3DS6_fEEEvN9__gnu_cxx17__normal_iteratorIPS2_S4_EEDpOT_@Base 6.2.2
 (optional=templinst)_ZNSt6vectorIN10Qt3DRender10RayCasting6QRay3DESaIS2_EE17_M_realloc_insertIJRKS2_EEEvN9__gnu_cxx17__normal_iteratorIPS2_S4_EEDpOT_@Base 6.2.1
 (optional=templinst)_ZNSt6vectorIN10Qt3DRender18QTextureDataUpdateESaIS1_EE17_M_realloc_insertIJRKS1_EEEvN9__gnu_cxx17__normal_iteratorIPS1_S3_EEDpOT_@Base 6.2.1
 (optional=templinst)_ZNSt6vectorIN10Qt3DRender6Render10AttachmentESaIS2_EE17_M_realloc_insertIJRKS2_EEEvN9__gnu_cxx17__normal_iteratorIPS2_S4_EEDpOT_@Base 6.2.1
 (optional=templinst)_ZNSt6vectorIN10Qt3DRender6Render11LightSourceESaIS2_EE17_M_realloc_insertIJS2_EEEvN9__gnu_cxx17__normal_iteratorIPS2_S4_EEDpOT_@Base 6.2.1
 (optional=templinst)_ZNSt6vectorIN10Qt3DRender6Render12StateVariantESaIS2_EE17_M_realloc_insertIJRKS2_EEEvN9__gnu_cxx17__normal_iteratorIPS2_S4_EEDpOT_@Base 6.2.1
 (optional=templinst)_ZNSt6vectorIPN10Qt3DRender6Render10ShaderDataESaIS3_EE17_M_realloc_insertIJS3_EEEvN9__gnu_cxx17__normal_iteratorIPS3_S5_EEDpOT_@Base 6.2.1
 (optional=templinst)_ZNSt6vectorIPN10Qt3DRender6Render13LevelOfDetailESaIS3_EE17_M_realloc_insertIJS3_EEEvN9__gnu_cxx17__normal_iteratorIPS3_S5_EEDpOT_@Base 6.2.1
 (optional=templinst)_ZNSt6vectorIPN10Qt3DRender6Render16EnvironmentLightESaIS3_EE17_M_realloc_insertIJS3_EEEvN9__gnu_cxx17__normal_iteratorIPS3_S5_EEDpOT_@Base 6.2.1
 (optional=templinst)_ZNSt6vectorIPN10Qt3DRender6Render5LightESaIS3_EE17_M_realloc_insertIJS3_EEEvN9__gnu_cxx17__normal_iteratorIPS3_S5_EEDpOT_@Base 6.2.1
 (optional=templinst)_ZNSt6vectorIPN10Qt3DRender6Render9RayCasterESaIS3_EE17_M_realloc_insertIJS3_EEEvN9__gnu_cxx17__normal_iteratorIPS3_S5_EEDpOT_@Base 6.2.1
 (optional=templinst)_ZNSt6vectorIPN10Qt3DRender6Render9TechniqueESaIS3_EE17_M_realloc_insertIJRKS3_EEEvN9__gnu_cxx17__normal_iteratorIPS3_S5_EEDpOT_@Base 6.2.1
 (optional=templinst)_ZNSt6vectorISt4pairIP7QObjectSt10unique_ptrI11QMouseEventSt14default_deleteIS4_EEESaIS8_EE17_M_realloc_insertIJRS2_S7_EEEvN9__gnu_cxx17__normal_iteratorIPS8_SA_EEDpOT_@Base 6.2.1
 (optional=templinst)_ZNSt6vectorISt5tupleIJiiPKN10Qt3DRender6Render10ShaderData13PropertyValueEEESaIS7_EE17_M_realloc_insertIJS7_EEEvN9__gnu_cxx17__normal_iteratorIPS7_S9_EEDpOT_@Base 6.2.1
 (optional=templinst)_ZNSt6vectorIiSaIiEE17_M_realloc_insertIJiEEEvN9__gnu_cxx17__normal_iteratorIPiS1_EEDpOT_@Base 6.2.1
 (optional=templinst|subst)_ZNSt6vectorIiSaIiEE7reserveE{size_t}@Base 6.2.1
 (optional=templinst)_ZNSt8__detail9_Map_baseIiSt4pairIKiSt6vectorISt5tupleIJiiPKN10Qt3DRender6Render10ShaderData13PropertyValueEEESaISB_EEESaISE_ENS_10_Select1stESt8equal_toIiESt4hashIiENS_18_Mod_range_hashingENS_20_Default_ranged_hashENS_20_Prime_rehash_policyENS_17_Hashtable_traitsILb0ELb0ELb1EEELb1EEixEOi@Base 6.2.1
 _ZTIFSt6vectorIN10Qt3DRender10RayCasting21QCollisionQueryResult3HitESaIS3_EERS5_RKS5_E@Base 6.2.1
 _ZTIN10Qt3DRender10QAlphaTestE@Base 6.2.1
 _ZTIN10Qt3DRender10QClipPlaneE@Base 6.2.1
 _ZTIN10Qt3DRender10QColorMaskE@Base 6.2.1
 _ZTIN10Qt3DRender10QDepthTestE@Base 6.2.1
 _ZTIN10Qt3DRender10QDitheringE@Base 6.2.1
 _ZTIN10Qt3DRender10QFilterKeyE@Base 6.2.1
 _ZTIN10Qt3DRender10QFrontFaceE@Base 6.2.1
 _ZTIN10Qt3DRender10QLineWidthE@Base 6.2.1
 _ZTIN10Qt3DRender10QNoPickingE@Base 6.2.1
 _ZTIN10Qt3DRender10QParameterE@Base 6.2.1
 _ZTIN10Qt3DRender10QPickEventE@Base 6.2.1
 _ZTIN10Qt3DRender10QPointSizeE@Base 6.2.1
 _ZTIN10Qt3DRender10QRayCasterE@Base 6.2.1
 _ZTIN10Qt3DRender10QSpotLightE@Base 6.2.1
 _ZTIN10Qt3DRender10QTechniqueE@Base 6.2.1
 _ZTIN10Qt3DRender10QTexture1DE@Base 6.2.1
 _ZTIN10Qt3DRender10QTexture2DE@Base 6.2.1
 _ZTIN10Qt3DRender10QTexture3DE@Base 6.2.1
 _ZTIN10Qt3DRender10QWaitFenceE@Base 6.2.1
 _ZTIN10Qt3DRender10RayCasting14BoundingSphereE@Base 6.2.1
 _ZTIN10Qt3DRender10RayCasting15QBoundingVolumeE@Base 6.2.1
 _ZTIN10Qt3DRender10RayCasting18QRayCastingServiceE@Base 6.2.1
 _ZTIN10Qt3DRender10RayCasting23QBoundingVolumeProviderE@Base 6.2.1
 _ZTIN10Qt3DRender10RayCasting30QAbstractCollisionQueryServiceE@Base 6.2.1
 _ZTIN10Qt3DRender11QCameraLensE@Base 6.2.1
 _ZTIN10Qt3DRender11QDepthRangeE@Base 6.2.1
 _ZTIN10Qt3DRender11QPointLightE@Base 6.2.1
 _ZTIN10Qt3DRender11QRasterModeE@Base 6.2.1
 _ZTIN10Qt3DRender11QRenderPassE@Base 6.2.1
 _ZTIN10Qt3DRender11QShaderDataE@Base 6.2.1
 _ZTIN10Qt3DRender11QSortPolicyE@Base 6.2.1
 _ZTIN10Qt3DRender12QLayerFilterE@Base 6.2.1
 _ZTIN10Qt3DRender12QMeshPrivateE@Base 6.2.1
 _ZTIN10Qt3DRender12QNoDepthMaskE@Base 6.2.1
 _ZTIN10Qt3DRender12QRenderStateE@Base 6.2.1
 _ZTIN10Qt3DRender12QSceneLoaderE@Base 6.2.1
 _ZTIN10Qt3DRender12QScissorTestE@Base 6.2.1
 _ZTIN10Qt3DRender12QShaderImageE@Base 6.2.1
 _ZTIN10Qt3DRender12QStencilMaskE@Base 6.2.1
 _ZTIN10Qt3DRender12QStencilTestE@Base 6.2.1
 _ZTIN10Qt3DRender13QClearBuffersE@Base 6.2.1
 _ZTIN10Qt3DRender13QDebugOverlayE@Base 6.2.1
 _ZTIN10Qt3DRender13QLayerPrivateE@Base 6.2.1
 _ZTIN10Qt3DRender13QObjectPickerE@Base 6.2.1
 _ZTIN10Qt3DRender13QPickingProxyE@Base 6.2.1
 _ZTIN10Qt3DRender13QRenderAspectE@Base 6.2.1
 _ZTIN10Qt3DRender13QRenderTargetE@Base 6.2.1
 _ZTIN10Qt3DRender13QTextureImageE@Base 6.2.1
 _ZTIN10Qt3DRender14QAbstractLightE@Base 6.2.1
 _ZTIN10Qt3DRender14QAlphaCoverageE@Base 6.2.1
 _ZTIN10Qt3DRender14QBlendEquationE@Base 6.2.1
 _ZTIN10Qt3DRender14QBufferCaptureE@Base 6.2.1
 _ZTIN10Qt3DRender14QCameraPrivateE@Base 6.2.1
 _ZTIN10Qt3DRender14QEffectPrivateE@Base 6.2.1
 _ZTIN10Qt3DRender14QLevelOfDetailE@Base 6.2.1
 _ZTIN10Qt3DRender14QMemoryBarrierE@Base 6.2.1
 _ZTIN10Qt3DRender14QPickLineEventE@Base 6.2.1
 _ZTIN10Qt3DRender14QPolygonOffsetE@Base 6.2.1
 _ZTIN10Qt3DRender14QRenderCaptureE@Base 6.2.1
 _ZTIN10Qt3DRender14QSceneExporterE@Base 6.2.1
 _ZTIN10Qt3DRender14QSceneImporterE@Base 6.2.1
 _ZTIN10Qt3DRender14QShaderProgramE@Base 6.2.1
 _ZTIN10Qt3DRender14QTextureBufferE@Base 6.2.1
 _ZTIN10Qt3DRender14QTextureLoaderE@Base 6.2.1
 _ZTIN10Qt3DRender15QCameraSelectorE@Base 6.2.1
 _ZTIN10Qt3DRender15QComputeCommandE@Base 6.2.1
 _ZTIN10Qt3DRender15QFrameGraphNodeE@Base 6.2.1
 _ZTIN10Qt3DRender15QFrustumCullingE@Base 6.2.1
 _ZTIN10Qt3DRender15QPickPointEventE@Base 6.2.1
 _ZTIN10Qt3DRender15QRenderSettingsE@Base 6.2.1
 _ZTIN10Qt3DRender15QRenderStateSetE@Base 6.2.1
 _ZTIN10Qt3DRender15QSubtreeEnablerE@Base 6.2.1
 _ZTIN10Qt3DRender15QTexture1DArrayE@Base 6.2.1
 _ZTIN10Qt3DRender15QTexture2DArrayE@Base 6.2.1
 _ZTIN10Qt3DRender15QTextureCubeMapE@Base 6.2.1
 _ZTIN10Qt3DRender16QAbstractTextureE@Base 6.2.1
 _ZTIN10Qt3DRender16QBlitFramebufferE@Base 6.2.1
 _ZTIN10Qt3DRender16QCullFacePrivateE@Base 6.2.1
 _ZTIN10Qt3DRender16QDispatchComputeE@Base 6.2.1
 _ZTIN10Qt3DRender16QMaterialPrivateE@Base 6.2.1
 _ZTIN10Qt3DRender16QPickingSettingsE@Base 6.2.1
 _ZTIN10Qt3DRender16QProximityFilterE@Base 6.2.1
 _ZTIN10Qt3DRender16QScreenRayCasterE@Base 6.2.1
 _ZTIN10Qt3DRender16QSeamlessCubemapE@Base 6.2.1
 _ZTIN10Qt3DRender16QSetFencePrivateE@Base 6.2.1
 _ZTIN10Qt3DRender16QSharedGLTextureE@Base 6.2.1
 _ZTIN10Qt3DRender16QTechniqueFilterE@Base 6.2.1
 _ZTIN10Qt3DRender16QTextureWrapModeE@Base 6.2.1
 _ZTIN10Qt3DRender17QClipPlanePrivateE@Base 6.2.1
 _ZTIN10Qt3DRender17QColorMaskPrivateE@Base 6.2.1
 _ZTIN10Qt3DRender17QDepthTestPrivateE@Base 6.2.1
 _ZTIN10Qt3DRender17QDirectionalLightE@Base 6.2.1
 _ZTIN10Qt3DRender17QEnvironmentLightE@Base 6.2.1
 _ZTIN10Qt3DRender17QFilterKeyPrivateE@Base 6.2.1
 _ZTIN10Qt3DRender17QFrontFacePrivateE@Base 6.2.1
 _ZTIN10Qt3DRender17QGeometryRendererE@Base 6.2.1
 _ZTIN10Qt3DRender17QParameterPrivateE@Base 6.2.1
 _ZTIN10Qt3DRender17QPickEventPrivateE@Base 6.2.1
 _ZTIN10Qt3DRender17QPointSizePrivateE@Base 6.2.1
 _ZTIN10Qt3DRender17QRenderPassFilterE@Base 6.2.1
 _ZTIN10Qt3DRender17QSpotLightPrivateE@Base 6.2.1
 _ZTIN10Qt3DRender17QStencilOperationE@Base 6.2.1
 _ZTIN10Qt3DRender17QTextureGeneratorE@Base 6.2.1
 _ZTIN10Qt3DRender17QTextureRectangleE@Base 6.2.1
 _ZTIN10Qt3DRender18QAbstractRayCasterE@Base 6.2.1
 _ZTIN10Qt3DRender18QCameraLensPrivateE@Base 6.2.1
 _ZTIN10Qt3DRender18QDepthRangePrivateE@Base 6.2.1
 _ZTIN10Qt3DRender18QGraphicsApiFilterE@Base 6.2.1
 _ZTIN10Qt3DRender18QPickTriangleEventE@Base 6.2.1
 _ZTIN10Qt3DRender18QPointLightPrivateE@Base 6.2.1
 _ZTIN10Qt3DRender18QRasterModePrivateE@Base 6.2.1
 _ZTIN10Qt3DRender18QSceneExportPluginE@Base 6.2.1
 _ZTIN10Qt3DRender18QSceneImportPluginE@Base 6.2.1
 _ZTIN10Qt3DRender18QShaderDataPrivateE@Base 6.2.1
 _ZTIN10Qt3DRender19QRenderCapabilitiesE@Base 6.2.1
 _ZTIN10Qt3DRender19QRenderCaptureReplyE@Base 6.2.1
 _ZTIN10Qt3DRender19QRenderStatePrivateE@Base 6.2.1
 _ZTIN10Qt3DRender19QRenderTargetOutputE@Base 6.2.1
 _ZTIN10Qt3DRender19QSceneLoaderPrivateE@Base 6.2.1
 _ZTIN10Qt3DRender19QScissorTestPrivateE@Base 6.2.1
 _ZTIN10Qt3DRender19QStencilMaskPrivateE@Base 6.2.1
 _ZTIN10Qt3DRender19QStencilTestPrivateE@Base 6.2.1
 _ZTIN10Qt3DRender20QLevelOfDetailSwitchE@Base 6.2.1
 _ZTIN10Qt3DRender20QObjectPickerPrivateE@Base 6.2.1
 _ZTIN10Qt3DRender20QPaintedTextureImageE@Base 6.2.1
 _ZTIN10Qt3DRender20QPickingProxyPrivateE@Base 6.2.1
 _ZTIN10Qt3DRender20QRenderAspectPrivateE@Base 6.2.1
 _ZTIN10Qt3DRender20QRenderTargetPrivateE@Base 6.2.1
 _ZTIN10Qt3DRender20QTextureCubeMapArrayE@Base 6.2.1
 _ZTIN10Qt3DRender20QTextureImagePrivateE@Base 6.2.1
 _ZTIN10Qt3DRender21QAbstractLightPrivateE@Base 6.2.1
 _ZTIN10Qt3DRender21QAbstractTextureImageE@Base 6.2.1
 _ZTIN10Qt3DRender21QBlendEquationPrivateE@Base 6.2.1
 _ZTIN10Qt3DRender21QLevelOfDetailPrivateE@Base 6.2.1
 _ZTIN10Qt3DRender21QPolygonOffsetPrivateE@Base 6.2.1
 _ZTIN10Qt3DRender21QRenderTargetSelectorE@Base 6.2.1
 _ZTIN10Qt3DRender21QShaderProgramBuilderE@Base 6.2.1
 _ZTIN10Qt3DRender21QShaderProgramPrivateE@Base 6.2.1
 _ZTIN10Qt3DRender21QStencilTestArgumentsE@Base 6.2.1
 _ZTIN10Qt3DRender21QTexture2DMultisampleE@Base 6.2.1
 _ZTIN10Qt3DRender21QTextureLoaderPrivateE@Base 6.2.1
 _ZTIN10Qt3DRender22QComputeCommandPrivateE@Base 6.2.1
 _ZTIN10Qt3DRender22QFrameGraphNodePrivateE@Base 6.2.1
 _ZTIN10Qt3DRender22QGeometryLoaderFactoryE@Base 6.2.1
 _ZTIN10Qt3DRender22QRenderSettingsPrivateE@Base 6.2.1
 _ZTIN10Qt3DRender22QRenderSurfaceSelectorE@Base 6.2.1
 _ZTIN10Qt3DRender23PropertyReaderInterfaceE@Base 6.2.1
 _ZTIN10Qt3DRender23QAbstractTexturePrivateE@Base 6.2.1
 _ZTIN10Qt3DRender23QBlendEquationArgumentsE@Base 6.2.1
 _ZTIN10Qt3DRender23QPickingSettingsPrivateE@Base 6.2.1
 _ZTIN10Qt3DRender23QTechniqueFilterPrivateE@Base 6.2.1
 _ZTIN10Qt3DRender24QDirectionalLightPrivateE@Base 6.2.1
 _ZTIN10Qt3DRender24QEnvironmentLightPrivateE@Base 6.2.1
 _ZTIN10Qt3DRender24QGeometryRendererPrivateE@Base 6.2.1
 _ZTIN10Qt3DRender24QMultiSampleAntiAliasingE@Base 6.2.1
 _ZTIN10Qt3DRender24QStencilOperationPrivateE@Base 6.2.1
 _ZTIN10Qt3DRender25QAbstractRayCasterPrivateE@Base 6.2.1
 _ZTIN10Qt3DRender25QGraphicsApiFilterPrivateE@Base 6.2.1
 _ZTIN10Qt3DRender25QPickTriangleEventPrivateE@Base 6.2.1
 _ZTIN10Qt3DRender26QRenderCapabilitiesPrivateE@Base 6.2.1
 _ZTIN10Qt3DRender26QRenderTargetOutputPrivateE@Base 6.2.1
 _ZTIN10Qt3DRender26QStencilOperationArgumentsE@Base 6.2.1
 _ZTIN10Qt3DRender26QTexture2DMultisampleArrayE@Base 6.2.1
 _ZTIN10Qt3DRender26QTextureImageDataGeneratorE@Base 6.2.1
 _ZTIN10Qt3DRender27QLevelOfDetailSwitchPrivateE@Base 6.2.1
 _ZTIN10Qt3DRender27QPaintedTextureImagePrivateE@Base 6.2.1
 _ZTIN10Qt3DRender28QAbstractTextureImagePrivateE@Base 6.2.1
 _ZTIN10Qt3DRender28QShaderProgramBuilderPrivateE@Base 6.2.1
 _ZTIN10Qt3DRender28QStencilTestArgumentsPrivateE@Base 6.2.1
 _ZTIN10Qt3DRender29QRenderSurfaceSelectorPrivateE@Base 6.2.1
 _ZTIN10Qt3DRender30QBlendEquationArgumentsPrivateE@Base 6.2.1
 _ZTIN10Qt3DRender33QStencilOperationArgumentsPrivateE@Base 6.2.1
 _ZTIN10Qt3DRender5QMeshE@Base 6.2.1
 _ZTIN10Qt3DRender6QLayerE@Base 6.2.1
 _ZTIN10Qt3DRender6Render10CameraLensE@Base 6.2.1
 _ZTIN10Qt3DRender6Render10DepthRangeE@Base 6.2.1
 _ZTIN10Qt3DRender6Render10RasterModeE@Base 6.2.1
 _ZTIN10Qt3DRender6Render10RenderPassE@Base 6.2.1
 _ZTIN10Qt3DRender6Render10ShaderDataE@Base 6.2.1
 _ZTIN10Qt3DRender6Render10SortPolicyE@Base 6.2.1
 _ZTIN10Qt3DRender6Render11BackendNodeE@Base 6.2.1
 _ZTIN10Qt3DRender6Render11MSAAEnabledE@Base 6.2.1
 _ZTIN10Qt3DRender6Render11NoDepthMaskE@Base 6.2.1
 _ZTIN10Qt3DRender6Render11ScissorTestE@Base 6.2.1
 _ZTIN10Qt3DRender6Render11StencilMaskE@Base 6.2.1
 _ZTIN10Qt3DRender6Render11StencilTestE@Base 6.2.1
 _ZTIN10Qt3DRender6Render12ClearBuffersE@Base 6.2.1
 _ZTIN10Qt3DRender6Render12LoadSceneJobE@Base 6.2.1
 _ZTIN10Qt3DRender6Render12ObjectPickerE@Base 6.2.1
 _ZTIN10Qt3DRender6Render12PickingProxyE@Base 6.2.1
 _ZTIN10Qt3DRender6Render12RenderTargetE@Base 6.2.1
 _ZTIN10Qt3DRender6Render12StateSetNodeE@Base 6.2.1
 _ZTIN10Qt3DRender6Render12TextureImageE@Base 6.2.1
 _ZTIN10Qt3DRender6Render12ViewportNodeE@Base 6.2.1
 _ZTIN10Qt3DRender6Render13AlphaCoverageE@Base 6.2.1
 _ZTIN10Qt3DRender6Render13BlendEquationE@Base 6.2.1
 _ZTIN10Qt3DRender6Render13BufferCaptureE@Base 6.2.1
 _ZTIN10Qt3DRender6Render13LevelOfDetailE@Base 6.2.1
 _ZTIN10Qt3DRender6Render13LightGathererE@Base 6.2.1
 _ZTIN10Qt3DRender6Render13MemoryBarrierE@Base 6.2.1
 _ZTIN10Qt3DRender6Render13PolygonOffsetE@Base 6.2.1
 _ZTIN10Qt3DRender6Render13RayCastingJobE@Base 6.2.1
 _ZTIN10Qt3DRender6Render13RenderCaptureE@Base 6.2.1
 _ZTIN10Qt3DRender6Render13ShaderBuilderE@Base 6.2.1
 _ZTIN10Qt3DRender6Render14CameraSelectorE@Base 6.2.1
 _ZTIN10Qt3DRender6Render14ComputeCommandE@Base 6.2.1
 _ZTIN10Qt3DRender6Render14FrameGraphNodeE@Base 6.2.1
 _ZTIN10Qt3DRender6Render14FrustumCullingE@Base 6.2.1
 _ZTIN10Qt3DRender6Render14RenderSettingsE@Base 6.2.1
 _ZTIN10Qt3DRender6Render15BlitFramebufferE@Base 6.2.1
 _ZTIN10Qt3DRender6Render15DispatchComputeE@Base 6.2.1
 _ZTIN10Qt3DRender6Render15FrameCleanupJobE@Base 6.2.1
 _ZTIN10Qt3DRender6Render15LayerFilterNodeE@Base 6.2.1
 _ZTIN10Qt3DRender6Render15LoadGeometryJobE@Base 6.2.1
 _ZTIN10Qt3DRender6Render15PickEventFilterE@Base 6.2.1
 _ZTIN10Qt3DRender6Render15ProximityFilterE@Base 6.2.1
 _ZTIN10Qt3DRender6Render15QRendererPluginE@Base 6.2.1
 _ZTIN10Qt3DRender6Render15RenderStateImplE@Base 6.2.1
 _ZTIN10Qt3DRender6Render15RenderStateNodeE@Base 6.2.1
 _ZTIN10Qt3DRender6Render15SeamlessCubemapE@Base 6.2.1
 _ZTIN10Qt3DRender6Render15TechniqueFilterE@Base 6.2.1
 _ZTIN10Qt3DRender6Render16EnvironmentLightE@Base 6.2.1
 _ZTIN10Qt3DRender6Render16GeometryRendererE@Base 6.2.1
 _ZTIN10Qt3DRender6Render16RenderPassFilterE@Base 6.2.1
 _ZTIN10Qt3DRender6Render16ResourceAccessorE@Base 6.2.1
 _ZTIN10Qt3DRender6Render17FrustumCullingJobE@Base 6.2.1
 _ZTIN10Qt3DRender6Render18AbstractPickingJobE@Base 6.2.1
 _ZTIN10Qt3DRender6Render18RenderTargetOutputE@Base 6.2.1
 _ZTIN10Qt3DRender6Render20FilterLayerEntityJobE@Base 6.2.1
 _ZTIN10Qt3DRender6Render20RenderTargetSelectorE@Base 6.2.1
 _ZTIN10Qt3DRender6Render20SendBufferCaptureJobE@Base 6.2.1
 _ZTIN10Qt3DRender6Render20UpdateTreeEnabledJobE@Base 6.2.1
 _ZTIN10Qt3DRender6Render21PickBoundingVolumeJobE@Base 6.2.1
 _ZTIN10Qt3DRender6Render21PlatformSurfaceFilterE@Base 6.2.1
 _ZTIN10Qt3DRender6Render21RenderSurfaceSelectorE@Base 6.2.1
 _ZTIN10Qt3DRender6Render21UpdateEntityLayersJobE@Base 6.2.1
 _ZTIN10Qt3DRender6Render22BlendEquationArgumentsE@Base 6.2.1
 _ZTIN10Qt3DRender6Render22OffscreenSurfaceHelperE@Base 6.2.1
 _ZTIN10Qt3DRender6Render22QRenderPluginFactoryIfE@Base 6.2.1
 _ZTIN10Qt3DRender6Render22UpdateLevelOfDetailJobE@Base 6.2.1
 _ZTIN10Qt3DRender6Render23ExpandBoundingVolumeJobE@Base 6.2.1
 _ZTIN10Qt3DRender6Render23UpdateWorldTransformJobE@Base 6.2.1
 _ZTIN10Qt3DRender6Render24UpdateSkinningPaletteJobE@Base 6.2.1
 _ZTIN10Qt3DRender6Render24VSyncFrameAdvanceServiceE@Base 6.2.1
 _ZTIN10Qt3DRender6Render26CalculateBoundingVolumeJobE@Base 6.2.1
 _ZTIN10Qt3DRender6Render26FilterProximityDistanceJobE@Base 6.2.1
 _ZTIN10Qt3DRender6Render28FilterCompatibleTechniqueJobE@Base 6.2.1
 _ZTIN10Qt3DRender6Render28MaterialParameterGathererJobE@Base 6.2.1
 _ZTIN10Qt3DRender6Render28UpdateShaderDataTransformJobE@Base 6.2.1
 _ZTIN10Qt3DRender6Render28UpdateWorldBoundingVolumeJobE@Base 6.2.1
 _ZTIN10Qt3DRender6Render29RenderBackendResourceAccessorE@Base 6.2.1
 _ZTIN10Qt3DRender6Render30UpdateWorldTransformJobPrivateE@Base 6.2.1
 _ZTIN10Qt3DRender6Render32ComputeFilteredBoundingVolumeJobE@Base 6.2.1
 _ZTIN10Qt3DRender6Render5JointE@Base 6.2.1
 _ZTIN10Qt3DRender6Render5LightE@Base 6.2.1
 _ZTIN10Qt3DRender6Render5SceneE@Base 6.2.1
 _ZTIN10Qt3DRender6Render6BufferE@Base 6.2.1
 _ZTIN10Qt3DRender6Render6EffectE@Base 6.2.1
 _ZTIN10Qt3DRender6Render6EntityE@Base 6.2.1
 _ZTIN10Qt3DRender6Render6NoDrawE@Base 6.2.1
 _ZTIN10Qt3DRender6Render6ShaderE@Base 6.2.1
 _ZTIN10Qt3DRender6Render6SphereE@Base 6.2.1
 _ZTIN10Qt3DRender6Render7TextureE@Base 6.2.1
 _ZTIN10Qt3DRender6Render8ArmatureE@Base 6.2.1
 _ZTIN10Qt3DRender6Render8CullFaceE@Base 6.2.1
 _ZTIN10Qt3DRender6Render8GeometryE@Base 6.2.1
 _ZTIN10Qt3DRender6Render8MaterialE@Base 6.2.1
 _ZTIN10Qt3DRender6Render8SetFenceE@Base 6.2.1
 _ZTIN10Qt3DRender6Render8SkeletonE@Base 6.2.1
 _ZTIN10Qt3DRender6Render9AlphaFuncE@Base 6.2.1
 _ZTIN10Qt3DRender6Render9AttributeE@Base 6.2.1
 _ZTIN10Qt3DRender6Render9ClipPlaneE@Base 6.2.1
 _ZTIN10Qt3DRender6Render9ColorMaskE@Base 6.2.1
 _ZTIN10Qt3DRender6Render9DepthTestE@Base 6.2.1
 _ZTIN10Qt3DRender6Render9DitheringE@Base 6.2.1
 _ZTIN10Qt3DRender6Render9FilterKeyE@Base 6.2.1
 _ZTIN10Qt3DRender6Render9FrontFaceE@Base 6.2.1
 _ZTIN10Qt3DRender6Render9LineWidthE@Base 6.2.1
 _ZTIN10Qt3DRender6Render9ParameterE@Base 6.2.1
 _ZTIN10Qt3DRender6Render9PointSizeE@Base 6.2.1
 _ZTIN10Qt3DRender6Render9RayCasterE@Base 6.2.1
 _ZTIN10Qt3DRender6Render9StencilOpE@Base 6.2.1
 _ZTIN10Qt3DRender6Render9TechniqueE@Base 6.2.1
 _ZTIN10Qt3DRender6Render9TransformE@Base 6.2.1
 _ZTIN10Qt3DRender7QCameraE@Base 6.2.1
 _ZTIN10Qt3DRender7QEffectE@Base 6.2.1
 _ZTIN10Qt3DRender7QNoDrawE@Base 6.2.1
 _ZTIN10Qt3DRender9QCullFaceE@Base 6.2.1
 _ZTIN10Qt3DRender9QMaterialE@Base 6.2.1
 _ZTIN10Qt3DRender9QSetFenceE@Base 6.2.1
 _ZTIN10Qt3DRender9QViewportE@Base 6.2.1
 _ZTIN8Qt3DCore26BoundingVolumeJobProcessorE@Base 6.2.1
 _ZTIPFSt6vectorIN10Qt3DRender10RayCasting21QCollisionQueryResult3HitESaIS3_EERS5_RKS5_E@Base 6.2.1
 _ZTIZN10Qt3DRender6Render13EntityManagerD4EvEUlPNS0_6EntityEE_@Base 6.2.1
 _ZTIZN9QMetaType17registerConverterI5QListIN10Qt3DRender11QSortPolicy8SortTypeEE9QIterableI13QMetaSequenceEN9QtPrivate33QSequentialIterableConvertFunctorIS5_EEEEbT1_EUlPKvPvE_@Base 6.2.1
 _ZTIZN9QMetaType17registerConverterI5QListIN10Qt3DRender13QRayCasterHitEE9QIterableI13QMetaSequenceEN9QtPrivate33QSequentialIterableConvertFunctorIS4_EEEEbT1_EUlPKvPvE_@Base 6.2.1
 _ZTIZN9QMetaType17registerConverterI5QListIPN10Qt3DRender11QShaderDataEE9QIterableI13QMetaSequenceEN9QtPrivate33QSequentialIterableConvertFunctorIS5_EEEEbT1_EUlPKvPvE_@Base 6.2.1
 _ZTIZN9QMetaType17registerConverterI5QListIdE9QIterableI13QMetaSequenceEN9QtPrivate33QSequentialIterableConvertFunctorIS2_EEEEbT1_EUlPKvPvE_@Base 6.2.1
 _ZTIZN9QMetaType17registerConverterI5QListIiE9QIterableI13QMetaSequenceEN9QtPrivate33QSequentialIterableConvertFunctorIS2_EEEEbT1_EUlPKvPvE_@Base 6.2.1
 _ZTIZN9QMetaType19registerMutableViewI5QListIN10Qt3DRender11QSortPolicy8SortTypeEE9QIterableI13QMetaSequenceEN9QtPrivate37QSequentialIterableMutableViewFunctorIS5_EEEEbT1_EUlPvSD_E_@Base 6.2.1
 _ZTIZN9QMetaType19registerMutableViewI5QListIN10Qt3DRender13QRayCasterHitEE9QIterableI13QMetaSequenceEN9QtPrivate37QSequentialIterableMutableViewFunctorIS4_EEEEbT1_EUlPvSC_E_@Base 6.2.1
 _ZTIZN9QMetaType19registerMutableViewI5QListIPN10Qt3DRender11QShaderDataEE9QIterableI13QMetaSequenceEN9QtPrivate37QSequentialIterableMutableViewFunctorIS5_EEEEbT1_EUlPvSD_E_@Base 6.2.1
 _ZTIZN9QMetaType19registerMutableViewI5QListIdE9QIterableI13QMetaSequenceEN9QtPrivate37QSequentialIterableMutableViewFunctorIS2_EEEEbT1_EUlPvSA_E_@Base 6.2.1
 _ZTIZN9QMetaType19registerMutableViewI5QListIiE9QIterableI13QMetaSequenceEN9QtPrivate37QSequentialIterableMutableViewFunctorIS2_EEEEbT1_EUlPvSA_E_@Base 6.2.1
 _ZTSFSt6vectorIN10Qt3DRender10RayCasting21QCollisionQueryResult3HitESaIS3_EERS5_RKS5_E@Base 6.2.1
 _ZTSN10Qt3DRender10QAlphaTestE@Base 6.2.1
 _ZTSN10Qt3DRender10QClipPlaneE@Base 6.2.1
 _ZTSN10Qt3DRender10QColorMaskE@Base 6.2.1
 _ZTSN10Qt3DRender10QDepthTestE@Base 6.2.1
 _ZTSN10Qt3DRender10QDitheringE@Base 6.2.1
 _ZTSN10Qt3DRender10QFilterKeyE@Base 6.2.1
 _ZTSN10Qt3DRender10QFrontFaceE@Base 6.2.1
 _ZTSN10Qt3DRender10QLineWidthE@Base 6.2.1
 _ZTSN10Qt3DRender10QNoPickingE@Base 6.2.1
 _ZTSN10Qt3DRender10QParameterE@Base 6.2.1
 _ZTSN10Qt3DRender10QPickEventE@Base 6.2.1
 _ZTSN10Qt3DRender10QPointSizeE@Base 6.2.1
 _ZTSN10Qt3DRender10QRayCasterE@Base 6.2.1
 _ZTSN10Qt3DRender10QSpotLightE@Base 6.2.1
 _ZTSN10Qt3DRender10QTechniqueE@Base 6.2.1
 _ZTSN10Qt3DRender10QTexture1DE@Base 6.2.1
 _ZTSN10Qt3DRender10QTexture2DE@Base 6.2.1
 _ZTSN10Qt3DRender10QTexture3DE@Base 6.2.1
 _ZTSN10Qt3DRender10QWaitFenceE@Base 6.2.1
 _ZTSN10Qt3DRender10RayCasting14BoundingSphereE@Base 6.2.1
 _ZTSN10Qt3DRender10RayCasting15QBoundingVolumeE@Base 6.2.1
 _ZTSN10Qt3DRender10RayCasting18QRayCastingServiceE@Base 6.2.1
 _ZTSN10Qt3DRender10RayCasting23QBoundingVolumeProviderE@Base 6.2.1
 _ZTSN10Qt3DRender10RayCasting30QAbstractCollisionQueryServiceE@Base 6.2.1
 _ZTSN10Qt3DRender11QCameraLensE@Base 6.2.1
 _ZTSN10Qt3DRender11QDepthRangeE@Base 6.2.1
 _ZTSN10Qt3DRender11QPointLightE@Base 6.2.1
 _ZTSN10Qt3DRender11QRasterModeE@Base 6.2.1
 _ZTSN10Qt3DRender11QRenderPassE@Base 6.2.1
 _ZTSN10Qt3DRender11QShaderDataE@Base 6.2.1
 _ZTSN10Qt3DRender11QSortPolicyE@Base 6.2.1
 _ZTSN10Qt3DRender12QLayerFilterE@Base 6.2.1
 _ZTSN10Qt3DRender12QMeshPrivateE@Base 6.2.1
 _ZTSN10Qt3DRender12QNoDepthMaskE@Base 6.2.1
 _ZTSN10Qt3DRender12QRenderStateE@Base 6.2.1
 _ZTSN10Qt3DRender12QSceneLoaderE@Base 6.2.1
 _ZTSN10Qt3DRender12QScissorTestE@Base 6.2.1
 _ZTSN10Qt3DRender12QShaderImageE@Base 6.2.1
 _ZTSN10Qt3DRender12QStencilMaskE@Base 6.2.1
 _ZTSN10Qt3DRender12QStencilTestE@Base 6.2.1
 _ZTSN10Qt3DRender13QClearBuffersE@Base 6.2.1
 _ZTSN10Qt3DRender13QDebugOverlayE@Base 6.2.1
 _ZTSN10Qt3DRender13QLayerPrivateE@Base 6.2.1
 _ZTSN10Qt3DRender13QObjectPickerE@Base 6.2.1
 _ZTSN10Qt3DRender13QPickingProxyE@Base 6.2.1
 _ZTSN10Qt3DRender13QRenderAspectE@Base 6.2.1
 _ZTSN10Qt3DRender13QRenderTargetE@Base 6.2.1
 _ZTSN10Qt3DRender13QTextureImageE@Base 6.2.1
 _ZTSN10Qt3DRender14QAbstractLightE@Base 6.2.1
 _ZTSN10Qt3DRender14QAlphaCoverageE@Base 6.2.1
 _ZTSN10Qt3DRender14QBlendEquationE@Base 6.2.1
 _ZTSN10Qt3DRender14QBufferCaptureE@Base 6.2.1
 _ZTSN10Qt3DRender14QCameraPrivateE@Base 6.2.1
 _ZTSN10Qt3DRender14QEffectPrivateE@Base 6.2.1
 _ZTSN10Qt3DRender14QLevelOfDetailE@Base 6.2.1
 _ZTSN10Qt3DRender14QMemoryBarrierE@Base 6.2.1
 _ZTSN10Qt3DRender14QPickLineEventE@Base 6.2.1
 _ZTSN10Qt3DRender14QPolygonOffsetE@Base 6.2.1
 _ZTSN10Qt3DRender14QRenderCaptureE@Base 6.2.1
 _ZTSN10Qt3DRender14QSceneExporterE@Base 6.2.1
 _ZTSN10Qt3DRender14QSceneImporterE@Base 6.2.1
 _ZTSN10Qt3DRender14QShaderProgramE@Base 6.2.1
 _ZTSN10Qt3DRender14QTextureBufferE@Base 6.2.1
 _ZTSN10Qt3DRender14QTextureLoaderE@Base 6.2.1
 _ZTSN10Qt3DRender15QCameraSelectorE@Base 6.2.1
 _ZTSN10Qt3DRender15QComputeCommandE@Base 6.2.1
 _ZTSN10Qt3DRender15QFrameGraphNodeE@Base 6.2.1
 _ZTSN10Qt3DRender15QFrustumCullingE@Base 6.2.1
 _ZTSN10Qt3DRender15QPickPointEventE@Base 6.2.1
 _ZTSN10Qt3DRender15QRenderSettingsE@Base 6.2.1
 _ZTSN10Qt3DRender15QRenderStateSetE@Base 6.2.1
 _ZTSN10Qt3DRender15QSubtreeEnablerE@Base 6.2.1
 _ZTSN10Qt3DRender15QTexture1DArrayE@Base 6.2.1
 _ZTSN10Qt3DRender15QTexture2DArrayE@Base 6.2.1
 _ZTSN10Qt3DRender15QTextureCubeMapE@Base 6.2.1
 _ZTSN10Qt3DRender16QAbstractTextureE@Base 6.2.1
 _ZTSN10Qt3DRender16QBlitFramebufferE@Base 6.2.1
 _ZTSN10Qt3DRender16QCullFacePrivateE@Base 6.2.1
 _ZTSN10Qt3DRender16QDispatchComputeE@Base 6.2.1
 _ZTSN10Qt3DRender16QMaterialPrivateE@Base 6.2.1
 _ZTSN10Qt3DRender16QPickingSettingsE@Base 6.2.1
 _ZTSN10Qt3DRender16QProximityFilterE@Base 6.2.1
 _ZTSN10Qt3DRender16QScreenRayCasterE@Base 6.2.1
 _ZTSN10Qt3DRender16QSeamlessCubemapE@Base 6.2.1
 _ZTSN10Qt3DRender16QSetFencePrivateE@Base 6.2.1
 _ZTSN10Qt3DRender16QSharedGLTextureE@Base 6.2.1
 _ZTSN10Qt3DRender16QTechniqueFilterE@Base 6.2.1
 _ZTSN10Qt3DRender16QTextureWrapModeE@Base 6.2.1
 _ZTSN10Qt3DRender17QClipPlanePrivateE@Base 6.2.1
 _ZTSN10Qt3DRender17QColorMaskPrivateE@Base 6.2.1
 _ZTSN10Qt3DRender17QDepthTestPrivateE@Base 6.2.1
 _ZTSN10Qt3DRender17QDirectionalLightE@Base 6.2.1
 _ZTSN10Qt3DRender17QEnvironmentLightE@Base 6.2.1
 _ZTSN10Qt3DRender17QFilterKeyPrivateE@Base 6.2.1
 _ZTSN10Qt3DRender17QFrontFacePrivateE@Base 6.2.1
 _ZTSN10Qt3DRender17QGeometryRendererE@Base 6.2.1
 _ZTSN10Qt3DRender17QParameterPrivateE@Base 6.2.1
 _ZTSN10Qt3DRender17QPickEventPrivateE@Base 6.2.1
 _ZTSN10Qt3DRender17QPointSizePrivateE@Base 6.2.1
 _ZTSN10Qt3DRender17QRenderPassFilterE@Base 6.2.1
 _ZTSN10Qt3DRender17QSpotLightPrivateE@Base 6.2.1
 _ZTSN10Qt3DRender17QStencilOperationE@Base 6.2.1
 _ZTSN10Qt3DRender17QTextureGeneratorE@Base 6.2.1
 _ZTSN10Qt3DRender17QTextureRectangleE@Base 6.2.1
 _ZTSN10Qt3DRender18QAbstractRayCasterE@Base 6.2.1
 _ZTSN10Qt3DRender18QCameraLensPrivateE@Base 6.2.1
 _ZTSN10Qt3DRender18QDepthRangePrivateE@Base 6.2.1
 _ZTSN10Qt3DRender18QGraphicsApiFilterE@Base 6.2.1
 _ZTSN10Qt3DRender18QPickTriangleEventE@Base 6.2.1
 _ZTSN10Qt3DRender18QPointLightPrivateE@Base 6.2.1
 _ZTSN10Qt3DRender18QRasterModePrivateE@Base 6.2.1
 _ZTSN10Qt3DRender18QSceneExportPluginE@Base 6.2.1
 _ZTSN10Qt3DRender18QSceneImportPluginE@Base 6.2.1
 _ZTSN10Qt3DRender18QShaderDataPrivateE@Base 6.2.1
 _ZTSN10Qt3DRender19QRenderCapabilitiesE@Base 6.2.1
 _ZTSN10Qt3DRender19QRenderCaptureReplyE@Base 6.2.1
 _ZTSN10Qt3DRender19QRenderStatePrivateE@Base 6.2.1
 _ZTSN10Qt3DRender19QRenderTargetOutputE@Base 6.2.1
 _ZTSN10Qt3DRender19QSceneLoaderPrivateE@Base 6.2.1
 _ZTSN10Qt3DRender19QScissorTestPrivateE@Base 6.2.1
 _ZTSN10Qt3DRender19QStencilMaskPrivateE@Base 6.2.1
 _ZTSN10Qt3DRender19QStencilTestPrivateE@Base 6.2.1
 _ZTSN10Qt3DRender20QLevelOfDetailSwitchE@Base 6.2.1
 _ZTSN10Qt3DRender20QObjectPickerPrivateE@Base 6.2.1
 _ZTSN10Qt3DRender20QPaintedTextureImageE@Base 6.2.1
 _ZTSN10Qt3DRender20QPickingProxyPrivateE@Base 6.2.1
 _ZTSN10Qt3DRender20QRenderAspectPrivateE@Base 6.2.1
 _ZTSN10Qt3DRender20QRenderTargetPrivateE@Base 6.2.1
 _ZTSN10Qt3DRender20QTextureCubeMapArrayE@Base 6.2.1
 _ZTSN10Qt3DRender20QTextureImagePrivateE@Base 6.2.1
 _ZTSN10Qt3DRender21QAbstractLightPrivateE@Base 6.2.1
 _ZTSN10Qt3DRender21QAbstractTextureImageE@Base 6.2.1
 _ZTSN10Qt3DRender21QBlendEquationPrivateE@Base 6.2.1
 _ZTSN10Qt3DRender21QLevelOfDetailPrivateE@Base 6.2.1
 _ZTSN10Qt3DRender21QPolygonOffsetPrivateE@Base 6.2.1
 _ZTSN10Qt3DRender21QRenderTargetSelectorE@Base 6.2.1
 _ZTSN10Qt3DRender21QShaderProgramBuilderE@Base 6.2.1
 _ZTSN10Qt3DRender21QShaderProgramPrivateE@Base 6.2.1
 _ZTSN10Qt3DRender21QStencilTestArgumentsE@Base 6.2.1
 _ZTSN10Qt3DRender21QTexture2DMultisampleE@Base 6.2.1
 _ZTSN10Qt3DRender21QTextureLoaderPrivateE@Base 6.2.1
 _ZTSN10Qt3DRender22QComputeCommandPrivateE@Base 6.2.1
 _ZTSN10Qt3DRender22QFrameGraphNodePrivateE@Base 6.2.1
 _ZTSN10Qt3DRender22QGeometryLoaderFactoryE@Base 6.2.1
 _ZTSN10Qt3DRender22QRenderSettingsPrivateE@Base 6.2.1
 _ZTSN10Qt3DRender22QRenderSurfaceSelectorE@Base 6.2.1
 _ZTSN10Qt3DRender23PropertyReaderInterfaceE@Base 6.2.1
 _ZTSN10Qt3DRender23QAbstractTexturePrivateE@Base 6.2.1
 _ZTSN10Qt3DRender23QBlendEquationArgumentsE@Base 6.2.1
 _ZTSN10Qt3DRender23QPickingSettingsPrivateE@Base 6.2.1
 _ZTSN10Qt3DRender23QTechniqueFilterPrivateE@Base 6.2.1
 _ZTSN10Qt3DRender24QDirectionalLightPrivateE@Base 6.2.1
 _ZTSN10Qt3DRender24QEnvironmentLightPrivateE@Base 6.2.1
 _ZTSN10Qt3DRender24QGeometryRendererPrivateE@Base 6.2.1
 _ZTSN10Qt3DRender24QMultiSampleAntiAliasingE@Base 6.2.1
 _ZTSN10Qt3DRender24QStencilOperationPrivateE@Base 6.2.1
 _ZTSN10Qt3DRender25QAbstractRayCasterPrivateE@Base 6.2.1
 _ZTSN10Qt3DRender25QGraphicsApiFilterPrivateE@Base 6.2.1
 _ZTSN10Qt3DRender25QPickTriangleEventPrivateE@Base 6.2.1
 _ZTSN10Qt3DRender26QRenderCapabilitiesPrivateE@Base 6.2.1
 _ZTSN10Qt3DRender26QRenderTargetOutputPrivateE@Base 6.2.1
 _ZTSN10Qt3DRender26QStencilOperationArgumentsE@Base 6.2.1
 _ZTSN10Qt3DRender26QTexture2DMultisampleArrayE@Base 6.2.1
 _ZTSN10Qt3DRender26QTextureImageDataGeneratorE@Base 6.2.1
 _ZTSN10Qt3DRender27QLevelOfDetailSwitchPrivateE@Base 6.2.1
 _ZTSN10Qt3DRender27QPaintedTextureImagePrivateE@Base 6.2.1
 _ZTSN10Qt3DRender28QAbstractTextureImagePrivateE@Base 6.2.1
 _ZTSN10Qt3DRender28QShaderProgramBuilderPrivateE@Base 6.2.1
 _ZTSN10Qt3DRender28QStencilTestArgumentsPrivateE@Base 6.2.1
 _ZTSN10Qt3DRender29QRenderSurfaceSelectorPrivateE@Base 6.2.1
 _ZTSN10Qt3DRender30QBlendEquationArgumentsPrivateE@Base 6.2.1
 _ZTSN10Qt3DRender33QStencilOperationArgumentsPrivateE@Base 6.2.1
 _ZTSN10Qt3DRender5QMeshE@Base 6.2.1
 _ZTSN10Qt3DRender6QLayerE@Base 6.2.1
 _ZTSN10Qt3DRender6Render10CameraLensE@Base 6.2.1
 _ZTSN10Qt3DRender6Render10DepthRangeE@Base 6.2.1
 _ZTSN10Qt3DRender6Render10RasterModeE@Base 6.2.1
 _ZTSN10Qt3DRender6Render10RenderPassE@Base 6.2.1
 _ZTSN10Qt3DRender6Render10ShaderDataE@Base 6.2.1
 _ZTSN10Qt3DRender6Render10SortPolicyE@Base 6.2.1
 _ZTSN10Qt3DRender6Render11BackendNodeE@Base 6.2.1
 _ZTSN10Qt3DRender6Render11MSAAEnabledE@Base 6.2.1
 _ZTSN10Qt3DRender6Render11NoDepthMaskE@Base 6.2.1
 _ZTSN10Qt3DRender6Render11ScissorTestE@Base 6.2.1
 _ZTSN10Qt3DRender6Render11StencilMaskE@Base 6.2.1
 _ZTSN10Qt3DRender6Render11StencilTestE@Base 6.2.1
 _ZTSN10Qt3DRender6Render12ClearBuffersE@Base 6.2.1
 _ZTSN10Qt3DRender6Render12LoadSceneJobE@Base 6.2.1
 _ZTSN10Qt3DRender6Render12ObjectPickerE@Base 6.2.1
 _ZTSN10Qt3DRender6Render12PickingProxyE@Base 6.2.1
 _ZTSN10Qt3DRender6Render12RenderTargetE@Base 6.2.1
 _ZTSN10Qt3DRender6Render12StateSetNodeE@Base 6.2.1
 _ZTSN10Qt3DRender6Render12TextureImageE@Base 6.2.1
 _ZTSN10Qt3DRender6Render12ViewportNodeE@Base 6.2.1
 _ZTSN10Qt3DRender6Render13AlphaCoverageE@Base 6.2.1
 _ZTSN10Qt3DRender6Render13BlendEquationE@Base 6.2.1
 _ZTSN10Qt3DRender6Render13BufferCaptureE@Base 6.2.1
 _ZTSN10Qt3DRender6Render13LevelOfDetailE@Base 6.2.1
 _ZTSN10Qt3DRender6Render13LightGathererE@Base 6.2.1
 _ZTSN10Qt3DRender6Render13MemoryBarrierE@Base 6.2.1
 _ZTSN10Qt3DRender6Render13PolygonOffsetE@Base 6.2.1
 _ZTSN10Qt3DRender6Render13RayCastingJobE@Base 6.2.1
 _ZTSN10Qt3DRender6Render13RenderCaptureE@Base 6.2.1
 _ZTSN10Qt3DRender6Render13ShaderBuilderE@Base 6.2.1
 _ZTSN10Qt3DRender6Render14CameraSelectorE@Base 6.2.1
 _ZTSN10Qt3DRender6Render14ComputeCommandE@Base 6.2.1
 _ZTSN10Qt3DRender6Render14FrameGraphNodeE@Base 6.2.1
 _ZTSN10Qt3DRender6Render14FrustumCullingE@Base 6.2.1
 _ZTSN10Qt3DRender6Render14RenderSettingsE@Base 6.2.1
 _ZTSN10Qt3DRender6Render15BlitFramebufferE@Base 6.2.1
 _ZTSN10Qt3DRender6Render15DispatchComputeE@Base 6.2.1
 _ZTSN10Qt3DRender6Render15FrameCleanupJobE@Base 6.2.1
 _ZTSN10Qt3DRender6Render15LayerFilterNodeE@Base 6.2.1
 _ZTSN10Qt3DRender6Render15LoadGeometryJobE@Base 6.2.1
 _ZTSN10Qt3DRender6Render15PickEventFilterE@Base 6.2.1
 _ZTSN10Qt3DRender6Render15ProximityFilterE@Base 6.2.1
 _ZTSN10Qt3DRender6Render15QRendererPluginE@Base 6.2.1
 _ZTSN10Qt3DRender6Render15RenderStateImplE@Base 6.2.1
 _ZTSN10Qt3DRender6Render15RenderStateNodeE@Base 6.2.1
 _ZTSN10Qt3DRender6Render15SeamlessCubemapE@Base 6.2.1
 _ZTSN10Qt3DRender6Render15TechniqueFilterE@Base 6.2.1
 _ZTSN10Qt3DRender6Render16EnvironmentLightE@Base 6.2.1
 _ZTSN10Qt3DRender6Render16GeometryRendererE@Base 6.2.1
 _ZTSN10Qt3DRender6Render16RenderPassFilterE@Base 6.2.1
 _ZTSN10Qt3DRender6Render16ResourceAccessorE@Base 6.2.1
 _ZTSN10Qt3DRender6Render17FrustumCullingJobE@Base 6.2.1
 _ZTSN10Qt3DRender6Render18AbstractPickingJobE@Base 6.2.1
 _ZTSN10Qt3DRender6Render18RenderTargetOutputE@Base 6.2.1
 _ZTSN10Qt3DRender6Render20FilterLayerEntityJobE@Base 6.2.1
 _ZTSN10Qt3DRender6Render20RenderTargetSelectorE@Base 6.2.1
 _ZTSN10Qt3DRender6Render20SendBufferCaptureJobE@Base 6.2.1
 _ZTSN10Qt3DRender6Render20UpdateTreeEnabledJobE@Base 6.2.1
 _ZTSN10Qt3DRender6Render21PickBoundingVolumeJobE@Base 6.2.1
 _ZTSN10Qt3DRender6Render21PlatformSurfaceFilterE@Base 6.2.1
 _ZTSN10Qt3DRender6Render21RenderSurfaceSelectorE@Base 6.2.1
 _ZTSN10Qt3DRender6Render21UpdateEntityLayersJobE@Base 6.2.1
 _ZTSN10Qt3DRender6Render22BlendEquationArgumentsE@Base 6.2.1
 _ZTSN10Qt3DRender6Render22OffscreenSurfaceHelperE@Base 6.2.1
 _ZTSN10Qt3DRender6Render22QRenderPluginFactoryIfE@Base 6.2.1
 _ZTSN10Qt3DRender6Render22UpdateLevelOfDetailJobE@Base 6.2.1
 _ZTSN10Qt3DRender6Render23ExpandBoundingVolumeJobE@Base 6.2.1
 _ZTSN10Qt3DRender6Render23UpdateWorldTransformJobE@Base 6.2.1
 _ZTSN10Qt3DRender6Render24UpdateSkinningPaletteJobE@Base 6.2.1
 _ZTSN10Qt3DRender6Render24VSyncFrameAdvanceServiceE@Base 6.2.1
 _ZTSN10Qt3DRender6Render26CalculateBoundingVolumeJobE@Base 6.2.1
 _ZTSN10Qt3DRender6Render26FilterProximityDistanceJobE@Base 6.2.1
 _ZTSN10Qt3DRender6Render28FilterCompatibleTechniqueJobE@Base 6.2.1
 _ZTSN10Qt3DRender6Render28MaterialParameterGathererJobE@Base 6.2.1
 _ZTSN10Qt3DRender6Render28UpdateShaderDataTransformJobE@Base 6.2.1
 _ZTSN10Qt3DRender6Render28UpdateWorldBoundingVolumeJobE@Base 6.2.1
 _ZTSN10Qt3DRender6Render29RenderBackendResourceAccessorE@Base 6.2.1
 _ZTSN10Qt3DRender6Render30UpdateWorldTransformJobPrivateE@Base 6.2.1
 _ZTSN10Qt3DRender6Render32ComputeFilteredBoundingVolumeJobE@Base 6.2.1
 _ZTSN10Qt3DRender6Render5JointE@Base 6.2.1
 _ZTSN10Qt3DRender6Render5LightE@Base 6.2.1
 _ZTSN10Qt3DRender6Render5SceneE@Base 6.2.1
 _ZTSN10Qt3DRender6Render6BufferE@Base 6.2.1
 _ZTSN10Qt3DRender6Render6EffectE@Base 6.2.1
 _ZTSN10Qt3DRender6Render6EntityE@Base 6.2.1
 _ZTSN10Qt3DRender6Render6NoDrawE@Base 6.2.1
 _ZTSN10Qt3DRender6Render6ShaderE@Base 6.2.1
 _ZTSN10Qt3DRender6Render6SphereE@Base 6.2.1
 _ZTSN10Qt3DRender6Render7TextureE@Base 6.2.1
 _ZTSN10Qt3DRender6Render8ArmatureE@Base 6.2.1
 _ZTSN10Qt3DRender6Render8CullFaceE@Base 6.2.1
 _ZTSN10Qt3DRender6Render8GeometryE@Base 6.2.1
 _ZTSN10Qt3DRender6Render8MaterialE@Base 6.2.1
 _ZTSN10Qt3DRender6Render8SetFenceE@Base 6.2.1
 _ZTSN10Qt3DRender6Render8SkeletonE@Base 6.2.1
 _ZTSN10Qt3DRender6Render9AlphaFuncE@Base 6.2.1
 _ZTSN10Qt3DRender6Render9AttributeE@Base 6.2.1
 _ZTSN10Qt3DRender6Render9ClipPlaneE@Base 6.2.1
 _ZTSN10Qt3DRender6Render9ColorMaskE@Base 6.2.1
 _ZTSN10Qt3DRender6Render9DepthTestE@Base 6.2.1
 _ZTSN10Qt3DRender6Render9DitheringE@Base 6.2.1
 _ZTSN10Qt3DRender6Render9FilterKeyE@Base 6.2.1
 _ZTSN10Qt3DRender6Render9FrontFaceE@Base 6.2.1
 _ZTSN10Qt3DRender6Render9LineWidthE@Base 6.2.1
 _ZTSN10Qt3DRender6Render9ParameterE@Base 6.2.1
 _ZTSN10Qt3DRender6Render9PointSizeE@Base 6.2.1
 _ZTSN10Qt3DRender6Render9RayCasterE@Base 6.2.1
 _ZTSN10Qt3DRender6Render9StencilOpE@Base 6.2.1
 _ZTSN10Qt3DRender6Render9TechniqueE@Base 6.2.1
 _ZTSN10Qt3DRender6Render9TransformE@Base 6.2.1
 _ZTSN10Qt3DRender7QCameraE@Base 6.2.1
 _ZTSN10Qt3DRender7QEffectE@Base 6.2.1
 _ZTSN10Qt3DRender7QNoDrawE@Base 6.2.1
 _ZTSN10Qt3DRender9QCullFaceE@Base 6.2.1
 _ZTSN10Qt3DRender9QMaterialE@Base 6.2.1
 _ZTSN10Qt3DRender9QSetFenceE@Base 6.2.1
 _ZTSN10Qt3DRender9QViewportE@Base 6.2.1
 _ZTSN8Qt3DCore26BoundingVolumeJobProcessorE@Base 6.2.1
 _ZTSPFSt6vectorIN10Qt3DRender10RayCasting21QCollisionQueryResult3HitESaIS3_EERS5_RKS5_E@Base 6.2.1
 _ZTSZN10Qt3DRender6Render13EntityManagerD4EvEUlPNS0_6EntityEE_@Base 6.2.1
 _ZTSZN9QMetaType17registerConverterI5QListIN10Qt3DRender11QSortPolicy8SortTypeEE9QIterableI13QMetaSequenceEN9QtPrivate33QSequentialIterableConvertFunctorIS5_EEEEbT1_EUlPKvPvE_@Base 6.2.1
 _ZTSZN9QMetaType17registerConverterI5QListIN10Qt3DRender13QRayCasterHitEE9QIterableI13QMetaSequenceEN9QtPrivate33QSequentialIterableConvertFunctorIS4_EEEEbT1_EUlPKvPvE_@Base 6.2.1
 _ZTSZN9QMetaType17registerConverterI5QListIPN10Qt3DRender11QShaderDataEE9QIterableI13QMetaSequenceEN9QtPrivate33QSequentialIterableConvertFunctorIS5_EEEEbT1_EUlPKvPvE_@Base 6.2.1
 _ZTSZN9QMetaType17registerConverterI5QListIdE9QIterableI13QMetaSequenceEN9QtPrivate33QSequentialIterableConvertFunctorIS2_EEEEbT1_EUlPKvPvE_@Base 6.2.1
 _ZTSZN9QMetaType17registerConverterI5QListIiE9QIterableI13QMetaSequenceEN9QtPrivate33QSequentialIterableConvertFunctorIS2_EEEEbT1_EUlPKvPvE_@Base 6.2.1
 _ZTSZN9QMetaType19registerMutableViewI5QListIN10Qt3DRender11QSortPolicy8SortTypeEE9QIterableI13QMetaSequenceEN9QtPrivate37QSequentialIterableMutableViewFunctorIS5_EEEEbT1_EUlPvSD_E_@Base 6.2.1
 _ZTSZN9QMetaType19registerMutableViewI5QListIN10Qt3DRender13QRayCasterHitEE9QIterableI13QMetaSequenceEN9QtPrivate37QSequentialIterableMutableViewFunctorIS4_EEEEbT1_EUlPvSC_E_@Base 6.2.1
 _ZTSZN9QMetaType19registerMutableViewI5QListIPN10Qt3DRender11QShaderDataEE9QIterableI13QMetaSequenceEN9QtPrivate37QSequentialIterableMutableViewFunctorIS5_EEEEbT1_EUlPvSD_E_@Base 6.2.1
 _ZTSZN9QMetaType19registerMutableViewI5QListIdE9QIterableI13QMetaSequenceEN9QtPrivate37QSequentialIterableMutableViewFunctorIS2_EEEEbT1_EUlPvSA_E_@Base 6.2.1
 _ZTSZN9QMetaType19registerMutableViewI5QListIiE9QIterableI13QMetaSequenceEN9QtPrivate37QSequentialIterableMutableViewFunctorIS2_EEEEbT1_EUlPvSA_E_@Base 6.2.1
 _ZTVN10Qt3DRender10QAlphaTestE@Base 6.2.1
 _ZTVN10Qt3DRender10QClipPlaneE@Base 6.2.1
 _ZTVN10Qt3DRender10QColorMaskE@Base 6.2.1
 _ZTVN10Qt3DRender10QDepthTestE@Base 6.2.1
 _ZTVN10Qt3DRender10QDitheringE@Base 6.2.1
 _ZTVN10Qt3DRender10QFilterKeyE@Base 6.2.1
 _ZTVN10Qt3DRender10QFrontFaceE@Base 6.2.1
 _ZTVN10Qt3DRender10QLineWidthE@Base 6.2.1
 _ZTVN10Qt3DRender10QNoPickingE@Base 6.2.1
 _ZTVN10Qt3DRender10QParameterE@Base 6.2.1
 _ZTVN10Qt3DRender10QPickEventE@Base 6.2.1
 _ZTVN10Qt3DRender10QPointSizeE@Base 6.2.1
 _ZTVN10Qt3DRender10QRayCasterE@Base 6.2.1
 _ZTVN10Qt3DRender10QSpotLightE@Base 6.2.1
 _ZTVN10Qt3DRender10QTechniqueE@Base 6.2.1
 _ZTVN10Qt3DRender10QTexture1DE@Base 6.2.1
 _ZTVN10Qt3DRender10QTexture2DE@Base 6.2.1
 _ZTVN10Qt3DRender10QTexture3DE@Base 6.2.1
 _ZTVN10Qt3DRender10QWaitFenceE@Base 6.2.1
 _ZTVN10Qt3DRender10RayCasting14BoundingSphereE@Base 6.2.1
 _ZTVN10Qt3DRender10RayCasting15QBoundingVolumeE@Base 6.2.1
 _ZTVN10Qt3DRender10RayCasting18QRayCastingServiceE@Base 6.2.1
 _ZTVN10Qt3DRender10RayCasting23QBoundingVolumeProviderE@Base 6.2.1
 _ZTVN10Qt3DRender10RayCasting30QAbstractCollisionQueryServiceE@Base 6.2.1
 _ZTVN10Qt3DRender11QCameraLensE@Base 6.2.1
 _ZTVN10Qt3DRender11QDepthRangeE@Base 6.2.1
 _ZTVN10Qt3DRender11QPointLightE@Base 6.2.1
 _ZTVN10Qt3DRender11QRasterModeE@Base 6.2.1
 _ZTVN10Qt3DRender11QRenderPassE@Base 6.2.1
 _ZTVN10Qt3DRender11QShaderDataE@Base 6.2.1
 _ZTVN10Qt3DRender11QSortPolicyE@Base 6.2.1
 _ZTVN10Qt3DRender12QLayerFilterE@Base 6.2.1
 _ZTVN10Qt3DRender12QMeshPrivateE@Base 6.2.1
 _ZTVN10Qt3DRender12QNoDepthMaskE@Base 6.2.1
 _ZTVN10Qt3DRender12QRenderStateE@Base 6.2.1
 _ZTVN10Qt3DRender12QSceneLoaderE@Base 6.2.1
 _ZTVN10Qt3DRender12QScissorTestE@Base 6.2.1
 _ZTVN10Qt3DRender12QShaderImageE@Base 6.2.1
 _ZTVN10Qt3DRender12QStencilMaskE@Base 6.2.1
 _ZTVN10Qt3DRender12QStencilTestE@Base 6.2.1
 _ZTVN10Qt3DRender13QClearBuffersE@Base 6.2.1
 _ZTVN10Qt3DRender13QDebugOverlayE@Base 6.2.1
 _ZTVN10Qt3DRender13QLayerPrivateE@Base 6.2.1
 _ZTVN10Qt3DRender13QObjectPickerE@Base 6.2.1
 _ZTVN10Qt3DRender13QPickingProxyE@Base 6.2.1
 _ZTVN10Qt3DRender13QRenderAspectE@Base 6.2.1
 _ZTVN10Qt3DRender13QRenderTargetE@Base 6.2.1
 _ZTVN10Qt3DRender13QTextureImageE@Base 6.2.1
 _ZTVN10Qt3DRender14QAbstractLightE@Base 6.2.1
 _ZTVN10Qt3DRender14QAlphaCoverageE@Base 6.2.1
 _ZTVN10Qt3DRender14QBlendEquationE@Base 6.2.1
 _ZTVN10Qt3DRender14QBufferCaptureE@Base 6.2.1
 _ZTVN10Qt3DRender14QCameraPrivateE@Base 6.2.1
 _ZTVN10Qt3DRender14QEffectPrivateE@Base 6.2.1
 _ZTVN10Qt3DRender14QLevelOfDetailE@Base 6.2.1
 _ZTVN10Qt3DRender14QMemoryBarrierE@Base 6.2.1
 _ZTVN10Qt3DRender14QPickLineEventE@Base 6.2.1
 _ZTVN10Qt3DRender14QPolygonOffsetE@Base 6.2.1
 _ZTVN10Qt3DRender14QRenderCaptureE@Base 6.2.1
 _ZTVN10Qt3DRender14QSceneExporterE@Base 6.2.1
 _ZTVN10Qt3DRender14QSceneImporterE@Base 6.2.1
 _ZTVN10Qt3DRender14QShaderProgramE@Base 6.2.1
 _ZTVN10Qt3DRender14QTextureBufferE@Base 6.2.1
 _ZTVN10Qt3DRender14QTextureLoaderE@Base 6.2.1
 _ZTVN10Qt3DRender15QCameraSelectorE@Base 6.2.1
 _ZTVN10Qt3DRender15QComputeCommandE@Base 6.2.1
 _ZTVN10Qt3DRender15QFrameGraphNodeE@Base 6.2.1
 _ZTVN10Qt3DRender15QFrustumCullingE@Base 6.2.1
 _ZTVN10Qt3DRender15QPickPointEventE@Base 6.2.1
 _ZTVN10Qt3DRender15QRenderSettingsE@Base 6.2.1
 _ZTVN10Qt3DRender15QRenderStateSetE@Base 6.2.1
 _ZTVN10Qt3DRender15QSubtreeEnablerE@Base 6.2.1
 _ZTVN10Qt3DRender15QTexture1DArrayE@Base 6.2.1
 _ZTVN10Qt3DRender15QTexture2DArrayE@Base 6.2.1
 _ZTVN10Qt3DRender15QTextureCubeMapE@Base 6.2.1
 _ZTVN10Qt3DRender16QAbstractTextureE@Base 6.2.1
 _ZTVN10Qt3DRender16QBlitFramebufferE@Base 6.2.1
 _ZTVN10Qt3DRender16QCullFacePrivateE@Base 6.2.1
 _ZTVN10Qt3DRender16QDispatchComputeE@Base 6.2.1
 _ZTVN10Qt3DRender16QMaterialPrivateE@Base 6.2.1
 _ZTVN10Qt3DRender16QPickingSettingsE@Base 6.2.1
 _ZTVN10Qt3DRender16QProximityFilterE@Base 6.2.1
 _ZTVN10Qt3DRender16QScreenRayCasterE@Base 6.2.1
 _ZTVN10Qt3DRender16QSeamlessCubemapE@Base 6.2.1
 _ZTVN10Qt3DRender16QSetFencePrivateE@Base 6.2.1
 _ZTVN10Qt3DRender16QSharedGLTextureE@Base 6.2.1
 _ZTVN10Qt3DRender16QTechniqueFilterE@Base 6.2.1
 _ZTVN10Qt3DRender16QTextureWrapModeE@Base 6.2.1
 _ZTVN10Qt3DRender17QClipPlanePrivateE@Base 6.2.1
 _ZTVN10Qt3DRender17QColorMaskPrivateE@Base 6.2.1
 _ZTVN10Qt3DRender17QDepthTestPrivateE@Base 6.2.1
 _ZTVN10Qt3DRender17QDirectionalLightE@Base 6.2.1
 _ZTVN10Qt3DRender17QEnvironmentLightE@Base 6.2.1
 _ZTVN10Qt3DRender17QFilterKeyPrivateE@Base 6.2.1
 _ZTVN10Qt3DRender17QFrontFacePrivateE@Base 6.2.1
 _ZTVN10Qt3DRender17QGeometryRendererE@Base 6.2.1
 _ZTVN10Qt3DRender17QParameterPrivateE@Base 6.2.1
 _ZTVN10Qt3DRender17QPickEventPrivateE@Base 6.2.1
 _ZTVN10Qt3DRender17QPointSizePrivateE@Base 6.2.1
 _ZTVN10Qt3DRender17QRenderPassFilterE@Base 6.2.1
 _ZTVN10Qt3DRender17QSpotLightPrivateE@Base 6.2.1
 _ZTVN10Qt3DRender17QStencilOperationE@Base 6.2.1
 _ZTVN10Qt3DRender17QTextureGeneratorE@Base 6.2.1
 _ZTVN10Qt3DRender17QTextureRectangleE@Base 6.2.1
 _ZTVN10Qt3DRender18QAbstractRayCasterE@Base 6.2.1
 _ZTVN10Qt3DRender18QCameraLensPrivateE@Base 6.2.1
 _ZTVN10Qt3DRender18QDepthRangePrivateE@Base 6.2.1
 _ZTVN10Qt3DRender18QGraphicsApiFilterE@Base 6.2.1
 _ZTVN10Qt3DRender18QPickTriangleEventE@Base 6.2.1
 _ZTVN10Qt3DRender18QPointLightPrivateE@Base 6.2.1
 _ZTVN10Qt3DRender18QRasterModePrivateE@Base 6.2.1
 _ZTVN10Qt3DRender18QSceneExportPluginE@Base 6.2.1
 _ZTVN10Qt3DRender18QSceneImportPluginE@Base 6.2.1
 _ZTVN10Qt3DRender18QShaderDataPrivateE@Base 6.2.1
 _ZTVN10Qt3DRender19QRenderCapabilitiesE@Base 6.2.1
 _ZTVN10Qt3DRender19QRenderCaptureReplyE@Base 6.2.1
 _ZTVN10Qt3DRender19QRenderStatePrivateE@Base 6.2.1
 _ZTVN10Qt3DRender19QRenderTargetOutputE@Base 6.2.1
 _ZTVN10Qt3DRender19QSceneLoaderPrivateE@Base 6.2.1
 _ZTVN10Qt3DRender19QScissorTestPrivateE@Base 6.2.1
 _ZTVN10Qt3DRender19QStencilMaskPrivateE@Base 6.2.1
 _ZTVN10Qt3DRender19QStencilTestPrivateE@Base 6.2.1
 _ZTVN10Qt3DRender20QLevelOfDetailSwitchE@Base 6.2.1
 _ZTVN10Qt3DRender20QObjectPickerPrivateE@Base 6.2.1
 _ZTVN10Qt3DRender20QPaintedTextureImageE@Base 6.2.1
 _ZTVN10Qt3DRender20QPickingProxyPrivateE@Base 6.2.1
 _ZTVN10Qt3DRender20QRenderAspectPrivateE@Base 6.2.1
 _ZTVN10Qt3DRender20QRenderTargetPrivateE@Base 6.2.1
 _ZTVN10Qt3DRender20QTextureCubeMapArrayE@Base 6.2.1
 _ZTVN10Qt3DRender20QTextureImagePrivateE@Base 6.2.1
 _ZTVN10Qt3DRender21QAbstractLightPrivateE@Base 6.2.1
 _ZTVN10Qt3DRender21QAbstractTextureImageE@Base 6.2.1
 _ZTVN10Qt3DRender21QBlendEquationPrivateE@Base 6.2.1
 _ZTVN10Qt3DRender21QLevelOfDetailPrivateE@Base 6.2.1
 _ZTVN10Qt3DRender21QPolygonOffsetPrivateE@Base 6.2.1
 _ZTVN10Qt3DRender21QRenderTargetSelectorE@Base 6.2.1
 _ZTVN10Qt3DRender21QShaderProgramBuilderE@Base 6.2.1
 _ZTVN10Qt3DRender21QShaderProgramPrivateE@Base 6.2.1
 _ZTVN10Qt3DRender21QStencilTestArgumentsE@Base 6.2.1
 _ZTVN10Qt3DRender21QTexture2DMultisampleE@Base 6.2.1
 _ZTVN10Qt3DRender21QTextureLoaderPrivateE@Base 6.2.1
 _ZTVN10Qt3DRender22QComputeCommandPrivateE@Base 6.2.1
 _ZTVN10Qt3DRender22QFrameGraphNodePrivateE@Base 6.2.1
 _ZTVN10Qt3DRender22QGeometryLoaderFactoryE@Base 6.2.1
 _ZTVN10Qt3DRender22QRenderSettingsPrivateE@Base 6.2.1
 _ZTVN10Qt3DRender22QRenderSurfaceSelectorE@Base 6.2.1
 _ZTVN10Qt3DRender23PropertyReaderInterfaceE@Base 6.2.1
 _ZTVN10Qt3DRender23QAbstractTexturePrivateE@Base 6.2.1
 _ZTVN10Qt3DRender23QBlendEquationArgumentsE@Base 6.2.1
 _ZTVN10Qt3DRender23QPickingSettingsPrivateE@Base 6.2.1
 _ZTVN10Qt3DRender23QTechniqueFilterPrivateE@Base 6.2.1
 _ZTVN10Qt3DRender24QDirectionalLightPrivateE@Base 6.2.1
 _ZTVN10Qt3DRender24QEnvironmentLightPrivateE@Base 6.2.1
 _ZTVN10Qt3DRender24QGeometryRendererPrivateE@Base 6.2.1
 _ZTVN10Qt3DRender24QMultiSampleAntiAliasingE@Base 6.2.1
 _ZTVN10Qt3DRender24QStencilOperationPrivateE@Base 6.2.1
 _ZTVN10Qt3DRender25QAbstractRayCasterPrivateE@Base 6.2.1
 _ZTVN10Qt3DRender25QGraphicsApiFilterPrivateE@Base 6.2.1
 _ZTVN10Qt3DRender25QPickTriangleEventPrivateE@Base 6.2.1
 _ZTVN10Qt3DRender26QRenderCapabilitiesPrivateE@Base 6.2.1
 _ZTVN10Qt3DRender26QRenderTargetOutputPrivateE@Base 6.2.1
 _ZTVN10Qt3DRender26QStencilOperationArgumentsE@Base 6.2.1
 _ZTVN10Qt3DRender26QTexture2DMultisampleArrayE@Base 6.2.1
 _ZTVN10Qt3DRender26QTextureImageDataGeneratorE@Base 6.2.1
 _ZTVN10Qt3DRender27QLevelOfDetailSwitchPrivateE@Base 6.2.1
 _ZTVN10Qt3DRender27QPaintedTextureImagePrivateE@Base 6.2.1
 _ZTVN10Qt3DRender28QAbstractTextureImagePrivateE@Base 6.2.1
 _ZTVN10Qt3DRender28QShaderProgramBuilderPrivateE@Base 6.2.1
 _ZTVN10Qt3DRender28QStencilTestArgumentsPrivateE@Base 6.2.1
 _ZTVN10Qt3DRender29QRenderSurfaceSelectorPrivateE@Base 6.2.1
 _ZTVN10Qt3DRender30QBlendEquationArgumentsPrivateE@Base 6.2.1
 _ZTVN10Qt3DRender33QStencilOperationArgumentsPrivateE@Base 6.2.1
 _ZTVN10Qt3DRender5QMeshE@Base 6.2.1
 _ZTVN10Qt3DRender6QLayerE@Base 6.2.1
 _ZTVN10Qt3DRender6Render10CameraLensE@Base 6.2.1
 _ZTVN10Qt3DRender6Render10DepthRangeE@Base 6.2.1
 _ZTVN10Qt3DRender6Render10RasterModeE@Base 6.2.1
 _ZTVN10Qt3DRender6Render10RenderPassE@Base 6.2.1
 _ZTVN10Qt3DRender6Render10ShaderDataE@Base 6.2.1
 _ZTVN10Qt3DRender6Render10SortPolicyE@Base 6.2.1
 _ZTVN10Qt3DRender6Render11BackendNodeE@Base 6.2.1
 _ZTVN10Qt3DRender6Render11MSAAEnabledE@Base 6.2.1
 _ZTVN10Qt3DRender6Render11NoDepthMaskE@Base 6.2.1
 _ZTVN10Qt3DRender6Render11ScissorTestE@Base 6.2.1
 _ZTVN10Qt3DRender6Render11StencilMaskE@Base 6.2.1
 _ZTVN10Qt3DRender6Render11StencilTestE@Base 6.2.1
 _ZTVN10Qt3DRender6Render12ClearBuffersE@Base 6.2.1
 _ZTVN10Qt3DRender6Render12LoadSceneJobE@Base 6.2.1
 _ZTVN10Qt3DRender6Render12ObjectPickerE@Base 6.2.1
 _ZTVN10Qt3DRender6Render12PickingProxyE@Base 6.2.1
 _ZTVN10Qt3DRender6Render12RenderTargetE@Base 6.2.1
 _ZTVN10Qt3DRender6Render12StateSetNodeE@Base 6.2.1
 _ZTVN10Qt3DRender6Render12TextureImageE@Base 6.2.1
 _ZTVN10Qt3DRender6Render12ViewportNodeE@Base 6.2.1
 _ZTVN10Qt3DRender6Render13AlphaCoverageE@Base 6.2.1
 _ZTVN10Qt3DRender6Render13BlendEquationE@Base 6.2.1
 _ZTVN10Qt3DRender6Render13BufferCaptureE@Base 6.2.1
 _ZTVN10Qt3DRender6Render13LevelOfDetailE@Base 6.2.1
 _ZTVN10Qt3DRender6Render13LightGathererE@Base 6.2.1
 _ZTVN10Qt3DRender6Render13MemoryBarrierE@Base 6.2.1
 _ZTVN10Qt3DRender6Render13PolygonOffsetE@Base 6.2.1
 _ZTVN10Qt3DRender6Render13RayCastingJobE@Base 6.2.1
 _ZTVN10Qt3DRender6Render13RenderCaptureE@Base 6.2.1
 _ZTVN10Qt3DRender6Render13ShaderBuilderE@Base 6.2.1
 _ZTVN10Qt3DRender6Render14CameraSelectorE@Base 6.2.1
 _ZTVN10Qt3DRender6Render14ComputeCommandE@Base 6.2.1
 _ZTVN10Qt3DRender6Render14FrameGraphNodeE@Base 6.2.1
 _ZTVN10Qt3DRender6Render14FrustumCullingE@Base 6.2.1
 _ZTVN10Qt3DRender6Render14RenderSettingsE@Base 6.2.1
 _ZTVN10Qt3DRender6Render15BlitFramebufferE@Base 6.2.1
 _ZTVN10Qt3DRender6Render15DispatchComputeE@Base 6.2.1
 _ZTVN10Qt3DRender6Render15FrameCleanupJobE@Base 6.2.1
 _ZTVN10Qt3DRender6Render15LayerFilterNodeE@Base 6.2.1
 _ZTVN10Qt3DRender6Render15LoadGeometryJobE@Base 6.2.1
 _ZTVN10Qt3DRender6Render15PickEventFilterE@Base 6.2.1
 _ZTVN10Qt3DRender6Render15ProximityFilterE@Base 6.2.1
 _ZTVN10Qt3DRender6Render15QRendererPluginE@Base 6.2.1
 _ZTVN10Qt3DRender6Render15RenderStateImplE@Base 6.2.1
 _ZTVN10Qt3DRender6Render15RenderStateNodeE@Base 6.2.1
 _ZTVN10Qt3DRender6Render15SeamlessCubemapE@Base 6.2.1
 _ZTVN10Qt3DRender6Render15TechniqueFilterE@Base 6.2.1
 _ZTVN10Qt3DRender6Render16EnvironmentLightE@Base 6.2.1
 _ZTVN10Qt3DRender6Render16GeometryRendererE@Base 6.2.1
 _ZTVN10Qt3DRender6Render16RenderPassFilterE@Base 6.2.1
 _ZTVN10Qt3DRender6Render16ResourceAccessorE@Base 6.2.1
 _ZTVN10Qt3DRender6Render17FrustumCullingJobE@Base 6.2.1
 _ZTVN10Qt3DRender6Render18AbstractPickingJobE@Base 6.2.1
 _ZTVN10Qt3DRender6Render18RenderTargetOutputE@Base 6.2.1
 _ZTVN10Qt3DRender6Render20FilterLayerEntityJobE@Base 6.2.1
 _ZTVN10Qt3DRender6Render20RenderTargetSelectorE@Base 6.2.1
 _ZTVN10Qt3DRender6Render20SendBufferCaptureJobE@Base 6.2.1
 _ZTVN10Qt3DRender6Render20UpdateTreeEnabledJobE@Base 6.2.1
 _ZTVN10Qt3DRender6Render21PickBoundingVolumeJobE@Base 6.2.1
 _ZTVN10Qt3DRender6Render21PlatformSurfaceFilterE@Base 6.2.1
 _ZTVN10Qt3DRender6Render21RenderSurfaceSelectorE@Base 6.2.1
 _ZTVN10Qt3DRender6Render21UpdateEntityLayersJobE@Base 6.2.1
 _ZTVN10Qt3DRender6Render22BlendEquationArgumentsE@Base 6.2.1
 _ZTVN10Qt3DRender6Render22OffscreenSurfaceHelperE@Base 6.2.1
 _ZTVN10Qt3DRender6Render22QRenderPluginFactoryIfE@Base 6.2.1
 _ZTVN10Qt3DRender6Render22UpdateLevelOfDetailJobE@Base 6.2.1
 _ZTVN10Qt3DRender6Render23ExpandBoundingVolumeJobE@Base 6.2.1
 _ZTVN10Qt3DRender6Render23UpdateWorldTransformJobE@Base 6.2.1
 _ZTVN10Qt3DRender6Render24UpdateSkinningPaletteJobE@Base 6.2.1
 _ZTVN10Qt3DRender6Render24VSyncFrameAdvanceServiceE@Base 6.2.1
 _ZTVN10Qt3DRender6Render26CalculateBoundingVolumeJobE@Base 6.2.1
 _ZTVN10Qt3DRender6Render26FilterProximityDistanceJobE@Base 6.2.1
 _ZTVN10Qt3DRender6Render28FilterCompatibleTechniqueJobE@Base 6.2.1
 _ZTVN10Qt3DRender6Render28MaterialParameterGathererJobE@Base 6.2.1
 _ZTVN10Qt3DRender6Render28UpdateShaderDataTransformJobE@Base 6.2.1
 _ZTVN10Qt3DRender6Render28UpdateWorldBoundingVolumeJobE@Base 6.2.1
 _ZTVN10Qt3DRender6Render29RenderBackendResourceAccessorE@Base 6.2.1
 _ZTVN10Qt3DRender6Render30UpdateWorldTransformJobPrivateE@Base 6.2.1
 _ZTVN10Qt3DRender6Render32ComputeFilteredBoundingVolumeJobE@Base 6.2.1
 _ZTVN10Qt3DRender6Render5JointE@Base 6.2.1
 _ZTVN10Qt3DRender6Render5LightE@Base 6.2.1
 _ZTVN10Qt3DRender6Render5SceneE@Base 6.2.1
 _ZTVN10Qt3DRender6Render6BufferE@Base 6.2.1
 _ZTVN10Qt3DRender6Render6EffectE@Base 6.2.1
 _ZTVN10Qt3DRender6Render6EntityE@Base 6.2.1
 _ZTVN10Qt3DRender6Render6NoDrawE@Base 6.2.1
 _ZTVN10Qt3DRender6Render6ShaderE@Base 6.2.1
 _ZTVN10Qt3DRender6Render6SphereE@Base 6.2.1
 _ZTVN10Qt3DRender6Render7TextureE@Base 6.2.1
 _ZTVN10Qt3DRender6Render8ArmatureE@Base 6.2.1
 _ZTVN10Qt3DRender6Render8CullFaceE@Base 6.2.1
 _ZTVN10Qt3DRender6Render8GeometryE@Base 6.2.1
 _ZTVN10Qt3DRender6Render8MaterialE@Base 6.2.1
 _ZTVN10Qt3DRender6Render8SetFenceE@Base 6.2.1
 _ZTVN10Qt3DRender6Render8SkeletonE@Base 6.2.1
 _ZTVN10Qt3DRender6Render9AlphaFuncE@Base 6.2.1
 _ZTVN10Qt3DRender6Render9AttributeE@Base 6.2.1
 _ZTVN10Qt3DRender6Render9ClipPlaneE@Base 6.2.1
 _ZTVN10Qt3DRender6Render9ColorMaskE@Base 6.2.1
 _ZTVN10Qt3DRender6Render9DepthTestE@Base 6.2.1
 _ZTVN10Qt3DRender6Render9DitheringE@Base 6.2.1
 _ZTVN10Qt3DRender6Render9FilterKeyE@Base 6.2.1
 _ZTVN10Qt3DRender6Render9FrontFaceE@Base 6.2.1
 _ZTVN10Qt3DRender6Render9LineWidthE@Base 6.2.1
 _ZTVN10Qt3DRender6Render9ParameterE@Base 6.2.1
 _ZTVN10Qt3DRender6Render9PointSizeE@Base 6.2.1
 _ZTVN10Qt3DRender6Render9RayCasterE@Base 6.2.1
 _ZTVN10Qt3DRender6Render9StencilOpE@Base 6.2.1
 _ZTVN10Qt3DRender6Render9TechniqueE@Base 6.2.1
 _ZTVN10Qt3DRender6Render9TransformE@Base 6.2.1
 _ZTVN10Qt3DRender7QCameraE@Base 6.2.1
 _ZTVN10Qt3DRender7QEffectE@Base 6.2.1
 _ZTVN10Qt3DRender7QNoDrawE@Base 6.2.1
 _ZTVN10Qt3DRender9QCullFaceE@Base 6.2.1
 _ZTVN10Qt3DRender9QMaterialE@Base 6.2.1
 _ZTVN10Qt3DRender9QSetFenceE@Base 6.2.1
 _ZTVN10Qt3DRender9QViewportE@Base 6.2.1
 (optional=templinst)_ZZN9QMetaType21registerConverterImplI5QListIN10Qt3DRender11QSortPolicy8SortTypeEE9QIterableI13QMetaSequenceEEEbSt8functionIFbPKvPvEES_S_E10unregister@Base 6.2.1
 (optional=templinst)_ZZN9QMetaType21registerConverterImplI5QListIN10Qt3DRender13QRayCasterHitEE9QIterableI13QMetaSequenceEEEbSt8functionIFbPKvPvEES_S_E10unregister@Base 6.2.1
 (optional=templinst)_ZZN9QMetaType21registerConverterImplI5QListIPN10Qt3DRender11QShaderDataEE9QIterableI13QMetaSequenceEEEbSt8functionIFbPKvPvEES_S_E10unregister@Base 6.2.1
 (optional=templinst)_ZZN9QMetaType21registerConverterImplI5QListIdE9QIterableI13QMetaSequenceEEEbSt8functionIFbPKvPvEES_S_E10unregister@Base 6.2.1
 (optional=templinst)_ZZN9QMetaType21registerConverterImplI5QListIiE9QIterableI13QMetaSequenceEEEbSt8functionIFbPKvPvEES_S_E10unregister@Base 6.2.1
 (optional=templinst)_ZZN9QMetaType23registerMutableViewImplI5QListIN10Qt3DRender11QSortPolicy8SortTypeEE9QIterableI13QMetaSequenceEEEbSt8functionIFbPvSA_EES_S_E10unregister@Base 6.2.1
 (optional=templinst)_ZZN9QMetaType23registerMutableViewImplI5QListIN10Qt3DRender13QRayCasterHitEE9QIterableI13QMetaSequenceEEEbSt8functionIFbPvS9_EES_S_E10unregister@Base 6.2.1
 (optional=templinst)_ZZN9QMetaType23registerMutableViewImplI5QListIPN10Qt3DRender11QShaderDataEE9QIterableI13QMetaSequenceEEEbSt8functionIFbPvSA_EES_S_E10unregister@Base 6.2.1
 (optional=templinst)_ZZN9QMetaType23registerMutableViewImplI5QListIdE9QIterableI13QMetaSequenceEEEbSt8functionIFbPvS7_EES_S_E10unregister@Base 6.2.1
 (optional=templinst)_ZZN9QMetaType23registerMutableViewImplI5QListIiE9QIterableI13QMetaSequenceEEEbSt8functionIFbPvS7_EES_S_E10unregister@Base 6.2.1
 (optional=templinst)_ZZN9QtPrivate16QMetaTypeForTypeI10QByteArrayE10getCopyCtrEvENUlPKNS_18QMetaTypeInterfaceEPvPKvE_4_FUNES5_S6_S8_@Base 6.2.1
 (optional=templinst)_ZZN9QtPrivate16QMetaTypeForTypeI10QByteArrayE10getMoveCtrEvENUlPKNS_18QMetaTypeInterfaceEPvS6_E_4_FUNES5_S6_S6_@Base 6.2.1
 (optional=templinst)_ZZN9QtPrivate16QMetaTypeForTypeI10QByteArrayE13getDefaultCtrEvENUlPKNS_18QMetaTypeInterfaceEPvE_4_FUNES5_S6_@Base 6.2.1
 (optional=templinst)_ZZN9QtPrivate16QMetaTypeForTypeI10QByteArrayE7getDtorEvENUlPKNS_18QMetaTypeInterfaceEPvE_4_FUNES5_S6_@Base 6.2.1
 (optional=templinst)_ZZN9QtPrivate16QMetaTypeForTypeI4QUrlE10getCopyCtrEvENUlPKNS_18QMetaTypeInterfaceEPvPKvE_4_FUNES5_S6_S8_@Base 6.2.1
 (optional=templinst)_ZZN9QtPrivate16QMetaTypeForTypeI4QUrlE10getMoveCtrEvENUlPKNS_18QMetaTypeInterfaceEPvS6_E_4_FUNES5_S6_S6_@Base 6.2.1
 (optional=templinst)_ZZN9QtPrivate16QMetaTypeForTypeI4QUrlE13getDefaultCtrEvENUlPKNS_18QMetaTypeInterfaceEPvE_4_FUNES5_S6_@Base 6.2.1
 (optional=templinst)_ZZN9QtPrivate16QMetaTypeForTypeI4QUrlE7getDtorEvENUlPKNS_18QMetaTypeInterfaceEPvE_4_FUNES5_S6_@Base 6.2.1
 (optional=templinst)_ZZN9QtPrivate16QMetaTypeForTypeI5QListI7QStringEE10getCopyCtrEvENUlPKNS_18QMetaTypeInterfaceEPvPKvE_4_FUNES7_S8_SA_@Base 6.2.1
 (optional=templinst)_ZZN9QtPrivate16QMetaTypeForTypeI5QListI7QStringEE10getMoveCtrEvENUlPKNS_18QMetaTypeInterfaceEPvS8_E_4_FUNES7_S8_S8_@Base 6.2.1
 (optional=templinst)_ZZN9QtPrivate16QMetaTypeForTypeI5QListI7QStringEE13getDefaultCtrEvENUlPKNS_18QMetaTypeInterfaceEPvE_4_FUNES7_S8_@Base 6.2.1
 (optional=templinst)_ZZN9QtPrivate16QMetaTypeForTypeI5QListI7QStringEE7getDtorEvENUlPKNS_18QMetaTypeInterfaceEPvE_4_FUNES7_S8_@Base 6.2.1
 (optional=templinst)_ZZN9QtPrivate16QMetaTypeForTypeI5QListI8QVariantEE10getCopyCtrEvENUlPKNS_18QMetaTypeInterfaceEPvPKvE_4_FUNES7_S8_SA_@Base 6.2.1
 (optional=templinst)_ZZN9QtPrivate16QMetaTypeForTypeI5QListI8QVariantEE10getMoveCtrEvENUlPKNS_18QMetaTypeInterfaceEPvS8_E_4_FUNES7_S8_S8_@Base 6.2.1
 (optional=templinst)_ZZN9QtPrivate16QMetaTypeForTypeI5QListI8QVariantEE13getDefaultCtrEvENUlPKNS_18QMetaTypeInterfaceEPvE_4_FUNES7_S8_@Base 6.2.1
 (optional=templinst)_ZZN9QtPrivate16QMetaTypeForTypeI5QListI8QVariantEE7getDtorEvENUlPKNS_18QMetaTypeInterfaceEPvE_4_FUNES7_S8_@Base 6.2.1
 (optional=templinst)_ZZN9QtPrivate16QMetaTypeForTypeI5QRectE10getCopyCtrEvENUlPKNS_18QMetaTypeInterfaceEPvPKvE_4_FUNES5_S6_S8_@Base 6.2.1
 (optional=templinst)_ZZN9QtPrivate16QMetaTypeForTypeI5QRectE10getMoveCtrEvENUlPKNS_18QMetaTypeInterfaceEPvS6_E_4_FUNES5_S6_S6_@Base 6.2.1
 (optional=templinst)_ZZN9QtPrivate16QMetaTypeForTypeI5QRectE13getDefaultCtrEvENUlPKNS_18QMetaTypeInterfaceEPvE_4_FUNES5_S6_@Base 6.2.1
 (optional=templinst)_ZZN9QtPrivate16QMetaTypeForTypeI5QSizeE10getCopyCtrEvENUlPKNS_18QMetaTypeInterfaceEPvPKvE_4_FUNES5_S6_S8_@Base 6.2.1
 (optional=templinst)_ZZN9QtPrivate16QMetaTypeForTypeI5QSizeE10getMoveCtrEvENUlPKNS_18QMetaTypeInterfaceEPvS6_E_4_FUNES5_S6_S6_@Base 6.2.1
 (optional=templinst)_ZZN9QtPrivate16QMetaTypeForTypeI5QSizeE13getDefaultCtrEvENUlPKNS_18QMetaTypeInterfaceEPvE_4_FUNES5_S6_@Base 6.2.1
 (optional=templinst)_ZZN9QtPrivate16QMetaTypeForTypeI6QPointE10getCopyCtrEvENUlPKNS_18QMetaTypeInterfaceEPvPKvE_4_FUNES5_S6_S8_@Base 6.2.1
 (optional=templinst)_ZZN9QtPrivate16QMetaTypeForTypeI6QPointE10getMoveCtrEvENUlPKNS_18QMetaTypeInterfaceEPvS6_E_4_FUNES5_S6_S6_@Base 6.2.1
 (optional=templinst)_ZZN9QtPrivate16QMetaTypeForTypeI6QPointE13getDefaultCtrEvENUlPKNS_18QMetaTypeInterfaceEPvE_4_FUNES5_S6_@Base 6.2.1
 (optional=templinst)_ZZN9QtPrivate16QMetaTypeForTypeI6QRectFE10getCopyCtrEvENUlPKNS_18QMetaTypeInterfaceEPvPKvE_4_FUNES5_S6_S8_@Base 6.2.1
 (optional=templinst)_ZZN9QtPrivate16QMetaTypeForTypeI6QRectFE10getMoveCtrEvENUlPKNS_18QMetaTypeInterfaceEPvS6_E_4_FUNES5_S6_S6_@Base 6.2.1
 (optional=templinst)_ZZN9QtPrivate16QMetaTypeForTypeI6QRectFE13getDefaultCtrEvENUlPKNS_18QMetaTypeInterfaceEPvE_4_FUNES5_S6_@Base 6.2.1
 (optional=templinst)_ZZN9QtPrivate16QMetaTypeForTypeI7QPointFE10getCopyCtrEvENUlPKNS_18QMetaTypeInterfaceEPvPKvE_4_FUNES5_S6_S8_@Base 6.2.1
 (optional=templinst)_ZZN9QtPrivate16QMetaTypeForTypeI7QPointFE10getMoveCtrEvENUlPKNS_18QMetaTypeInterfaceEPvS6_E_4_FUNES5_S6_S6_@Base 6.2.1
 (optional=templinst)_ZZN9QtPrivate16QMetaTypeForTypeI7QPointFE13getDefaultCtrEvENUlPKNS_18QMetaTypeInterfaceEPvE_4_FUNES5_S6_@Base 6.2.1
 (optional=templinst)_ZZN9QtPrivate16QMetaTypeForTypeI7QStringE10getCopyCtrEvENUlPKNS_18QMetaTypeInterfaceEPvPKvE_4_FUNES5_S6_S8_@Base 6.2.1
 (optional=templinst)_ZZN9QtPrivate16QMetaTypeForTypeI7QStringE10getMoveCtrEvENUlPKNS_18QMetaTypeInterfaceEPvS6_E_4_FUNES5_S6_S6_@Base 6.2.1
 (optional=templinst)_ZZN9QtPrivate16QMetaTypeForTypeI7QStringE13getDefaultCtrEvENUlPKNS_18QMetaTypeInterfaceEPvE_4_FUNES5_S6_@Base 6.2.1
 (optional=templinst)_ZZN9QtPrivate16QMetaTypeForTypeI7QStringE7getDtorEvENUlPKNS_18QMetaTypeInterfaceEPvE_4_FUNES5_S6_@Base 6.2.1
 (optional=templinst)_ZZN9QtPrivate16QMetaTypeForTypeI8QVariantE10getCopyCtrEvENUlPKNS_18QMetaTypeInterfaceEPvPKvE_4_FUNES5_S6_S8_@Base 6.2.1
 (optional=templinst)_ZZN9QtPrivate16QMetaTypeForTypeI8QVariantE10getMoveCtrEvENUlPKNS_18QMetaTypeInterfaceEPvS6_E_4_FUNES5_S6_S6_@Base 6.2.1
 (optional=templinst)_ZZN9QtPrivate16QMetaTypeForTypeI8QVariantE13getDefaultCtrEvENUlPKNS_18QMetaTypeInterfaceEPvE_4_FUNES5_S6_@Base 6.2.1
 (optional=templinst)_ZZN9QtPrivate16QMetaTypeForTypeI8QVariantE7getDtorEvENUlPKNS_18QMetaTypeInterfaceEPvE_4_FUNES5_S6_@Base 6.2.1
 (optional=templinst)_ZZN9QtPrivate16QMetaTypeForTypeIP7QObjectE10getCopyCtrEvENUlPKNS_18QMetaTypeInterfaceEPvPKvE_4_FUNES6_S7_S9_@Base 6.2.1
 (optional=templinst)_ZZN9QtPrivate16QMetaTypeForTypeIP7QObjectE10getMoveCtrEvENUlPKNS_18QMetaTypeInterfaceEPvS7_E_4_FUNES6_S7_S7_@Base 6.2.1
 (optional=templinst)_ZZN9QtPrivate16QMetaTypeForTypeIP7QObjectE13getDefaultCtrEvENUlPKNS_18QMetaTypeInterfaceEPvE_4_FUNES6_S7_@Base 6.2.1
 (optional=templinst)_ZZN9QtPrivate16QMetaTypeForTypeIbE10getCopyCtrEvENUlPKNS_18QMetaTypeInterfaceEPvPKvE_4_FUNES4_S5_S7_@Base 6.2.1
 (optional=templinst)_ZZN9QtPrivate16QMetaTypeForTypeIbE10getMoveCtrEvENUlPKNS_18QMetaTypeInterfaceEPvS5_E_4_FUNES4_S5_S5_@Base 6.2.1
 (optional=templinst)_ZZN9QtPrivate16QMetaTypeForTypeIbE13getDefaultCtrEvENUlPKNS_18QMetaTypeInterfaceEPvE_4_FUNES4_S5_@Base 6.2.1
 (optional=templinst)_ZZN9QtPrivate16QMetaTypeForTypeIdE10getCopyCtrEvENUlPKNS_18QMetaTypeInterfaceEPvPKvE_4_FUNES4_S5_S7_@Base 6.2.1
 (optional=templinst)_ZZN9QtPrivate16QMetaTypeForTypeIdE10getMoveCtrEvENUlPKNS_18QMetaTypeInterfaceEPvS5_E_4_FUNES4_S5_S5_@Base 6.2.1
 (optional=templinst)_ZZN9QtPrivate16QMetaTypeForTypeIdE13getDefaultCtrEvENUlPKNS_18QMetaTypeInterfaceEPvE_4_FUNES4_S5_@Base 6.2.1
 (optional=templinst)_ZZN9QtPrivate16QMetaTypeForTypeIfE10getCopyCtrEvENUlPKNS_18QMetaTypeInterfaceEPvPKvE_4_FUNES4_S5_S7_@Base 6.2.1
 (optional=templinst)_ZZN9QtPrivate16QMetaTypeForTypeIfE10getMoveCtrEvENUlPKNS_18QMetaTypeInterfaceEPvS5_E_4_FUNES4_S5_S5_@Base 6.2.1
 (optional=templinst)_ZZN9QtPrivate16QMetaTypeForTypeIfE13getDefaultCtrEvENUlPKNS_18QMetaTypeInterfaceEPvE_4_FUNES4_S5_@Base 6.2.1
 (optional=templinst)_ZZN9QtPrivate16QMetaTypeForTypeIiE10getCopyCtrEvENUlPKNS_18QMetaTypeInterfaceEPvPKvE_4_FUNES4_S5_S7_@Base 6.2.1
 (optional=templinst)_ZZN9QtPrivate16QMetaTypeForTypeIiE10getMoveCtrEvENUlPKNS_18QMetaTypeInterfaceEPvS5_E_4_FUNES4_S5_S5_@Base 6.2.1
 (optional=templinst)_ZZN9QtPrivate16QMetaTypeForTypeIiE13getDefaultCtrEvENUlPKNS_18QMetaTypeInterfaceEPvE_4_FUNES4_S5_@Base 6.2.1
 (optional=templinst)_ZZN9QtPrivate16QMetaTypeForTypeIjE10getCopyCtrEvENUlPKNS_18QMetaTypeInterfaceEPvPKvE_4_FUNES4_S5_S7_@Base 6.2.1
 (optional=templinst)_ZZN9QtPrivate16QMetaTypeForTypeIjE10getMoveCtrEvENUlPKNS_18QMetaTypeInterfaceEPvS5_E_4_FUNES4_S5_S5_@Base 6.2.1
 (optional=templinst)_ZZN9QtPrivate16QMetaTypeForTypeIjE13getDefaultCtrEvENUlPKNS_18QMetaTypeInterfaceEPvE_4_FUNES4_S5_@Base 6.2.1
 (optional=templinst)_ZZN9QtPrivate16QMetaTypeForTypeIyE10getCopyCtrEvENUlPKNS_18QMetaTypeInterfaceEPvPKvE_4_FUNES4_S5_S7_@Base 6.2.1
 (optional=templinst)_ZZN9QtPrivate16QMetaTypeForTypeIyE10getMoveCtrEvENUlPKNS_18QMetaTypeInterfaceEPvS5_E_4_FUNES4_S5_S5_@Base 6.2.1
 (optional=templinst)_ZZN9QtPrivate16QMetaTypeForTypeIyE13getDefaultCtrEvENUlPKNS_18QMetaTypeInterfaceEPvE_4_FUNES4_S5_@Base 6.2.1
 (c++)"non-virtual thunk to Qt3DRender::QGeometryLoaderFactory::~QGeometryLoaderFactory()@Base" 6.2.1
 (c++)"non-virtual thunk to Qt3DRender::QRenderAspectPrivate::frameDone()@Base" 6.2.1
 (c++)"non-virtual thunk to Qt3DRender::QRenderAspectPrivate::jobsDone()@Base" 6.2.1
 (c++)"non-virtual thunk to Qt3DRender::QRenderAspectPrivate::~QRenderAspectPrivate()@Base" 6.2.1
 (c++)"non-virtual thunk to Qt3DRender::Render::CalculateBoundingVolumeJob::process(Qt3DCore::BoundingVolumeComputeResult const&, bool)@Base" 6.2.1
