# SymbolsHelper-Confirmed: 6.2.1 amd64
libQt63DLogic.so.6 libqt63dlogic6 #MINVER#
* Build-Depends-Package: qt6-3d-dev
 _ZGVZN9QMetaType21registerConverterImplI5QListIN8Qt3DCore7QNodeIdEE9QIterableI13QMetaSequenceEEEbSt8functionIFbPKvPvEES_S_E10unregister@Base 6.2.1
 _ZGVZN9QMetaType23registerMutableViewImplI5QListIN8Qt3DCore7QNodeIdEE9QIterableI13QMetaSequenceEEEbSt8functionIFbPvS9_EES_S_E10unregister@Base 6.2.1
 _ZN13QMetaSequence12MetaSequenceI5QListIN8Qt3DCore7QNodeIdEEE5valueE@Base 6.2.1
 _ZN9Qt3DLogic12QFrameAction11onTriggeredEf@Base 6.2.1
 _ZN9Qt3DLogic12QFrameAction11qt_metacallEN11QMetaObject4CallEiPPv@Base 6.2.1
 _ZN9Qt3DLogic12QFrameAction11qt_metacastEPKc@Base 6.2.1
 _ZN9Qt3DLogic12QFrameAction16staticMetaObjectE@Base 6.2.1
 _ZN9Qt3DLogic12QFrameAction9triggeredEf@Base 6.2.1
 _ZN9Qt3DLogic12QFrameActionC1EPN8Qt3DCore5QNodeE@Base 6.2.1
 _ZN9Qt3DLogic12QFrameActionC1ERNS_19QFrameActionPrivateEPN8Qt3DCore5QNodeE@Base 6.2.1
 _ZN9Qt3DLogic12QFrameActionC2EPN8Qt3DCore5QNodeE@Base 6.2.1
 _ZN9Qt3DLogic12QFrameActionC2ERNS_19QFrameActionPrivateEPN8Qt3DCore5QNodeE@Base 6.2.1
 _ZN9Qt3DLogic12QFrameActionD0Ev@Base 6.2.1
 _ZN9Qt3DLogic12QFrameActionD1Ev@Base 6.2.1
 _ZN9Qt3DLogic12QFrameActionD2Ev@Base 6.2.1
 _ZN9Qt3DLogic12QLogicAspect11qt_metacallEN11QMetaObject4CallEiPPv@Base 6.2.1
 _ZN9Qt3DLogic12QLogicAspect11qt_metacastEPKc@Base 6.2.1
 _ZN9Qt3DLogic12QLogicAspect12onRegisteredEv@Base 6.2.1
 _ZN9Qt3DLogic12QLogicAspect13jobsToExecuteEx@Base 6.2.1
 _ZN9Qt3DLogic12QLogicAspect15onEngineStartupEv@Base 6.2.1
 _ZN9Qt3DLogic12QLogicAspect16staticMetaObjectE@Base 6.2.1
 _ZN9Qt3DLogic12QLogicAspectC1EP7QObject@Base 6.2.1
 _ZN9Qt3DLogic12QLogicAspectC1ERNS_19QLogicAspectPrivateEP7QObject@Base 6.2.1
 _ZN9Qt3DLogic12QLogicAspectC2EP7QObject@Base 6.2.1
 _ZN9Qt3DLogic12QLogicAspectC2ERNS_19QLogicAspectPrivateEP7QObject@Base 6.2.1
 _ZN9Qt3DLogic12QLogicAspectD0Ev@Base 6.2.1
 _ZN9Qt3DLogic12QLogicAspectD1Ev@Base 6.2.1
 _ZN9Qt3DLogic12QLogicAspectD2Ev@Base 6.2.1
 _ZNK9Qt3DLogic12QFrameAction10metaObjectEv@Base 6.2.1
 _ZNK9Qt3DLogic12QLogicAspect10metaObjectEv@Base 6.2.1
 _ZTIN9Qt3DLogic12QFrameActionE@Base 6.2.1
 _ZTIN9Qt3DLogic12QLogicAspectE@Base 6.2.1
 _ZTIZN9QMetaType17registerConverterI5QListIN8Qt3DCore7QNodeIdEE9QIterableI13QMetaSequenceEN9QtPrivate33QSequentialIterableConvertFunctorIS4_EEEEbT1_EUlPKvPvE_@Base 6.2.1
 _ZTIZN9QMetaType19registerMutableViewI5QListIN8Qt3DCore7QNodeIdEE9QIterableI13QMetaSequenceEN9QtPrivate37QSequentialIterableMutableViewFunctorIS4_EEEEbT1_EUlPvSC_E_@Base 6.2.1
 _ZTSN9Qt3DLogic12QFrameActionE@Base 6.2.1
 _ZTSN9Qt3DLogic12QLogicAspectE@Base 6.2.1
 _ZTSZN9QMetaType17registerConverterI5QListIN8Qt3DCore7QNodeIdEE9QIterableI13QMetaSequenceEN9QtPrivate33QSequentialIterableConvertFunctorIS4_EEEEbT1_EUlPKvPvE_@Base 6.2.1
 _ZTSZN9QMetaType19registerMutableViewI5QListIN8Qt3DCore7QNodeIdEE9QIterableI13QMetaSequenceEN9QtPrivate37QSequentialIterableMutableViewFunctorIS4_EEEEbT1_EUlPvSC_E_@Base 6.2.1
 _ZTVN9Qt3DLogic12QFrameActionE@Base 6.2.1
 _ZTVN9Qt3DLogic12QLogicAspectE@Base 6.2.1
 (optional=templinst)_ZZN9QMetaType21registerConverterImplI5QListIN8Qt3DCore7QNodeIdEE9QIterableI13QMetaSequenceEEEbSt8functionIFbPKvPvEES_S_E10unregister@Base 6.2.1
 (optional=templinst)_ZZN9QMetaType23registerMutableViewImplI5QListIN8Qt3DCore7QNodeIdEE9QIterableI13QMetaSequenceEEEbSt8functionIFbPvS9_EES_S_E10unregister@Base 6.2.1
 (optional=templinst)_ZZN9QtPrivate16QMetaTypeForTypeIfE10getCopyCtrEvENUlPKNS_18QMetaTypeInterfaceEPvPKvE_4_FUNES4_S5_S7_@Base 6.2.1
 (optional=templinst)_ZZN9QtPrivate16QMetaTypeForTypeIfE10getMoveCtrEvENUlPKNS_18QMetaTypeInterfaceEPvS5_E_4_FUNES4_S5_S5_@Base 6.2.1
 (optional=templinst)_ZZN9QtPrivate16QMetaTypeForTypeIfE13getDefaultCtrEvENUlPKNS_18QMetaTypeInterfaceEPvE_4_FUNES4_S5_@Base 6.2.1
