# SymbolsHelper-Confirmed: 6.2.2 armel armhf i386 mipsel
libQt63DExtras.so.6 libqt63dextras6 #MINVER#
* Build-Depends-Package: qt6-3d-dev
 _ZGVZN9QMetaType21registerConverterImplI5QListIPN10Qt3DExtras16QSpriteSheetItemEE9QIterableI13QMetaSequenceEEEbSt8functionIFbPKvPvEES_S_E10unregister@Base 6.2.1
 _ZGVZN9QMetaType23registerMutableViewImplI5QListIPN10Qt3DExtras16QSpriteSheetItemEE9QIterableI13QMetaSequenceEEEbSt8functionIFbPvSA_EES_S_E10unregister@Base 6.2.1
 _ZN10Qt3DExtras10QPlaneMesh11qt_metacallEN11QMetaObject4CallEiPPv@Base 6.2.1
 _ZN10Qt3DExtras10QPlaneMesh11qt_metacastEPKc@Base 6.2.1
 _ZN10Qt3DExtras10QPlaneMesh11setMirroredEb@Base 6.2.1
 _ZN10Qt3DExtras10QPlaneMesh12widthChangedEf@Base 6.2.1
 _ZN10Qt3DExtras10QPlaneMesh13heightChangedEf@Base 6.2.1
 _ZN10Qt3DExtras10QPlaneMesh15mirroredChangedEb@Base 6.2.1
 _ZN10Qt3DExtras10QPlaneMesh16staticMetaObjectE@Base 6.2.1
 _ZN10Qt3DExtras10QPlaneMesh17setMeshResolutionERK5QSize@Base 6.2.1
 _ZN10Qt3DExtras10QPlaneMesh21meshResolutionChangedERK5QSize@Base 6.2.1
 _ZN10Qt3DExtras10QPlaneMesh8setWidthEf@Base 6.2.1
 _ZN10Qt3DExtras10QPlaneMesh9setHeightEf@Base 6.2.1
 _ZN10Qt3DExtras10QPlaneMeshC1EPN8Qt3DCore5QNodeE@Base 6.2.1
 _ZN10Qt3DExtras10QPlaneMeshC2EPN8Qt3DCore5QNodeE@Base 6.2.1
 _ZN10Qt3DExtras10QPlaneMeshD0Ev@Base 6.2.1
 _ZN10Qt3DExtras10QPlaneMeshD1Ev@Base 6.2.1
 _ZN10Qt3DExtras10QPlaneMeshD2Ev@Base 6.2.1
 _ZN10Qt3DExtras10QTorusMesh11qt_metacallEN11QMetaObject4CallEiPPv@Base 6.2.1
 _ZN10Qt3DExtras10QTorusMesh11qt_metacastEPKc@Base 6.2.1
 _ZN10Qt3DExtras10QTorusMesh12ringsChangedEi@Base 6.2.1
 _ZN10Qt3DExtras10QTorusMesh13radiusChangedEf@Base 6.2.1
 _ZN10Qt3DExtras10QTorusMesh13slicesChangedEi@Base 6.2.1
 _ZN10Qt3DExtras10QTorusMesh14setMinorRadiusEf@Base 6.2.1
 _ZN10Qt3DExtras10QTorusMesh16staticMetaObjectE@Base 6.2.1
 _ZN10Qt3DExtras10QTorusMesh18minorRadiusChangedEf@Base 6.2.1
 _ZN10Qt3DExtras10QTorusMesh8setRingsEi@Base 6.2.1
 _ZN10Qt3DExtras10QTorusMesh9setRadiusEf@Base 6.2.1
 _ZN10Qt3DExtras10QTorusMesh9setSlicesEi@Base 6.2.1
 _ZN10Qt3DExtras10QTorusMeshC1EPN8Qt3DCore5QNodeE@Base 6.2.1
 _ZN10Qt3DExtras10QTorusMeshC2EPN8Qt3DCore5QNodeE@Base 6.2.1
 _ZN10Qt3DExtras10QTorusMeshD0Ev@Base 6.2.1
 _ZN10Qt3DExtras10QTorusMeshD1Ev@Base 6.2.1
 _ZN10Qt3DExtras10QTorusMeshD2Ev@Base 6.2.1
 _ZN10Qt3DExtras10Qt3DWindow11qt_metacallEN11QMetaObject4CallEiPPv@Base 6.2.1
 _ZN10Qt3DExtras10Qt3DWindow11qt_metacastEPKc@Base 6.2.1
 _ZN10Qt3DExtras10Qt3DWindow11resizeEventEP12QResizeEvent@Base 6.2.1
 _ZN10Qt3DExtras10Qt3DWindow13setRootEntityEPN8Qt3DCore7QEntityE@Base 6.2.1
 _ZN10Qt3DExtras10Qt3DWindow14registerAspectEPN8Qt3DCore15QAbstractAspectE@Base 6.2.1
 _ZN10Qt3DExtras10Qt3DWindow14registerAspectERK7QString@Base 6.2.1
 _ZN10Qt3DExtras10Qt3DWindow16staticMetaObjectE@Base 6.2.1
 _ZN10Qt3DExtras10Qt3DWindow19setActiveFrameGraphEPN10Qt3DRender15QFrameGraphNodeE@Base 6.2.1
 _ZN10Qt3DExtras10Qt3DWindow5eventEP6QEvent@Base 6.2.1
 _ZN10Qt3DExtras10Qt3DWindow9showEventEP10QShowEvent@Base 6.2.1
 _ZN10Qt3DExtras10Qt3DWindowC1EP7QScreenN10Qt3DRender3APIE@Base 6.2.1
 _ZN10Qt3DExtras10Qt3DWindowC2EP7QScreenN10Qt3DRender3APIE@Base 6.2.1
 _ZN10Qt3DExtras10Qt3DWindowD0Ev@Base 6.2.1
 _ZN10Qt3DExtras10Qt3DWindowD1Ev@Base 6.2.1
 _ZN10Qt3DExtras10Qt3DWindowD2Ev@Base 6.2.1
 _ZN10Qt3DExtras11QCuboidMesh10setXExtentEf@Base 6.2.1
 _ZN10Qt3DExtras11QCuboidMesh10setYExtentEf@Base 6.2.1
 _ZN10Qt3DExtras11QCuboidMesh10setZExtentEf@Base 6.2.1
 _ZN10Qt3DExtras11QCuboidMesh11qt_metacallEN11QMetaObject4CallEiPPv@Base 6.2.1
 _ZN10Qt3DExtras11QCuboidMesh11qt_metacastEPKc@Base 6.2.1
 _ZN10Qt3DExtras11QCuboidMesh14xExtentChangedEf@Base 6.2.1
 _ZN10Qt3DExtras11QCuboidMesh14yExtentChangedEf@Base 6.2.1
 _ZN10Qt3DExtras11QCuboidMesh14zExtentChangedEf@Base 6.2.1
 _ZN10Qt3DExtras11QCuboidMesh16staticMetaObjectE@Base 6.2.1
 _ZN10Qt3DExtras11QCuboidMesh19setXYMeshResolutionERK5QSize@Base 6.2.1
 _ZN10Qt3DExtras11QCuboidMesh19setXZMeshResolutionERK5QSize@Base 6.2.1
 _ZN10Qt3DExtras11QCuboidMesh19setYZMeshResolutionERK5QSize@Base 6.2.1
 _ZN10Qt3DExtras11QCuboidMesh23xyMeshResolutionChangedERK5QSize@Base 6.2.1
 _ZN10Qt3DExtras11QCuboidMesh23xzMeshResolutionChangedERK5QSize@Base 6.2.1
 _ZN10Qt3DExtras11QCuboidMesh23yzMeshResolutionChangedERK5QSize@Base 6.2.1
 _ZN10Qt3DExtras11QCuboidMeshC1EPN8Qt3DCore5QNodeE@Base 6.2.1
 _ZN10Qt3DExtras11QCuboidMeshC2EPN8Qt3DCore5QNodeE@Base 6.2.1
 _ZN10Qt3DExtras11QCuboidMeshD0Ev@Base 6.2.1
 _ZN10Qt3DExtras11QCuboidMeshD1Ev@Base 6.2.1
 _ZN10Qt3DExtras11QCuboidMeshD2Ev@Base 6.2.1
 _ZN10Qt3DExtras11QSphereMesh11qt_metacallEN11QMetaObject4CallEiPPv@Base 6.2.1
 _ZN10Qt3DExtras11QSphereMesh11qt_metacastEPKc@Base 6.2.1
 _ZN10Qt3DExtras11QSphereMesh12ringsChangedEi@Base 6.2.1
 _ZN10Qt3DExtras11QSphereMesh13radiusChangedEf@Base 6.2.1
 _ZN10Qt3DExtras11QSphereMesh13slicesChangedEi@Base 6.2.1
 _ZN10Qt3DExtras11QSphereMesh16staticMetaObjectE@Base 6.2.1
 _ZN10Qt3DExtras11QSphereMesh19setGenerateTangentsEb@Base 6.2.1
 _ZN10Qt3DExtras11QSphereMesh23generateTangentsChangedEb@Base 6.2.1
 _ZN10Qt3DExtras11QSphereMesh8setRingsEi@Base 6.2.1
 _ZN10Qt3DExtras11QSphereMesh9setRadiusEf@Base 6.2.1
 _ZN10Qt3DExtras11QSphereMesh9setSlicesEi@Base 6.2.1
 _ZN10Qt3DExtras11QSphereMeshC1EPN8Qt3DCore5QNodeE@Base 6.2.1
 _ZN10Qt3DExtras11QSphereMeshC2EPN8Qt3DCore5QNodeE@Base 6.2.1
 _ZN10Qt3DExtras11QSphereMeshD0Ev@Base 6.2.1
 _ZN10Qt3DExtras11QSphereMeshD1Ev@Base 6.2.1
 _ZN10Qt3DExtras11QSphereMeshD2Ev@Base 6.2.1
 _ZN10Qt3DExtras11QSpriteGrid10setColumnsEi@Base 6.2.1
 _ZN10Qt3DExtras11QSpriteGrid11qt_metacallEN11QMetaObject4CallEiPPv@Base 6.2.1
 _ZN10Qt3DExtras11QSpriteGrid11qt_metacastEPKc@Base 6.2.1
 _ZN10Qt3DExtras11QSpriteGrid11rowsChangedEi@Base 6.2.1
 _ZN10Qt3DExtras11QSpriteGrid14columnsChangedEi@Base 6.2.1
 _ZN10Qt3DExtras11QSpriteGrid16staticMetaObjectE@Base 6.2.1
 _ZN10Qt3DExtras11QSpriteGrid7setRowsEi@Base 6.2.1
 _ZN10Qt3DExtras11QSpriteGridC1EPN8Qt3DCore5QNodeE@Base 6.2.1
 _ZN10Qt3DExtras11QSpriteGridC2EPN8Qt3DCore5QNodeE@Base 6.2.1
 _ZN10Qt3DExtras11QSpriteGridD0Ev@Base 6.2.1
 _ZN10Qt3DExtras11QSpriteGridD1Ev@Base 6.2.1
 _ZN10Qt3DExtras11QSpriteGridD2Ev@Base 6.2.1
 _ZN10Qt3DExtras12QSpriteSheet10setSpritesE5QListIPNS_16QSpriteSheetItemEE@Base 6.2.1
 _ZN10Qt3DExtras12QSpriteSheet11qt_metacallEN11QMetaObject4CallEiPPv@Base 6.2.1
 _ZN10Qt3DExtras12QSpriteSheet11qt_metacastEPKc@Base 6.2.1
 _ZN10Qt3DExtras12QSpriteSheet12removeSpriteEPNS_16QSpriteSheetItemE@Base 6.2.1
 _ZN10Qt3DExtras12QSpriteSheet14spritesChangedE5QListIPNS_16QSpriteSheetItemEE@Base 6.2.1
 _ZN10Qt3DExtras12QSpriteSheet16staticMetaObjectE@Base 6.2.1
 _ZN10Qt3DExtras12QSpriteSheet9addSpriteEPNS_16QSpriteSheetItemE@Base 6.2.1
 _ZN10Qt3DExtras12QSpriteSheet9addSpriteEiiii@Base 6.2.1
 _ZN10Qt3DExtras12QSpriteSheetC1EPN8Qt3DCore5QNodeE@Base 6.2.1
 _ZN10Qt3DExtras12QSpriteSheetC2EPN8Qt3DCore5QNodeE@Base 6.2.1
 _ZN10Qt3DExtras12QSpriteSheetD0Ev@Base 6.2.1
 _ZN10Qt3DExtras12QSpriteSheetD1Ev@Base 6.2.1
 _ZN10Qt3DExtras12QSpriteSheetD2Ev@Base 6.2.1
 _ZN10Qt3DExtras13QConeGeometry11qt_metacallEN11QMetaObject4CallEiPPv@Base 6.2.1
 _ZN10Qt3DExtras13QConeGeometry11qt_metacastEPKc@Base 6.2.1
 _ZN10Qt3DExtras13QConeGeometry12ringsChangedEi@Base 6.2.1
 _ZN10Qt3DExtras13QConeGeometry12setTopRadiusEf@Base 6.2.1
 _ZN10Qt3DExtras13QConeGeometry13lengthChangedEf@Base 6.2.1
 _ZN10Qt3DExtras13QConeGeometry13slicesChangedEi@Base 6.2.1
 _ZN10Qt3DExtras13QConeGeometry13updateIndicesEv@Base 6.2.1
 _ZN10Qt3DExtras13QConeGeometry14updateVerticesEv@Base 6.2.1
 _ZN10Qt3DExtras13QConeGeometry15setBottomRadiusEf@Base 6.2.1
 _ZN10Qt3DExtras13QConeGeometry15setHasTopEndcapEb@Base 6.2.1
 _ZN10Qt3DExtras13QConeGeometry16staticMetaObjectE@Base 6.2.1
 _ZN10Qt3DExtras13QConeGeometry16topRadiusChangedEf@Base 6.2.1
 _ZN10Qt3DExtras13QConeGeometry18setHasBottomEndcapEb@Base 6.2.1
 _ZN10Qt3DExtras13QConeGeometry19bottomRadiusChangedEf@Base 6.2.1
 _ZN10Qt3DExtras13QConeGeometry19hasTopEndcapChangedEb@Base 6.2.1
 _ZN10Qt3DExtras13QConeGeometry22hasBottomEndcapChangedEb@Base 6.2.1
 _ZN10Qt3DExtras13QConeGeometry8setRingsEi@Base 6.2.1
 _ZN10Qt3DExtras13QConeGeometry9setLengthEf@Base 6.2.1
 _ZN10Qt3DExtras13QConeGeometry9setSlicesEi@Base 6.2.1
 _ZN10Qt3DExtras13QConeGeometryC1EPN8Qt3DCore5QNodeE@Base 6.2.1
 _ZN10Qt3DExtras13QConeGeometryC1ERNS_20QConeGeometryPrivateEPN8Qt3DCore5QNodeE@Base 6.2.1
 _ZN10Qt3DExtras13QConeGeometryC2EPN8Qt3DCore5QNodeE@Base 6.2.1
 _ZN10Qt3DExtras13QConeGeometryC2ERNS_20QConeGeometryPrivateEPN8Qt3DCore5QNodeE@Base 6.2.1
 _ZN10Qt3DExtras13QConeGeometryD0Ev@Base 6.2.1
 _ZN10Qt3DExtras13QConeGeometryD1Ev@Base 6.2.1
 _ZN10Qt3DExtras13QConeGeometryD2Ev@Base 6.2.1
 _ZN10Qt3DExtras13QCylinderMesh11qt_metacallEN11QMetaObject4CallEiPPv@Base 6.2.1
 _ZN10Qt3DExtras13QCylinderMesh11qt_metacastEPKc@Base 6.2.1
 _ZN10Qt3DExtras13QCylinderMesh12ringsChangedEi@Base 6.2.1
 _ZN10Qt3DExtras13QCylinderMesh13lengthChangedEf@Base 6.2.1
 _ZN10Qt3DExtras13QCylinderMesh13radiusChangedEf@Base 6.2.1
 _ZN10Qt3DExtras13QCylinderMesh13slicesChangedEi@Base 6.2.1
 _ZN10Qt3DExtras13QCylinderMesh16staticMetaObjectE@Base 6.2.1
 _ZN10Qt3DExtras13QCylinderMesh8setRingsEi@Base 6.2.1
 _ZN10Qt3DExtras13QCylinderMesh9setLengthEf@Base 6.2.1
 _ZN10Qt3DExtras13QCylinderMesh9setRadiusEf@Base 6.2.1
 _ZN10Qt3DExtras13QCylinderMesh9setSlicesEi@Base 6.2.1
 _ZN10Qt3DExtras13QCylinderMeshC1EPN8Qt3DCore5QNodeE@Base 6.2.1
 _ZN10Qt3DExtras13QCylinderMeshC2EPN8Qt3DCore5QNodeE@Base 6.2.1
 _ZN10Qt3DExtras13QCylinderMeshD0Ev@Base 6.2.1
 _ZN10Qt3DExtras13QCylinderMeshD1Ev@Base 6.2.1
 _ZN10Qt3DExtras13QCylinderMeshD2Ev@Base 6.2.1
 _ZN10Qt3DExtras13QSkyboxEntity11qt_metacallEN11QMetaObject4CallEiPPv@Base 6.2.1
 _ZN10Qt3DExtras13QSkyboxEntity11qt_metacastEPKc@Base 6.2.1
 _ZN10Qt3DExtras13QSkyboxEntity11setBaseNameERK7QString@Base 6.2.1
 _ZN10Qt3DExtras13QSkyboxEntity12setExtensionERK7QString@Base 6.2.1
 _ZN10Qt3DExtras13QSkyboxEntity15baseNameChangedERK7QString@Base 6.2.1
 _ZN10Qt3DExtras13QSkyboxEntity16extensionChangedERK7QString@Base 6.2.1
 _ZN10Qt3DExtras13QSkyboxEntity16staticMetaObjectE@Base 6.2.1
 _ZN10Qt3DExtras13QSkyboxEntity22setGammaCorrectEnabledEb@Base 6.2.1
 _ZN10Qt3DExtras13QSkyboxEntity26gammaCorrectEnabledChangedEb@Base 6.2.1
 _ZN10Qt3DExtras13QSkyboxEntityC1EPN8Qt3DCore5QNodeE@Base 6.2.1
 _ZN10Qt3DExtras13QSkyboxEntityC2EPN8Qt3DCore5QNodeE@Base 6.2.1
 _ZN10Qt3DExtras13QSkyboxEntityD0Ev@Base 6.2.1
 _ZN10Qt3DExtras13QSkyboxEntityD1Ev@Base 6.2.1
 _ZN10Qt3DExtras13QSkyboxEntityD2Ev@Base 6.2.1
 _ZN10Qt3DExtras13QText2DEntity11fontChangedERK5QFont@Base 6.2.1
 _ZN10Qt3DExtras13QText2DEntity11qt_metacallEN11QMetaObject4CallEiPPv@Base 6.2.1
 _ZN10Qt3DExtras13QText2DEntity11qt_metacastEPKc@Base 6.2.1
 _ZN10Qt3DExtras13QText2DEntity11textChangedERK7QString@Base 6.2.1
 _ZN10Qt3DExtras13QText2DEntity12colorChangedERK6QColor@Base 6.2.1
 _ZN10Qt3DExtras13QText2DEntity12widthChangedEf@Base 6.2.1
 _ZN10Qt3DExtras13QText2DEntity13heightChangedEf@Base 6.2.1
 _ZN10Qt3DExtras13QText2DEntity16staticMetaObjectE@Base 6.2.1
 _ZN10Qt3DExtras13QText2DEntity7setFontERK5QFont@Base 6.2.1
 _ZN10Qt3DExtras13QText2DEntity7setTextERK7QString@Base 6.2.1
 _ZN10Qt3DExtras13QText2DEntity8setColorERK6QColor@Base 6.2.1
 _ZN10Qt3DExtras13QText2DEntity8setWidthEf@Base 6.2.1
 _ZN10Qt3DExtras13QText2DEntity9setHeightEf@Base 6.2.1
 _ZN10Qt3DExtras13QText2DEntityC1EPN8Qt3DCore5QNodeE@Base 6.2.1
 _ZN10Qt3DExtras13QText2DEntityC2EPN8Qt3DCore5QNodeE@Base 6.2.1
 _ZN10Qt3DExtras13QText2DEntityD0Ev@Base 6.2.1
 _ZN10Qt3DExtras13QText2DEntityD1Ev@Base 6.2.1
 _ZN10Qt3DExtras13QText2DEntityD2Ev@Base 6.2.1
 _ZN10Qt3DExtras14QGoochMaterial10setDiffuseERK6QColor@Base 6.2.1
 _ZN10Qt3DExtras14QGoochMaterial11betaChangedEf@Base 6.2.1
 _ZN10Qt3DExtras14QGoochMaterial11coolChangedERK6QColor@Base 6.2.1
 _ZN10Qt3DExtras14QGoochMaterial11qt_metacallEN11QMetaObject4CallEiPPv@Base 6.2.1
 _ZN10Qt3DExtras14QGoochMaterial11qt_metacastEPKc@Base 6.2.1
 _ZN10Qt3DExtras14QGoochMaterial11setSpecularERK6QColor@Base 6.2.1
 _ZN10Qt3DExtras14QGoochMaterial11warmChangedERK6QColor@Base 6.2.1
 _ZN10Qt3DExtras14QGoochMaterial12alphaChangedEf@Base 6.2.1
 _ZN10Qt3DExtras14QGoochMaterial12setShininessEf@Base 6.2.1
 _ZN10Qt3DExtras14QGoochMaterial14diffuseChangedERK6QColor@Base 6.2.1
 _ZN10Qt3DExtras14QGoochMaterial15specularChangedERK6QColor@Base 6.2.1
 _ZN10Qt3DExtras14QGoochMaterial16shininessChangedEf@Base 6.2.1
 _ZN10Qt3DExtras14QGoochMaterial16staticMetaObjectE@Base 6.2.1
 _ZN10Qt3DExtras14QGoochMaterial7setBetaEf@Base 6.2.1
 _ZN10Qt3DExtras14QGoochMaterial7setCoolERK6QColor@Base 6.2.1
 _ZN10Qt3DExtras14QGoochMaterial7setWarmERK6QColor@Base 6.2.1
 _ZN10Qt3DExtras14QGoochMaterial8setAlphaEf@Base 6.2.1
 _ZN10Qt3DExtras14QGoochMaterialC1EPN8Qt3DCore5QNodeE@Base 6.2.1
 _ZN10Qt3DExtras14QGoochMaterialC1ERNS_21QGoochMaterialPrivateEPN8Qt3DCore5QNodeE@Base 6.2.1
 _ZN10Qt3DExtras14QGoochMaterialC2EPN8Qt3DCore5QNodeE@Base 6.2.1
 _ZN10Qt3DExtras14QGoochMaterialC2ERNS_21QGoochMaterialPrivateEPN8Qt3DCore5QNodeE@Base 6.2.1
 _ZN10Qt3DExtras14QGoochMaterialD0Ev@Base 6.2.1
 _ZN10Qt3DExtras14QGoochMaterialD1Ev@Base 6.2.1
 _ZN10Qt3DExtras14QGoochMaterialD2Ev@Base 6.2.1
 _ZN10Qt3DExtras14QPhongMaterial10setAmbientERK6QColor@Base 6.2.1
 _ZN10Qt3DExtras14QPhongMaterial10setDiffuseERK6QColor@Base 6.2.1
 _ZN10Qt3DExtras14QPhongMaterial11qt_metacallEN11QMetaObject4CallEiPPv@Base 6.2.1
 _ZN10Qt3DExtras14QPhongMaterial11qt_metacastEPKc@Base 6.2.1
 _ZN10Qt3DExtras14QPhongMaterial11setSpecularERK6QColor@Base 6.2.1
 _ZN10Qt3DExtras14QPhongMaterial12setShininessEf@Base 6.2.1
 _ZN10Qt3DExtras14QPhongMaterial14ambientChangedERK6QColor@Base 6.2.1
 _ZN10Qt3DExtras14QPhongMaterial14diffuseChangedERK6QColor@Base 6.2.1
 _ZN10Qt3DExtras14QPhongMaterial15specularChangedERK6QColor@Base 6.2.1
 _ZN10Qt3DExtras14QPhongMaterial16shininessChangedEf@Base 6.2.1
 _ZN10Qt3DExtras14QPhongMaterial16staticMetaObjectE@Base 6.2.1
 _ZN10Qt3DExtras14QPhongMaterialC1EPN8Qt3DCore5QNodeE@Base 6.2.1
 _ZN10Qt3DExtras14QPhongMaterialC2EPN8Qt3DCore5QNodeE@Base 6.2.1
 _ZN10Qt3DExtras14QPhongMaterialD0Ev@Base 6.2.1
 _ZN10Qt3DExtras14QPhongMaterialD1Ev@Base 6.2.1
 _ZN10Qt3DExtras14QPhongMaterialD2Ev@Base 6.2.1
 _ZN10Qt3DExtras14QPlaneGeometry11qt_metacallEN11QMetaObject4CallEiPPv@Base 6.2.1
 _ZN10Qt3DExtras14QPlaneGeometry11qt_metacastEPKc@Base 6.2.1
 _ZN10Qt3DExtras14QPlaneGeometry11setMirroredEb@Base 6.2.1
 _ZN10Qt3DExtras14QPlaneGeometry12widthChangedEf@Base 6.2.1
 _ZN10Qt3DExtras14QPlaneGeometry13heightChangedEf@Base 6.2.1
 _ZN10Qt3DExtras14QPlaneGeometry13setResolutionERK5QSize@Base 6.2.1
 _ZN10Qt3DExtras14QPlaneGeometry13updateIndicesEv@Base 6.2.1
 _ZN10Qt3DExtras14QPlaneGeometry14updateVerticesEv@Base 6.2.1
 _ZN10Qt3DExtras14QPlaneGeometry15mirroredChangedEb@Base 6.2.1
 _ZN10Qt3DExtras14QPlaneGeometry16staticMetaObjectE@Base 6.2.1
 _ZN10Qt3DExtras14QPlaneGeometry17resolutionChangedERK5QSize@Base 6.2.1
 _ZN10Qt3DExtras14QPlaneGeometry8setWidthEf@Base 6.2.1
 _ZN10Qt3DExtras14QPlaneGeometry9setHeightEf@Base 6.2.1
 _ZN10Qt3DExtras14QPlaneGeometryC1EPN8Qt3DCore5QNodeE@Base 6.2.1
 _ZN10Qt3DExtras14QPlaneGeometryC1ERNS_21QPlaneGeometryPrivateEPN8Qt3DCore5QNodeE@Base 6.2.1
 _ZN10Qt3DExtras14QPlaneGeometryC2EPN8Qt3DCore5QNodeE@Base 6.2.1
 _ZN10Qt3DExtras14QPlaneGeometryC2ERNS_21QPlaneGeometryPrivateEPN8Qt3DCore5QNodeE@Base 6.2.1
 _ZN10Qt3DExtras14QPlaneGeometryD0Ev@Base 6.2.1
 _ZN10Qt3DExtras14QPlaneGeometryD1Ev@Base 6.2.1
 _ZN10Qt3DExtras14QPlaneGeometryD2Ev@Base 6.2.1
 _ZN10Qt3DExtras14QTorusGeometry11qt_metacallEN11QMetaObject4CallEiPPv@Base 6.2.1
 _ZN10Qt3DExtras14QTorusGeometry11qt_metacastEPKc@Base 6.2.1
 _ZN10Qt3DExtras14QTorusGeometry12ringsChangedEi@Base 6.2.1
 _ZN10Qt3DExtras14QTorusGeometry13radiusChangedEf@Base 6.2.1
 _ZN10Qt3DExtras14QTorusGeometry13slicesChangedEi@Base 6.2.1
 _ZN10Qt3DExtras14QTorusGeometry13updateIndicesEv@Base 6.2.1
 _ZN10Qt3DExtras14QTorusGeometry14setMinorRadiusEf@Base 6.2.1
 _ZN10Qt3DExtras14QTorusGeometry14updateVerticesEv@Base 6.2.1
 _ZN10Qt3DExtras14QTorusGeometry16staticMetaObjectE@Base 6.2.1
 _ZN10Qt3DExtras14QTorusGeometry18minorRadiusChangedEf@Base 6.2.1
 _ZN10Qt3DExtras14QTorusGeometry8setRingsEi@Base 6.2.1
 _ZN10Qt3DExtras14QTorusGeometry9setRadiusEf@Base 6.2.1
 _ZN10Qt3DExtras14QTorusGeometry9setSlicesEi@Base 6.2.1
 _ZN10Qt3DExtras14QTorusGeometryC1EPN8Qt3DCore5QNodeE@Base 6.2.1
 _ZN10Qt3DExtras14QTorusGeometryC1ERNS_21QTorusGeometryPrivateEPN8Qt3DCore5QNodeE@Base 6.2.1
 _ZN10Qt3DExtras14QTorusGeometryC2EPN8Qt3DCore5QNodeE@Base 6.2.1
 _ZN10Qt3DExtras14QTorusGeometryC2ERNS_21QTorusGeometryPrivateEPN8Qt3DCore5QNodeE@Base 6.2.1
 _ZN10Qt3DExtras14QTorusGeometryD0Ev@Base 6.2.1
 _ZN10Qt3DExtras14QTorusGeometryD1Ev@Base 6.2.1
 _ZN10Qt3DExtras14QTorusGeometryD2Ev@Base 6.2.1
 _ZN10Qt3DExtras15QCuboidGeometry10setXExtentEf@Base 6.2.1
 _ZN10Qt3DExtras15QCuboidGeometry10setYExtentEf@Base 6.2.1
 _ZN10Qt3DExtras15QCuboidGeometry10setZExtentEf@Base 6.2.1
 _ZN10Qt3DExtras15QCuboidGeometry11qt_metacallEN11QMetaObject4CallEiPPv@Base 6.2.1
 _ZN10Qt3DExtras15QCuboidGeometry11qt_metacastEPKc@Base 6.2.1
 _ZN10Qt3DExtras15QCuboidGeometry13updateIndicesEv@Base 6.2.1
 _ZN10Qt3DExtras15QCuboidGeometry14updateVerticesEv@Base 6.2.1
 _ZN10Qt3DExtras15QCuboidGeometry14xExtentChangedEf@Base 6.2.1
 _ZN10Qt3DExtras15QCuboidGeometry14yExtentChangedEf@Base 6.2.1
 _ZN10Qt3DExtras15QCuboidGeometry14zExtentChangedEf@Base 6.2.1
 _ZN10Qt3DExtras15QCuboidGeometry16staticMetaObjectE@Base 6.2.1
 _ZN10Qt3DExtras15QCuboidGeometry19setXYMeshResolutionERK5QSize@Base 6.2.1
 _ZN10Qt3DExtras15QCuboidGeometry19setXZMeshResolutionERK5QSize@Base 6.2.1
 _ZN10Qt3DExtras15QCuboidGeometry19setYZMeshResolutionERK5QSize@Base 6.2.1
 _ZN10Qt3DExtras15QCuboidGeometry23xyMeshResolutionChangedERK5QSize@Base 6.2.1
 _ZN10Qt3DExtras15QCuboidGeometry23xzMeshResolutionChangedERK5QSize@Base 6.2.1
 _ZN10Qt3DExtras15QCuboidGeometry23yzMeshResolutionChangedERK5QSize@Base 6.2.1
 _ZN10Qt3DExtras15QCuboidGeometryC1EPN8Qt3DCore5QNodeE@Base 6.2.1
 _ZN10Qt3DExtras15QCuboidGeometryC1ERNS_22QCuboidGeometryPrivateEPN8Qt3DCore5QNodeE@Base 6.2.1
 _ZN10Qt3DExtras15QCuboidGeometryC2EPN8Qt3DCore5QNodeE@Base 6.2.1
 _ZN10Qt3DExtras15QCuboidGeometryC2ERNS_22QCuboidGeometryPrivateEPN8Qt3DCore5QNodeE@Base 6.2.1
 _ZN10Qt3DExtras15QCuboidGeometryD0Ev@Base 6.2.1
 _ZN10Qt3DExtras15QCuboidGeometryD1Ev@Base 6.2.1
 _ZN10Qt3DExtras15QCuboidGeometryD2Ev@Base 6.2.1
 _ZN10Qt3DExtras15QSphereGeometry11qt_metacallEN11QMetaObject4CallEiPPv@Base 6.2.1
 _ZN10Qt3DExtras15QSphereGeometry11qt_metacastEPKc@Base 6.2.1
 _ZN10Qt3DExtras15QSphereGeometry12ringsChangedEi@Base 6.2.1
 _ZN10Qt3DExtras15QSphereGeometry13radiusChangedEf@Base 6.2.1
 _ZN10Qt3DExtras15QSphereGeometry13slicesChangedEi@Base 6.2.1
 _ZN10Qt3DExtras15QSphereGeometry13updateIndicesEv@Base 6.2.1
 _ZN10Qt3DExtras15QSphereGeometry14updateVerticesEv@Base 6.2.1
 _ZN10Qt3DExtras15QSphereGeometry16staticMetaObjectE@Base 6.2.1
 _ZN10Qt3DExtras15QSphereGeometry19setGenerateTangentsEb@Base 6.2.1
 _ZN10Qt3DExtras15QSphereGeometry23generateTangentsChangedEb@Base 6.2.1
 _ZN10Qt3DExtras15QSphereGeometry8setRingsEi@Base 6.2.1
 _ZN10Qt3DExtras15QSphereGeometry9setRadiusEf@Base 6.2.1
 _ZN10Qt3DExtras15QSphereGeometry9setSlicesEi@Base 6.2.1
 _ZN10Qt3DExtras15QSphereGeometryC1EPN8Qt3DCore5QNodeE@Base 6.2.1
 _ZN10Qt3DExtras15QSphereGeometryC1ERNS_22QSphereGeometryPrivateEPN8Qt3DCore5QNodeE@Base 6.2.1
 _ZN10Qt3DExtras15QSphereGeometryC2EPN8Qt3DCore5QNodeE@Base 6.2.1
 _ZN10Qt3DExtras15QSphereGeometryC2ERNS_22QSphereGeometryPrivateEPN8Qt3DCore5QNodeE@Base 6.2.1
 _ZN10Qt3DExtras15QSphereGeometryD0Ev@Base 6.2.1
 _ZN10Qt3DExtras15QSphereGeometryD1Ev@Base 6.2.1
 _ZN10Qt3DExtras15QSphereGeometryD2Ev@Base 6.2.1
 _ZN10Qt3DExtras16QForwardRenderer10setSurfaceEP7QObject@Base 6.2.1
 _ZN10Qt3DExtras16QForwardRenderer11qt_metacallEN11QMetaObject4CallEiPPv@Base 6.2.1
 _ZN10Qt3DExtras16QForwardRenderer11qt_metacastEPKc@Base 6.2.1
 _ZN10Qt3DExtras16QForwardRenderer12gammaChangedEf@Base 6.2.1
 _ZN10Qt3DExtras16QForwardRenderer13cameraChangedEPN8Qt3DCore7QEntityE@Base 6.2.1
 _ZN10Qt3DExtras16QForwardRenderer13setClearColorERK6QColor@Base 6.2.1
 _ZN10Qt3DExtras16QForwardRenderer14surfaceChangedEP7QObject@Base 6.2.1
 _ZN10Qt3DExtras16QForwardRenderer15setViewportRectERK6QRectF@Base 6.2.1
 _ZN10Qt3DExtras16QForwardRenderer16staticMetaObjectE@Base 6.2.1
 _ZN10Qt3DExtras16QForwardRenderer17clearColorChangedERK6QColor@Base 6.2.1
 _ZN10Qt3DExtras16QForwardRenderer17setBuffersToClearEN10Qt3DRender13QClearBuffers10BufferTypeE@Base 6.2.1
 _ZN10Qt3DExtras16QForwardRenderer19setShowDebugOverlayEb@Base 6.2.1
 _ZN10Qt3DExtras16QForwardRenderer19viewportRectChangedERK6QRectF@Base 6.2.1
 _ZN10Qt3DExtras16QForwardRenderer21buffersToClearChangedEN10Qt3DRender13QClearBuffers10BufferTypeE@Base 6.2.1
 _ZN10Qt3DExtras16QForwardRenderer23showDebugOverlayChangedEb@Base 6.2.1
 _ZN10Qt3DExtras16QForwardRenderer24setFrustumCullingEnabledEb@Base 6.2.1
 _ZN10Qt3DExtras16QForwardRenderer27setExternalRenderTargetSizeERK5QSize@Base 6.2.1
 _ZN10Qt3DExtras16QForwardRenderer28frustumCullingEnabledChangedEb@Base 6.2.1
 _ZN10Qt3DExtras16QForwardRenderer31externalRenderTargetSizeChangedERK5QSize@Base 6.2.1
 _ZN10Qt3DExtras16QForwardRenderer8setGammaEf@Base 6.2.1
 _ZN10Qt3DExtras16QForwardRenderer9setCameraEPN8Qt3DCore7QEntityE@Base 6.2.1
 _ZN10Qt3DExtras16QForwardRendererC1EPN8Qt3DCore5QNodeE@Base 6.2.1
 _ZN10Qt3DExtras16QForwardRendererC2EPN8Qt3DCore5QNodeE@Base 6.2.1
 _ZN10Qt3DExtras16QForwardRendererD0Ev@Base 6.2.1
 _ZN10Qt3DExtras16QForwardRendererD1Ev@Base 6.2.1
 _ZN10Qt3DExtras16QForwardRendererD2Ev@Base 6.2.1
 _ZN10Qt3DExtras16QSpriteSheetItem11qt_metacallEN11QMetaObject4CallEiPPv@Base 6.2.1
 _ZN10Qt3DExtras16QSpriteSheetItem11qt_metacastEPKc@Base 6.2.1
 _ZN10Qt3DExtras16QSpriteSheetItem12widthChangedEi@Base 6.2.1
 _ZN10Qt3DExtras16QSpriteSheetItem13heightChangedEi@Base 6.2.1
 _ZN10Qt3DExtras16QSpriteSheetItem16staticMetaObjectE@Base 6.2.1
 _ZN10Qt3DExtras16QSpriteSheetItem4setXEi@Base 6.2.1
 _ZN10Qt3DExtras16QSpriteSheetItem4setYEi@Base 6.2.1
 _ZN10Qt3DExtras16QSpriteSheetItem8setWidthEi@Base 6.2.1
 _ZN10Qt3DExtras16QSpriteSheetItem8xChangedEi@Base 6.2.1
 _ZN10Qt3DExtras16QSpriteSheetItem8yChangedEi@Base 6.2.1
 _ZN10Qt3DExtras16QSpriteSheetItem9setHeightEi@Base 6.2.1
 _ZN10Qt3DExtras16QSpriteSheetItemC1EPN8Qt3DCore5QNodeE@Base 6.2.1
 _ZN10Qt3DExtras16QSpriteSheetItemC2EPN8Qt3DCore5QNodeE@Base 6.2.1
 _ZN10Qt3DExtras16QTextureMaterial10setTextureEPN10Qt3DRender16QAbstractTextureE@Base 6.2.1
 _ZN10Qt3DExtras16QTextureMaterial11qt_metacallEN11QMetaObject4CallEiPPv@Base 6.2.1
 _ZN10Qt3DExtras16QTextureMaterial11qt_metacastEPKc@Base 6.2.1
 _ZN10Qt3DExtras16QTextureMaterial14textureChangedEPN10Qt3DRender16QAbstractTextureE@Base 6.2.1
 _ZN10Qt3DExtras16QTextureMaterial16setTextureOffsetE9QVector2D@Base 6.2.1
 _ZN10Qt3DExtras16QTextureMaterial16staticMetaObjectE@Base 6.2.1
 _ZN10Qt3DExtras16QTextureMaterial19setTextureTransformERK14QGenericMatrixILi3ELi3EfE@Base 6.2.1
 _ZN10Qt3DExtras16QTextureMaterial20textureOffsetChangedE9QVector2D@Base 6.2.1
 _ZN10Qt3DExtras16QTextureMaterial23setAlphaBlendingEnabledEb@Base 6.2.1
 _ZN10Qt3DExtras16QTextureMaterial23textureTransformChangedERK14QGenericMatrixILi3ELi3EfE@Base 6.2.1
 _ZN10Qt3DExtras16QTextureMaterial27alphaBlendingEnabledChangedEb@Base 6.2.1
 _ZN10Qt3DExtras16QTextureMaterialC1EPN8Qt3DCore5QNodeE@Base 6.2.1
 _ZN10Qt3DExtras16QTextureMaterialC2EPN8Qt3DCore5QNodeE@Base 6.2.1
 _ZN10Qt3DExtras16QTextureMaterialD0Ev@Base 6.2.1
 _ZN10Qt3DExtras16QTextureMaterialD1Ev@Base 6.2.1
 _ZN10Qt3DExtras16QTextureMaterialD2Ev@Base 6.2.1
 _ZN10Qt3DExtras17QConeGeometryView11qt_metacallEN11QMetaObject4CallEiPPv@Base 6.2.1
 _ZN10Qt3DExtras17QConeGeometryView11qt_metacastEPKc@Base 6.2.1
 _ZN10Qt3DExtras17QConeGeometryView12ringsChangedEi@Base 6.2.1
 _ZN10Qt3DExtras17QConeGeometryView12setTopRadiusEf@Base 6.2.1
 _ZN10Qt3DExtras17QConeGeometryView13lengthChangedEf@Base 6.2.1
 _ZN10Qt3DExtras17QConeGeometryView13slicesChangedEi@Base 6.2.1
 _ZN10Qt3DExtras17QConeGeometryView15setBottomRadiusEf@Base 6.2.1
 _ZN10Qt3DExtras17QConeGeometryView15setHasTopEndcapEb@Base 6.2.1
 _ZN10Qt3DExtras17QConeGeometryView16staticMetaObjectE@Base 6.2.1
 _ZN10Qt3DExtras17QConeGeometryView16topRadiusChangedEf@Base 6.2.1
 _ZN10Qt3DExtras17QConeGeometryView18setHasBottomEndcapEb@Base 6.2.1
 _ZN10Qt3DExtras17QConeGeometryView19bottomRadiusChangedEf@Base 6.2.1
 _ZN10Qt3DExtras17QConeGeometryView19hasTopEndcapChangedEb@Base 6.2.1
 _ZN10Qt3DExtras17QConeGeometryView22hasBottomEndcapChangedEb@Base 6.2.1
 _ZN10Qt3DExtras17QConeGeometryView8setRingsEi@Base 6.2.1
 _ZN10Qt3DExtras17QConeGeometryView9setLengthEf@Base 6.2.1
 _ZN10Qt3DExtras17QConeGeometryView9setSlicesEi@Base 6.2.1
 _ZN10Qt3DExtras17QConeGeometryViewC1EPN8Qt3DCore5QNodeE@Base 6.2.1
 _ZN10Qt3DExtras17QConeGeometryViewC2EPN8Qt3DCore5QNodeE@Base 6.2.1
 _ZN10Qt3DExtras17QConeGeometryViewD0Ev@Base 6.2.1
 _ZN10Qt3DExtras17QConeGeometryViewD1Ev@Base 6.2.1
 _ZN10Qt3DExtras17QConeGeometryViewD2Ev@Base 6.2.1
 _ZN10Qt3DExtras17QCylinderGeometry11qt_metacallEN11QMetaObject4CallEiPPv@Base 6.2.1
 _ZN10Qt3DExtras17QCylinderGeometry11qt_metacastEPKc@Base 6.2.1
 _ZN10Qt3DExtras17QCylinderGeometry12ringsChangedEi@Base 6.2.1
 _ZN10Qt3DExtras17QCylinderGeometry13lengthChangedEf@Base 6.2.1
 _ZN10Qt3DExtras17QCylinderGeometry13radiusChangedEf@Base 6.2.1
 _ZN10Qt3DExtras17QCylinderGeometry13slicesChangedEi@Base 6.2.1
 _ZN10Qt3DExtras17QCylinderGeometry13updateIndicesEv@Base 6.2.1
 _ZN10Qt3DExtras17QCylinderGeometry14updateVerticesEv@Base 6.2.1
 _ZN10Qt3DExtras17QCylinderGeometry16staticMetaObjectE@Base 6.2.1
 _ZN10Qt3DExtras17QCylinderGeometry8setRingsEi@Base 6.2.1
 _ZN10Qt3DExtras17QCylinderGeometry9setLengthEf@Base 6.2.1
 _ZN10Qt3DExtras17QCylinderGeometry9setRadiusEf@Base 6.2.1
 _ZN10Qt3DExtras17QCylinderGeometry9setSlicesEi@Base 6.2.1
 _ZN10Qt3DExtras17QCylinderGeometryC1EPN8Qt3DCore5QNodeE@Base 6.2.1
 _ZN10Qt3DExtras17QCylinderGeometryC1ERNS_24QCylinderGeometryPrivateEPN8Qt3DCore5QNodeE@Base 6.2.1
 _ZN10Qt3DExtras17QCylinderGeometryC2EPN8Qt3DCore5QNodeE@Base 6.2.1
 _ZN10Qt3DExtras17QCylinderGeometryC2ERNS_24QCylinderGeometryPrivateEPN8Qt3DCore5QNodeE@Base 6.2.1
 _ZN10Qt3DExtras17QCylinderGeometryD0Ev@Base 6.2.1
 _ZN10Qt3DExtras17QCylinderGeometryD1Ev@Base 6.2.1
 _ZN10Qt3DExtras17QCylinderGeometryD2Ev@Base 6.2.1
 _ZN10Qt3DExtras17QExtrudedTextMesh11fontChangedERK5QFont@Base 6.2.1
 _ZN10Qt3DExtras17QExtrudedTextMesh11qt_metacallEN11QMetaObject4CallEiPPv@Base 6.2.1
 _ZN10Qt3DExtras17QExtrudedTextMesh11qt_metacastEPKc@Base 6.2.1
 _ZN10Qt3DExtras17QExtrudedTextMesh11textChangedERK7QString@Base 6.2.1
 _ZN10Qt3DExtras17QExtrudedTextMesh12depthChangedEf@Base 6.2.1
 _ZN10Qt3DExtras17QExtrudedTextMesh16staticMetaObjectE@Base 6.2.1
 _ZN10Qt3DExtras17QExtrudedTextMesh7setFontERK5QFont@Base 6.2.1
 _ZN10Qt3DExtras17QExtrudedTextMesh7setTextERK7QString@Base 6.2.1
 _ZN10Qt3DExtras17QExtrudedTextMesh8setDepthEf@Base 6.2.1
 _ZN10Qt3DExtras17QExtrudedTextMeshC1EPN8Qt3DCore5QNodeE@Base 6.2.1
 _ZN10Qt3DExtras17QExtrudedTextMeshC2EPN8Qt3DCore5QNodeE@Base 6.2.1
 _ZN10Qt3DExtras17QExtrudedTextMeshD0Ev@Base 6.2.1
 _ZN10Qt3DExtras17QExtrudedTextMeshD1Ev@Base 6.2.1
 _ZN10Qt3DExtras17QExtrudedTextMeshD2Ev@Base 6.2.1
 _ZN10Qt3DExtras18QPlaneGeometryView11qt_metacallEN11QMetaObject4CallEiPPv@Base 6.2.1
 _ZN10Qt3DExtras18QPlaneGeometryView11qt_metacastEPKc@Base 6.2.1
 _ZN10Qt3DExtras18QPlaneGeometryView11setMirroredEb@Base 6.2.1
 _ZN10Qt3DExtras18QPlaneGeometryView12widthChangedEf@Base 6.2.1
 _ZN10Qt3DExtras18QPlaneGeometryView13heightChangedEf@Base 6.2.1
 _ZN10Qt3DExtras18QPlaneGeometryView15mirroredChangedEb@Base 6.2.1
 _ZN10Qt3DExtras18QPlaneGeometryView16staticMetaObjectE@Base 6.2.1
 _ZN10Qt3DExtras18QPlaneGeometryView17setMeshResolutionERK5QSize@Base 6.2.1
 _ZN10Qt3DExtras18QPlaneGeometryView21meshResolutionChangedERK5QSize@Base 6.2.1
 _ZN10Qt3DExtras18QPlaneGeometryView8setWidthEf@Base 6.2.1
 _ZN10Qt3DExtras18QPlaneGeometryView9setHeightEf@Base 6.2.1
 _ZN10Qt3DExtras18QPlaneGeometryViewC1EPN8Qt3DCore5QNodeE@Base 6.2.1
 _ZN10Qt3DExtras18QPlaneGeometryViewC2EPN8Qt3DCore5QNodeE@Base 6.2.1
 _ZN10Qt3DExtras18QPlaneGeometryViewD0Ev@Base 6.2.1
 _ZN10Qt3DExtras18QPlaneGeometryViewD1Ev@Base 6.2.1
 _ZN10Qt3DExtras18QPlaneGeometryViewD2Ev@Base 6.2.1
 _ZN10Qt3DExtras18QTorusGeometryView11qt_metacallEN11QMetaObject4CallEiPPv@Base 6.2.1
 _ZN10Qt3DExtras18QTorusGeometryView11qt_metacastEPKc@Base 6.2.1
 _ZN10Qt3DExtras18QTorusGeometryView12ringsChangedEi@Base 6.2.1
 _ZN10Qt3DExtras18QTorusGeometryView13radiusChangedEf@Base 6.2.1
 _ZN10Qt3DExtras18QTorusGeometryView13slicesChangedEi@Base 6.2.1
 _ZN10Qt3DExtras18QTorusGeometryView14setMinorRadiusEf@Base 6.2.1
 _ZN10Qt3DExtras18QTorusGeometryView16staticMetaObjectE@Base 6.2.1
 _ZN10Qt3DExtras18QTorusGeometryView18minorRadiusChangedEf@Base 6.2.1
 _ZN10Qt3DExtras18QTorusGeometryView8setRingsEi@Base 6.2.1
 _ZN10Qt3DExtras18QTorusGeometryView9setRadiusEf@Base 6.2.1
 _ZN10Qt3DExtras18QTorusGeometryView9setSlicesEi@Base 6.2.1
 _ZN10Qt3DExtras18QTorusGeometryViewC1EPN8Qt3DCore5QNodeE@Base 6.2.1
 _ZN10Qt3DExtras18QTorusGeometryViewC2EPN8Qt3DCore5QNodeE@Base 6.2.1
 _ZN10Qt3DExtras18QTorusGeometryViewD0Ev@Base 6.2.1
 _ZN10Qt3DExtras18QTorusGeometryViewD1Ev@Base 6.2.1
 _ZN10Qt3DExtras18QTorusGeometryViewD2Ev@Base 6.2.1
 _ZN10Qt3DExtras18setupWindowSurfaceEP7QWindowN10Qt3DRender3APIE@Base 6.2.1
 _ZN10Qt3DExtras19QCuboidGeometryView10setXExtentEf@Base 6.2.1
 _ZN10Qt3DExtras19QCuboidGeometryView10setYExtentEf@Base 6.2.1
 _ZN10Qt3DExtras19QCuboidGeometryView10setZExtentEf@Base 6.2.1
 _ZN10Qt3DExtras19QCuboidGeometryView11qt_metacallEN11QMetaObject4CallEiPPv@Base 6.2.1
 _ZN10Qt3DExtras19QCuboidGeometryView11qt_metacastEPKc@Base 6.2.1
 _ZN10Qt3DExtras19QCuboidGeometryView14xExtentChangedEf@Base 6.2.1
 _ZN10Qt3DExtras19QCuboidGeometryView14yExtentChangedEf@Base 6.2.1
 _ZN10Qt3DExtras19QCuboidGeometryView14zExtentChangedEf@Base 6.2.1
 _ZN10Qt3DExtras19QCuboidGeometryView16staticMetaObjectE@Base 6.2.1
 _ZN10Qt3DExtras19QCuboidGeometryView19setXYMeshResolutionERK5QSize@Base 6.2.1
 _ZN10Qt3DExtras19QCuboidGeometryView19setXZMeshResolutionERK5QSize@Base 6.2.1
 _ZN10Qt3DExtras19QCuboidGeometryView19setYZMeshResolutionERK5QSize@Base 6.2.1
 _ZN10Qt3DExtras19QCuboidGeometryView23xyMeshResolutionChangedERK5QSize@Base 6.2.1
 _ZN10Qt3DExtras19QCuboidGeometryView23xzMeshResolutionChangedERK5QSize@Base 6.2.1
 _ZN10Qt3DExtras19QCuboidGeometryView23yzMeshResolutionChangedERK5QSize@Base 6.2.1
 _ZN10Qt3DExtras19QCuboidGeometryViewC1EPN8Qt3DCore5QNodeE@Base 6.2.1
 _ZN10Qt3DExtras19QCuboidGeometryViewC2EPN8Qt3DCore5QNodeE@Base 6.2.1
 _ZN10Qt3DExtras19QCuboidGeometryViewD0Ev@Base 6.2.1
 _ZN10Qt3DExtras19QCuboidGeometryViewD1Ev@Base 6.2.1
 _ZN10Qt3DExtras19QCuboidGeometryViewD2Ev@Base 6.2.1
 _ZN10Qt3DExtras19QDiffuseMapMaterial10setAmbientERK6QColor@Base 6.2.1
 _ZN10Qt3DExtras19QDiffuseMapMaterial10setDiffuseEPN10Qt3DRender16QAbstractTextureE@Base 6.2.1
 _ZN10Qt3DExtras19QDiffuseMapMaterial11qt_metacallEN11QMetaObject4CallEiPPv@Base 6.2.1
 _ZN10Qt3DExtras19QDiffuseMapMaterial11qt_metacastEPKc@Base 6.2.1
 _ZN10Qt3DExtras19QDiffuseMapMaterial11setSpecularERK6QColor@Base 6.2.1
 _ZN10Qt3DExtras19QDiffuseMapMaterial12setShininessEf@Base 6.2.1
 _ZN10Qt3DExtras19QDiffuseMapMaterial14ambientChangedERK6QColor@Base 6.2.1
 _ZN10Qt3DExtras19QDiffuseMapMaterial14diffuseChangedEPN10Qt3DRender16QAbstractTextureE@Base 6.2.1
 _ZN10Qt3DExtras19QDiffuseMapMaterial15setTextureScaleEf@Base 6.2.1
 _ZN10Qt3DExtras19QDiffuseMapMaterial15specularChangedERK6QColor@Base 6.2.1
 _ZN10Qt3DExtras19QDiffuseMapMaterial16shininessChangedEf@Base 6.2.1
 _ZN10Qt3DExtras19QDiffuseMapMaterial16staticMetaObjectE@Base 6.2.1
 _ZN10Qt3DExtras19QDiffuseMapMaterial19textureScaleChangedEf@Base 6.2.1
 _ZN10Qt3DExtras19QDiffuseMapMaterialC1EPN8Qt3DCore5QNodeE@Base 6.2.1
 _ZN10Qt3DExtras19QDiffuseMapMaterialC2EPN8Qt3DCore5QNodeE@Base 6.2.1
 _ZN10Qt3DExtras19QDiffuseMapMaterialD0Ev@Base 6.2.1
 _ZN10Qt3DExtras19QDiffuseMapMaterialD1Ev@Base 6.2.1
 _ZN10Qt3DExtras19QDiffuseMapMaterialD2Ev@Base 6.2.1
 _ZN10Qt3DExtras19QMetalRoughMaterial11qt_metacallEN11QMetaObject4CallEiPPv@Base 6.2.1
 _ZN10Qt3DExtras19QMetalRoughMaterial11qt_metacastEPKc@Base 6.2.1
 _ZN10Qt3DExtras19QMetalRoughMaterial12setBaseColorERK8QVariant@Base 6.2.1
 _ZN10Qt3DExtras19QMetalRoughMaterial12setMetalnessERK8QVariant@Base 6.2.1
 _ZN10Qt3DExtras19QMetalRoughMaterial12setRoughnessERK8QVariant@Base 6.2.1
 _ZN10Qt3DExtras19QMetalRoughMaterial13normalChangedERK8QVariant@Base 6.2.1
 _ZN10Qt3DExtras19QMetalRoughMaterial15setTextureScaleEf@Base 6.2.1
 _ZN10Qt3DExtras19QMetalRoughMaterial16baseColorChangedERK8QVariant@Base 6.2.1
 _ZN10Qt3DExtras19QMetalRoughMaterial16metalnessChangedERK8QVariant@Base 6.2.1
 _ZN10Qt3DExtras19QMetalRoughMaterial16roughnessChangedERK8QVariant@Base 6.2.1
 _ZN10Qt3DExtras19QMetalRoughMaterial16staticMetaObjectE@Base 6.2.1
 _ZN10Qt3DExtras19QMetalRoughMaterial19setAmbientOcclusionERK8QVariant@Base 6.2.1
 _ZN10Qt3DExtras19QMetalRoughMaterial19textureScaleChangedEf@Base 6.2.1
 _ZN10Qt3DExtras19QMetalRoughMaterial23ambientOcclusionChangedERK8QVariant@Base 6.2.1
 _ZN10Qt3DExtras19QMetalRoughMaterial9setNormalERK8QVariant@Base 6.2.1
 _ZN10Qt3DExtras19QMetalRoughMaterialC1EPN8Qt3DCore5QNodeE@Base 6.2.1
 _ZN10Qt3DExtras19QMetalRoughMaterialC1ERNS_26QMetalRoughMaterialPrivateEPN8Qt3DCore5QNodeE@Base 6.2.1
 _ZN10Qt3DExtras19QMetalRoughMaterialC2EPN8Qt3DCore5QNodeE@Base 6.2.1
 _ZN10Qt3DExtras19QMetalRoughMaterialC2ERNS_26QMetalRoughMaterialPrivateEPN8Qt3DCore5QNodeE@Base 6.2.1
 _ZN10Qt3DExtras19QMetalRoughMaterialD0Ev@Base 6.2.1
 _ZN10Qt3DExtras19QMetalRoughMaterialD1Ev@Base 6.2.1
 _ZN10Qt3DExtras19QMetalRoughMaterialD2Ev@Base 6.2.1
 _ZN10Qt3DExtras19QMorphPhongMaterial10setAmbientERK6QColor@Base 6.2.1
 _ZN10Qt3DExtras19QMorphPhongMaterial10setDiffuseERK6QColor@Base 6.2.1
 _ZN10Qt3DExtras19QMorphPhongMaterial11qt_metacallEN11QMetaObject4CallEiPPv@Base 6.2.1
 _ZN10Qt3DExtras19QMorphPhongMaterial11qt_metacastEPKc@Base 6.2.1
 _ZN10Qt3DExtras19QMorphPhongMaterial11setSpecularERK6QColor@Base 6.2.1
 _ZN10Qt3DExtras19QMorphPhongMaterial12setShininessEf@Base 6.2.1
 _ZN10Qt3DExtras19QMorphPhongMaterial14ambientChangedERK6QColor@Base 6.2.1
 _ZN10Qt3DExtras19QMorphPhongMaterial14diffuseChangedERK6QColor@Base 6.2.1
 _ZN10Qt3DExtras19QMorphPhongMaterial15setInterpolatorEf@Base 6.2.1
 _ZN10Qt3DExtras19QMorphPhongMaterial15specularChangedERK6QColor@Base 6.2.1
 _ZN10Qt3DExtras19QMorphPhongMaterial16shininessChangedEf@Base 6.2.1
 _ZN10Qt3DExtras19QMorphPhongMaterial16staticMetaObjectE@Base 6.2.1
 _ZN10Qt3DExtras19QMorphPhongMaterial19interpolatorChangedEf@Base 6.2.1
 _ZN10Qt3DExtras19QMorphPhongMaterialC1EPN8Qt3DCore5QNodeE@Base 6.2.1
 _ZN10Qt3DExtras19QMorphPhongMaterialC2EPN8Qt3DCore5QNodeE@Base 6.2.1
 _ZN10Qt3DExtras19QMorphPhongMaterialD0Ev@Base 6.2.1
 _ZN10Qt3DExtras19QMorphPhongMaterialD1Ev@Base 6.2.1
 _ZN10Qt3DExtras19QMorphPhongMaterialD2Ev@Base 6.2.1
 _ZN10Qt3DExtras19QPhongAlphaMaterial10setAmbientERK6QColor@Base 6.2.1
 _ZN10Qt3DExtras19QPhongAlphaMaterial10setDiffuseERK6QColor@Base 6.2.1
 _ZN10Qt3DExtras19QPhongAlphaMaterial11qt_metacallEN11QMetaObject4CallEiPPv@Base 6.2.1
 _ZN10Qt3DExtras19QPhongAlphaMaterial11qt_metacastEPKc@Base 6.2.1
 _ZN10Qt3DExtras19QPhongAlphaMaterial11setSpecularERK6QColor@Base 6.2.1
 _ZN10Qt3DExtras19QPhongAlphaMaterial12alphaChangedEf@Base 6.2.1
 _ZN10Qt3DExtras19QPhongAlphaMaterial12setShininessEf@Base 6.2.1
 _ZN10Qt3DExtras19QPhongAlphaMaterial14ambientChangedERK6QColor@Base 6.2.1
 _ZN10Qt3DExtras19QPhongAlphaMaterial14diffuseChangedERK6QColor@Base 6.2.1
 _ZN10Qt3DExtras19QPhongAlphaMaterial15setSourceRgbArgEN10Qt3DRender23QBlendEquationArguments8BlendingE@Base 6.2.1
 _ZN10Qt3DExtras19QPhongAlphaMaterial15specularChangedERK6QColor@Base 6.2.1
 _ZN10Qt3DExtras19QPhongAlphaMaterial16shininessChangedEf@Base 6.2.1
 _ZN10Qt3DExtras19QPhongAlphaMaterial16staticMetaObjectE@Base 6.2.1
 _ZN10Qt3DExtras19QPhongAlphaMaterial17setSourceAlphaArgEN10Qt3DRender23QBlendEquationArguments8BlendingE@Base 6.2.1
 _ZN10Qt3DExtras19QPhongAlphaMaterial19setBlendFunctionArgEN10Qt3DRender14QBlendEquation13BlendFunctionE@Base 6.2.1
 _ZN10Qt3DExtras19QPhongAlphaMaterial19sourceRgbArgChangedEN10Qt3DRender23QBlendEquationArguments8BlendingE@Base 6.2.1
 _ZN10Qt3DExtras19QPhongAlphaMaterial20setDestinationRgbArgEN10Qt3DRender23QBlendEquationArguments8BlendingE@Base 6.2.1
 _ZN10Qt3DExtras19QPhongAlphaMaterial21sourceAlphaArgChangedEN10Qt3DRender23QBlendEquationArguments8BlendingE@Base 6.2.1
 _ZN10Qt3DExtras19QPhongAlphaMaterial22setDestinationAlphaArgEN10Qt3DRender23QBlendEquationArguments8BlendingE@Base 6.2.1
 _ZN10Qt3DExtras19QPhongAlphaMaterial23blendFunctionArgChangedEN10Qt3DRender14QBlendEquation13BlendFunctionE@Base 6.2.1
 _ZN10Qt3DExtras19QPhongAlphaMaterial24destinationRgbArgChangedEN10Qt3DRender23QBlendEquationArguments8BlendingE@Base 6.2.1
 _ZN10Qt3DExtras19QPhongAlphaMaterial26destinationAlphaArgChangedEN10Qt3DRender23QBlendEquationArguments8BlendingE@Base 6.2.1
 _ZN10Qt3DExtras19QPhongAlphaMaterial8setAlphaEf@Base 6.2.1
 _ZN10Qt3DExtras19QPhongAlphaMaterialC1EPN8Qt3DCore5QNodeE@Base 6.2.1
 _ZN10Qt3DExtras19QPhongAlphaMaterialC2EPN8Qt3DCore5QNodeE@Base 6.2.1
 _ZN10Qt3DExtras19QPhongAlphaMaterialD0Ev@Base 6.2.1
 _ZN10Qt3DExtras19QPhongAlphaMaterialD1Ev@Base 6.2.1
 _ZN10Qt3DExtras19QPhongAlphaMaterialD2Ev@Base 6.2.1
 _ZN10Qt3DExtras19QSphereGeometryView11qt_metacallEN11QMetaObject4CallEiPPv@Base 6.2.1
 _ZN10Qt3DExtras19QSphereGeometryView11qt_metacastEPKc@Base 6.2.1
 _ZN10Qt3DExtras19QSphereGeometryView12ringsChangedEi@Base 6.2.1
 _ZN10Qt3DExtras19QSphereGeometryView13radiusChangedEf@Base 6.2.1
 _ZN10Qt3DExtras19QSphereGeometryView13slicesChangedEi@Base 6.2.1
 _ZN10Qt3DExtras19QSphereGeometryView16staticMetaObjectE@Base 6.2.1
 _ZN10Qt3DExtras19QSphereGeometryView19setGenerateTangentsEb@Base 6.2.1
 _ZN10Qt3DExtras19QSphereGeometryView23generateTangentsChangedEb@Base 6.2.1
 _ZN10Qt3DExtras19QSphereGeometryView8setRingsEi@Base 6.2.1
 _ZN10Qt3DExtras19QSphereGeometryView9setRadiusEf@Base 6.2.1
 _ZN10Qt3DExtras19QSphereGeometryView9setSlicesEi@Base 6.2.1
 _ZN10Qt3DExtras19QSphereGeometryViewC1EPN8Qt3DCore5QNodeE@Base 6.2.1
 _ZN10Qt3DExtras19QSphereGeometryViewC2EPN8Qt3DCore5QNodeE@Base 6.2.1
 _ZN10Qt3DExtras19QSphereGeometryViewD0Ev@Base 6.2.1
 _ZN10Qt3DExtras19QSphereGeometryViewD1Ev@Base 6.2.1
 _ZN10Qt3DExtras19QSphereGeometryViewD2Ev@Base 6.2.1
 _ZN10Qt3DExtras20QAbstractSpriteSheet10setTextureEPN10Qt3DRender16QAbstractTextureE@Base 6.2.1
 _ZN10Qt3DExtras20QAbstractSpriteSheet11qt_metacallEN11QMetaObject4CallEiPPv@Base 6.2.1
 _ZN10Qt3DExtras20QAbstractSpriteSheet11qt_metacastEPKc@Base 6.2.1
 _ZN10Qt3DExtras20QAbstractSpriteSheet14textureChangedEPN10Qt3DRender16QAbstractTextureE@Base 6.2.1
 _ZN10Qt3DExtras20QAbstractSpriteSheet15setCurrentIndexEi@Base 6.2.1
 _ZN10Qt3DExtras20QAbstractSpriteSheet16staticMetaObjectE@Base 6.2.1
 _ZN10Qt3DExtras20QAbstractSpriteSheet19currentIndexChangedEi@Base 6.2.1
 _ZN10Qt3DExtras20QAbstractSpriteSheet23textureTransformChangedERK14QGenericMatrixILi3ELi3EfE@Base 6.2.1
 _ZN10Qt3DExtras20QAbstractSpriteSheetC1ERNS_27QAbstractSpriteSheetPrivateEPN8Qt3DCore5QNodeE@Base 6.2.1
 _ZN10Qt3DExtras20QAbstractSpriteSheetC2ERNS_27QAbstractSpriteSheetPrivateEPN8Qt3DCore5QNodeE@Base 6.2.1
 _ZN10Qt3DExtras20QAbstractSpriteSheetD0Ev@Base 6.2.1
 _ZN10Qt3DExtras20QAbstractSpriteSheetD1Ev@Base 6.2.1
 _ZN10Qt3DExtras20QAbstractSpriteSheetD2Ev@Base 6.2.1
 _ZN10Qt3DExtras21QCylinderGeometryView11qt_metacallEN11QMetaObject4CallEiPPv@Base 6.2.1
 _ZN10Qt3DExtras21QCylinderGeometryView11qt_metacastEPKc@Base 6.2.1
 _ZN10Qt3DExtras21QCylinderGeometryView12ringsChangedEi@Base 6.2.1
 _ZN10Qt3DExtras21QCylinderGeometryView13lengthChangedEf@Base 6.2.1
 _ZN10Qt3DExtras21QCylinderGeometryView13radiusChangedEf@Base 6.2.1
 _ZN10Qt3DExtras21QCylinderGeometryView13slicesChangedEi@Base 6.2.1
 _ZN10Qt3DExtras21QCylinderGeometryView16staticMetaObjectE@Base 6.2.1
 _ZN10Qt3DExtras21QCylinderGeometryView8setRingsEi@Base 6.2.1
 _ZN10Qt3DExtras21QCylinderGeometryView9setLengthEf@Base 6.2.1
 _ZN10Qt3DExtras21QCylinderGeometryView9setRadiusEf@Base 6.2.1
 _ZN10Qt3DExtras21QCylinderGeometryView9setSlicesEi@Base 6.2.1
 _ZN10Qt3DExtras21QCylinderGeometryViewC1EPN8Qt3DCore5QNodeE@Base 6.2.1
 _ZN10Qt3DExtras21QCylinderGeometryViewC2EPN8Qt3DCore5QNodeE@Base 6.2.1
 _ZN10Qt3DExtras21QCylinderGeometryViewD0Ev@Base 6.2.1
 _ZN10Qt3DExtras21QCylinderGeometryViewD1Ev@Base 6.2.1
 _ZN10Qt3DExtras21QCylinderGeometryViewD2Ev@Base 6.2.1
 _ZN10Qt3DExtras21QExtrudedTextGeometry11fontChangedERK5QFont@Base 6.2.1
 _ZN10Qt3DExtras21QExtrudedTextGeometry11qt_metacallEN11QMetaObject4CallEiPPv@Base 6.2.1
 _ZN10Qt3DExtras21QExtrudedTextGeometry11qt_metacastEPKc@Base 6.2.1
 _ZN10Qt3DExtras21QExtrudedTextGeometry11textChangedERK7QString@Base 6.2.1
 _ZN10Qt3DExtras21QExtrudedTextGeometry12depthChangedEf@Base 6.2.1
 _ZN10Qt3DExtras21QExtrudedTextGeometry16staticMetaObjectE@Base 6.2.1
 _ZN10Qt3DExtras21QExtrudedTextGeometry7setFontERK5QFont@Base 6.2.1
 _ZN10Qt3DExtras21QExtrudedTextGeometry7setTextERK7QString@Base 6.2.1
 _ZN10Qt3DExtras21QExtrudedTextGeometry8setDepthEf@Base 6.2.1
 _ZN10Qt3DExtras21QExtrudedTextGeometryC1EPN8Qt3DCore5QNodeE@Base 6.2.1
 _ZN10Qt3DExtras21QExtrudedTextGeometryC1ERNS_28QExtrudedTextGeometryPrivateEPN8Qt3DCore5QNodeE@Base 6.2.1
 _ZN10Qt3DExtras21QExtrudedTextGeometryC2EPN8Qt3DCore5QNodeE@Base 6.2.1
 _ZN10Qt3DExtras21QExtrudedTextGeometryC2ERNS_28QExtrudedTextGeometryPrivateEPN8Qt3DCore5QNodeE@Base 6.2.1
 _ZN10Qt3DExtras21QExtrudedTextGeometryD0Ev@Base 6.2.1
 _ZN10Qt3DExtras21QExtrudedTextGeometryD1Ev@Base 6.2.1
 _ZN10Qt3DExtras21QExtrudedTextGeometryD2Ev@Base 6.2.1
 _ZN10Qt3DExtras22QOrbitCameraController10moveCameraERKNS_25QAbstractCameraController10InputStateEf@Base 6.2.1
 _ZN10Qt3DExtras22QOrbitCameraController11qt_metacallEN11QMetaObject4CallEiPPv@Base 6.2.1
 _ZN10Qt3DExtras22QOrbitCameraController11qt_metacastEPKc@Base 6.2.1
 _ZN10Qt3DExtras22QOrbitCameraController14setZoomInLimitEf@Base 6.2.1
 _ZN10Qt3DExtras22QOrbitCameraController16staticMetaObjectE@Base 6.2.1
 _ZN10Qt3DExtras22QOrbitCameraController18zoomInLimitChangedEv@Base 6.2.1
 _ZN10Qt3DExtras22QOrbitCameraControllerC1EPN8Qt3DCore5QNodeE@Base 6.2.1
 _ZN10Qt3DExtras22QOrbitCameraControllerC1ERNS_29QOrbitCameraControllerPrivateEPN8Qt3DCore5QNodeE@Base 6.2.1
 _ZN10Qt3DExtras22QOrbitCameraControllerC2EPN8Qt3DCore5QNodeE@Base 6.2.1
 _ZN10Qt3DExtras22QOrbitCameraControllerC2ERNS_29QOrbitCameraControllerPrivateEPN8Qt3DCore5QNodeE@Base 6.2.1
 _ZN10Qt3DExtras22QOrbitCameraControllerD0Ev@Base 6.2.1
 _ZN10Qt3DExtras22QOrbitCameraControllerD1Ev@Base 6.2.1
 _ZN10Qt3DExtras22QOrbitCameraControllerD2Ev@Base 6.2.1
 _ZN10Qt3DExtras23QPerVertexColorMaterial11qt_metacallEN11QMetaObject4CallEiPPv@Base 6.2.1
 _ZN10Qt3DExtras23QPerVertexColorMaterial11qt_metacastEPKc@Base 6.2.1
 _ZN10Qt3DExtras23QPerVertexColorMaterial16staticMetaObjectE@Base 6.2.1
 _ZN10Qt3DExtras23QPerVertexColorMaterialC1EPN8Qt3DCore5QNodeE@Base 6.2.1
 _ZN10Qt3DExtras23QPerVertexColorMaterialC2EPN8Qt3DCore5QNodeE@Base 6.2.1
 _ZN10Qt3DExtras23QPerVertexColorMaterialD0Ev@Base 6.2.1
 _ZN10Qt3DExtras23QPerVertexColorMaterialD1Ev@Base 6.2.1
 _ZN10Qt3DExtras23QPerVertexColorMaterialD2Ev@Base 6.2.1
 _ZN10Qt3DExtras24QDiffuseSpecularMaterial10setAmbientERK6QColor@Base 6.2.1
 _ZN10Qt3DExtras24QDiffuseSpecularMaterial10setDiffuseERK8QVariant@Base 6.2.1
 _ZN10Qt3DExtras24QDiffuseSpecularMaterial11qt_metacallEN11QMetaObject4CallEiPPv@Base 6.2.1
 _ZN10Qt3DExtras24QDiffuseSpecularMaterial11qt_metacastEPKc@Base 6.2.1
 _ZN10Qt3DExtras24QDiffuseSpecularMaterial11setSpecularERK8QVariant@Base 6.2.1
 _ZN10Qt3DExtras24QDiffuseSpecularMaterial12setShininessEf@Base 6.2.1
 _ZN10Qt3DExtras24QDiffuseSpecularMaterial13normalChangedERK8QVariant@Base 6.2.1
 _ZN10Qt3DExtras24QDiffuseSpecularMaterial14ambientChangedERK6QColor@Base 6.2.1
 _ZN10Qt3DExtras24QDiffuseSpecularMaterial14diffuseChangedERK8QVariant@Base 6.2.1
 _ZN10Qt3DExtras24QDiffuseSpecularMaterial15setTextureScaleEf@Base 6.2.1
 _ZN10Qt3DExtras24QDiffuseSpecularMaterial15specularChangedERK8QVariant@Base 6.2.1
 _ZN10Qt3DExtras24QDiffuseSpecularMaterial16shininessChangedEf@Base 6.2.1
 _ZN10Qt3DExtras24QDiffuseSpecularMaterial16staticMetaObjectE@Base 6.2.1
 _ZN10Qt3DExtras24QDiffuseSpecularMaterial19textureScaleChangedEf@Base 6.2.1
 _ZN10Qt3DExtras24QDiffuseSpecularMaterial23setAlphaBlendingEnabledEb@Base 6.2.1
 _ZN10Qt3DExtras24QDiffuseSpecularMaterial27alphaBlendingEnabledChangedEb@Base 6.2.1
 _ZN10Qt3DExtras24QDiffuseSpecularMaterial9setNormalERK8QVariant@Base 6.2.1
 _ZN10Qt3DExtras24QDiffuseSpecularMaterialC1EPN8Qt3DCore5QNodeE@Base 6.2.1
 _ZN10Qt3DExtras24QDiffuseSpecularMaterialC2EPN8Qt3DCore5QNodeE@Base 6.2.1
 _ZN10Qt3DExtras24QDiffuseSpecularMaterialD0Ev@Base 6.2.1
 _ZN10Qt3DExtras24QDiffuseSpecularMaterialD1Ev@Base 6.2.1
 _ZN10Qt3DExtras24QDiffuseSpecularMaterialD2Ev@Base 6.2.1
 _ZN10Qt3DExtras25QAbstractCameraController11qt_metacallEN11QMetaObject4CallEiPPv@Base 6.2.1
 _ZN10Qt3DExtras25QAbstractCameraController11qt_metacastEPKc@Base 6.2.1
 _ZN10Qt3DExtras25QAbstractCameraController12setLookSpeedEf@Base 6.2.1
 _ZN10Qt3DExtras25QAbstractCameraController13cameraChangedEv@Base 6.2.1
 _ZN10Qt3DExtras25QAbstractCameraController14setLinearSpeedEf@Base 6.2.1
 _ZN10Qt3DExtras25QAbstractCameraController15setAccelerationEf@Base 6.2.1
 _ZN10Qt3DExtras25QAbstractCameraController15setDecelerationEf@Base 6.2.1
 _ZN10Qt3DExtras25QAbstractCameraController16lookSpeedChangedEv@Base 6.2.1
 _ZN10Qt3DExtras25QAbstractCameraController16staticMetaObjectE@Base 6.2.1
 _ZN10Qt3DExtras25QAbstractCameraController18linearSpeedChangedEv@Base 6.2.1
 _ZN10Qt3DExtras25QAbstractCameraController19accelerationChangedEf@Base 6.2.1
 _ZN10Qt3DExtras25QAbstractCameraController19decelerationChangedEf@Base 6.2.1
 _ZN10Qt3DExtras25QAbstractCameraController9setCameraEPN10Qt3DRender7QCameraE@Base 6.2.1
 _ZN10Qt3DExtras25QAbstractCameraControllerC1EPN8Qt3DCore5QNodeE@Base 6.2.1
 _ZN10Qt3DExtras25QAbstractCameraControllerC1ERNS_32QAbstractCameraControllerPrivateEPN8Qt3DCore5QNodeE@Base 6.2.1
 _ZN10Qt3DExtras25QAbstractCameraControllerC2EPN8Qt3DCore5QNodeE@Base 6.2.1
 _ZN10Qt3DExtras25QAbstractCameraControllerC2ERNS_32QAbstractCameraControllerPrivateEPN8Qt3DCore5QNodeE@Base 6.2.1
 _ZN10Qt3DExtras25QAbstractCameraControllerD0Ev@Base 6.2.1
 _ZN10Qt3DExtras25QAbstractCameraControllerD1Ev@Base 6.2.1
 _ZN10Qt3DExtras25QAbstractCameraControllerD2Ev@Base 6.2.1
 _ZN10Qt3DExtras25QNormalDiffuseMapMaterial10setAmbientERK6QColor@Base 6.2.1
 _ZN10Qt3DExtras25QNormalDiffuseMapMaterial10setDiffuseEPN10Qt3DRender16QAbstractTextureE@Base 6.2.1
 _ZN10Qt3DExtras25QNormalDiffuseMapMaterial11qt_metacallEN11QMetaObject4CallEiPPv@Base 6.2.1
 _ZN10Qt3DExtras25QNormalDiffuseMapMaterial11qt_metacastEPKc@Base 6.2.1
 _ZN10Qt3DExtras25QNormalDiffuseMapMaterial11setSpecularERK6QColor@Base 6.2.1
 _ZN10Qt3DExtras25QNormalDiffuseMapMaterial12setShininessEf@Base 6.2.1
 _ZN10Qt3DExtras25QNormalDiffuseMapMaterial13normalChangedEPN10Qt3DRender16QAbstractTextureE@Base 6.2.1
 _ZN10Qt3DExtras25QNormalDiffuseMapMaterial14ambientChangedERK6QColor@Base 6.2.1
 _ZN10Qt3DExtras25QNormalDiffuseMapMaterial14diffuseChangedEPN10Qt3DRender16QAbstractTextureE@Base 6.2.1
 _ZN10Qt3DExtras25QNormalDiffuseMapMaterial15setTextureScaleEf@Base 6.2.1
 _ZN10Qt3DExtras25QNormalDiffuseMapMaterial15specularChangedERK6QColor@Base 6.2.1
 _ZN10Qt3DExtras25QNormalDiffuseMapMaterial16shininessChangedEf@Base 6.2.1
 _ZN10Qt3DExtras25QNormalDiffuseMapMaterial16staticMetaObjectE@Base 6.2.1
 _ZN10Qt3DExtras25QNormalDiffuseMapMaterial19textureScaleChangedEf@Base 6.2.1
 _ZN10Qt3DExtras25QNormalDiffuseMapMaterial9setNormalEPN10Qt3DRender16QAbstractTextureE@Base 6.2.1
 _ZN10Qt3DExtras25QNormalDiffuseMapMaterialC1EPN8Qt3DCore5QNodeE@Base 6.2.1
 _ZN10Qt3DExtras25QNormalDiffuseMapMaterialC1ERNS_32QNormalDiffuseMapMaterialPrivateEPN8Qt3DCore5QNodeE@Base 6.2.1
 _ZN10Qt3DExtras25QNormalDiffuseMapMaterialC2EPN8Qt3DCore5QNodeE@Base 6.2.1
 _ZN10Qt3DExtras25QNormalDiffuseMapMaterialC2ERNS_32QNormalDiffuseMapMaterialPrivateEPN8Qt3DCore5QNodeE@Base 6.2.1
 _ZN10Qt3DExtras25QNormalDiffuseMapMaterialD0Ev@Base 6.2.1
 _ZN10Qt3DExtras25QNormalDiffuseMapMaterialD1Ev@Base 6.2.1
 _ZN10Qt3DExtras25QNormalDiffuseMapMaterialD2Ev@Base 6.2.1
 _ZN10Qt3DExtras27QDiffuseSpecularMapMaterial10setAmbientERK6QColor@Base 6.2.1
 _ZN10Qt3DExtras27QDiffuseSpecularMapMaterial10setDiffuseEPN10Qt3DRender16QAbstractTextureE@Base 6.2.1
 _ZN10Qt3DExtras27QDiffuseSpecularMapMaterial11qt_metacallEN11QMetaObject4CallEiPPv@Base 6.2.1
 _ZN10Qt3DExtras27QDiffuseSpecularMapMaterial11qt_metacastEPKc@Base 6.2.1
 _ZN10Qt3DExtras27QDiffuseSpecularMapMaterial11setSpecularEPN10Qt3DRender16QAbstractTextureE@Base 6.2.1
 _ZN10Qt3DExtras27QDiffuseSpecularMapMaterial12setShininessEf@Base 6.2.1
 _ZN10Qt3DExtras27QDiffuseSpecularMapMaterial14ambientChangedERK6QColor@Base 6.2.1
 _ZN10Qt3DExtras27QDiffuseSpecularMapMaterial14diffuseChangedEPN10Qt3DRender16QAbstractTextureE@Base 6.2.1
 _ZN10Qt3DExtras27QDiffuseSpecularMapMaterial15setTextureScaleEf@Base 6.2.1
 _ZN10Qt3DExtras27QDiffuseSpecularMapMaterial15specularChangedEPN10Qt3DRender16QAbstractTextureE@Base 6.2.1
 _ZN10Qt3DExtras27QDiffuseSpecularMapMaterial16shininessChangedEf@Base 6.2.1
 _ZN10Qt3DExtras27QDiffuseSpecularMapMaterial16staticMetaObjectE@Base 6.2.1
 _ZN10Qt3DExtras27QDiffuseSpecularMapMaterial19textureScaleChangedEf@Base 6.2.1
 _ZN10Qt3DExtras27QDiffuseSpecularMapMaterialC1EPN8Qt3DCore5QNodeE@Base 6.2.1
 _ZN10Qt3DExtras27QDiffuseSpecularMapMaterialC2EPN8Qt3DCore5QNodeE@Base 6.2.1
 _ZN10Qt3DExtras27QDiffuseSpecularMapMaterialD0Ev@Base 6.2.1
 _ZN10Qt3DExtras27QDiffuseSpecularMapMaterialD1Ev@Base 6.2.1
 _ZN10Qt3DExtras27QDiffuseSpecularMapMaterialD2Ev@Base 6.2.1
 _ZN10Qt3DExtras28QFirstPersonCameraController10moveCameraERKNS_25QAbstractCameraController10InputStateEf@Base 6.2.1
 _ZN10Qt3DExtras28QFirstPersonCameraController11qt_metacallEN11QMetaObject4CallEiPPv@Base 6.2.1
 _ZN10Qt3DExtras28QFirstPersonCameraController11qt_metacastEPKc@Base 6.2.1
 _ZN10Qt3DExtras28QFirstPersonCameraController16staticMetaObjectE@Base 6.2.1
 _ZN10Qt3DExtras28QFirstPersonCameraControllerC1EPN8Qt3DCore5QNodeE@Base 6.2.1
 _ZN10Qt3DExtras28QFirstPersonCameraControllerC2EPN8Qt3DCore5QNodeE@Base 6.2.1
 _ZN10Qt3DExtras28QFirstPersonCameraControllerD0Ev@Base 6.2.1
 _ZN10Qt3DExtras28QFirstPersonCameraControllerD1Ev@Base 6.2.1
 _ZN10Qt3DExtras28QFirstPersonCameraControllerD2Ev@Base 6.2.1
 _ZN10Qt3DExtras30QNormalDiffuseMapAlphaMaterial11qt_metacallEN11QMetaObject4CallEiPPv@Base 6.2.1
 _ZN10Qt3DExtras30QNormalDiffuseMapAlphaMaterial11qt_metacastEPKc@Base 6.2.1
 _ZN10Qt3DExtras30QNormalDiffuseMapAlphaMaterial16staticMetaObjectE@Base 6.2.1
 _ZN10Qt3DExtras30QNormalDiffuseMapAlphaMaterialC1EPN8Qt3DCore5QNodeE@Base 6.2.1
 _ZN10Qt3DExtras30QNormalDiffuseMapAlphaMaterialC2EPN8Qt3DCore5QNodeE@Base 6.2.1
 _ZN10Qt3DExtras30QNormalDiffuseMapAlphaMaterialD0Ev@Base 6.2.1
 _ZN10Qt3DExtras30QNormalDiffuseMapAlphaMaterialD1Ev@Base 6.2.1
 _ZN10Qt3DExtras30QNormalDiffuseMapAlphaMaterialD2Ev@Base 6.2.1
 _ZN10Qt3DExtras33QNormalDiffuseSpecularMapMaterial10setAmbientERK6QColor@Base 6.2.1
 _ZN10Qt3DExtras33QNormalDiffuseSpecularMapMaterial10setDiffuseEPN10Qt3DRender16QAbstractTextureE@Base 6.2.1
 _ZN10Qt3DExtras33QNormalDiffuseSpecularMapMaterial11qt_metacallEN11QMetaObject4CallEiPPv@Base 6.2.1
 _ZN10Qt3DExtras33QNormalDiffuseSpecularMapMaterial11qt_metacastEPKc@Base 6.2.1
 _ZN10Qt3DExtras33QNormalDiffuseSpecularMapMaterial11setSpecularEPN10Qt3DRender16QAbstractTextureE@Base 6.2.1
 _ZN10Qt3DExtras33QNormalDiffuseSpecularMapMaterial12setShininessEf@Base 6.2.1
 _ZN10Qt3DExtras33QNormalDiffuseSpecularMapMaterial13normalChangedEPN10Qt3DRender16QAbstractTextureE@Base 6.2.1
 _ZN10Qt3DExtras33QNormalDiffuseSpecularMapMaterial14ambientChangedERK6QColor@Base 6.2.1
 _ZN10Qt3DExtras33QNormalDiffuseSpecularMapMaterial14diffuseChangedEPN10Qt3DRender16QAbstractTextureE@Base 6.2.1
 _ZN10Qt3DExtras33QNormalDiffuseSpecularMapMaterial15setTextureScaleEf@Base 6.2.1
 _ZN10Qt3DExtras33QNormalDiffuseSpecularMapMaterial15specularChangedEPN10Qt3DRender16QAbstractTextureE@Base 6.2.1
 _ZN10Qt3DExtras33QNormalDiffuseSpecularMapMaterial16shininessChangedEf@Base 6.2.1
 _ZN10Qt3DExtras33QNormalDiffuseSpecularMapMaterial16staticMetaObjectE@Base 6.2.1
 _ZN10Qt3DExtras33QNormalDiffuseSpecularMapMaterial19textureScaleChangedEf@Base 6.2.1
 _ZN10Qt3DExtras33QNormalDiffuseSpecularMapMaterial9setNormalEPN10Qt3DRender16QAbstractTextureE@Base 6.2.1
 _ZN10Qt3DExtras33QNormalDiffuseSpecularMapMaterialC1EPN8Qt3DCore5QNodeE@Base 6.2.1
 _ZN10Qt3DExtras33QNormalDiffuseSpecularMapMaterialC1ERNS_40QNormalDiffuseSpecularMapMaterialPrivateEPN8Qt3DCore5QNodeE@Base 6.2.1
 _ZN10Qt3DExtras33QNormalDiffuseSpecularMapMaterialC2EPN8Qt3DCore5QNodeE@Base 6.2.1
 _ZN10Qt3DExtras33QNormalDiffuseSpecularMapMaterialC2ERNS_40QNormalDiffuseSpecularMapMaterialPrivateEPN8Qt3DCore5QNodeE@Base 6.2.1
 _ZN10Qt3DExtras33QNormalDiffuseSpecularMapMaterialD0Ev@Base 6.2.1
 _ZN10Qt3DExtras33QNormalDiffuseSpecularMapMaterialD1Ev@Base 6.2.1
 _ZN10Qt3DExtras33QNormalDiffuseSpecularMapMaterialD2Ev@Base 6.2.1
 _ZN10Qt3DExtras9QConeMesh11qt_metacallEN11QMetaObject4CallEiPPv@Base 6.2.1
 _ZN10Qt3DExtras9QConeMesh11qt_metacastEPKc@Base 6.2.1
 _ZN10Qt3DExtras9QConeMesh12ringsChangedEi@Base 6.2.1
 _ZN10Qt3DExtras9QConeMesh12setTopRadiusEf@Base 6.2.1
 _ZN10Qt3DExtras9QConeMesh13lengthChangedEf@Base 6.2.1
 _ZN10Qt3DExtras9QConeMesh13slicesChangedEi@Base 6.2.1
 _ZN10Qt3DExtras9QConeMesh15setBottomRadiusEf@Base 6.2.1
 _ZN10Qt3DExtras9QConeMesh15setHasTopEndcapEb@Base 6.2.1
 _ZN10Qt3DExtras9QConeMesh16staticMetaObjectE@Base 6.2.1
 _ZN10Qt3DExtras9QConeMesh16topRadiusChangedEf@Base 6.2.1
 _ZN10Qt3DExtras9QConeMesh18setHasBottomEndcapEb@Base 6.2.1
 _ZN10Qt3DExtras9QConeMesh19bottomRadiusChangedEf@Base 6.2.1
 _ZN10Qt3DExtras9QConeMesh19hasTopEndcapChangedEb@Base 6.2.1
 _ZN10Qt3DExtras9QConeMesh22hasBottomEndcapChangedEb@Base 6.2.1
 _ZN10Qt3DExtras9QConeMesh8setRingsEi@Base 6.2.1
 _ZN10Qt3DExtras9QConeMesh9setLengthEf@Base 6.2.1
 _ZN10Qt3DExtras9QConeMesh9setSlicesEi@Base 6.2.1
 _ZN10Qt3DExtras9QConeMeshC1EPN8Qt3DCore5QNodeE@Base 6.2.1
 _ZN10Qt3DExtras9QConeMeshC2EPN8Qt3DCore5QNodeE@Base 6.2.1
 _ZN10Qt3DExtras9QConeMeshD0Ev@Base 6.2.1
 _ZN10Qt3DExtras9QConeMeshD1Ev@Base 6.2.1
 _ZN10Qt3DExtras9QConeMeshD2Ev@Base 6.2.1
 _ZN13QMetaSequence12MetaSequenceI5QListIPN10Qt3DExtras16QSpriteSheetItemEEE5valueE@Base 6.2.1
 _ZNK10Qt3DExtras10QPlaneMesh10metaObjectEv@Base 6.2.1
 _ZNK10Qt3DExtras10QPlaneMesh14meshResolutionEv@Base 6.2.1
 _ZNK10Qt3DExtras10QPlaneMesh5widthEv@Base 6.2.1
 _ZNK10Qt3DExtras10QPlaneMesh6heightEv@Base 6.2.1
 _ZNK10Qt3DExtras10QPlaneMesh8mirroredEv@Base 6.2.1
 _ZNK10Qt3DExtras10QTorusMesh10metaObjectEv@Base 6.2.1
 _ZNK10Qt3DExtras10QTorusMesh11minorRadiusEv@Base 6.2.1
 _ZNK10Qt3DExtras10QTorusMesh5ringsEv@Base 6.2.1
 _ZNK10Qt3DExtras10QTorusMesh6radiusEv@Base 6.2.1
 _ZNK10Qt3DExtras10QTorusMesh6slicesEv@Base 6.2.1
 _ZNK10Qt3DExtras10Qt3DWindow10metaObjectEv@Base 6.2.1
 _ZNK10Qt3DExtras10Qt3DWindow14renderSettingsEv@Base 6.2.1
 _ZNK10Qt3DExtras10Qt3DWindow16activeFrameGraphEv@Base 6.2.1
 _ZNK10Qt3DExtras10Qt3DWindow17defaultFrameGraphEv@Base 6.2.1
 _ZNK10Qt3DExtras10Qt3DWindow6cameraEv@Base 6.2.1
 _ZNK10Qt3DExtras11QCuboidMesh10metaObjectEv@Base 6.2.1
 _ZNK10Qt3DExtras11QCuboidMesh16xyMeshResolutionEv@Base 6.2.1
 _ZNK10Qt3DExtras11QCuboidMesh16xzMeshResolutionEv@Base 6.2.1
 _ZNK10Qt3DExtras11QCuboidMesh16yzMeshResolutionEv@Base 6.2.1
 _ZNK10Qt3DExtras11QCuboidMesh7xExtentEv@Base 6.2.1
 _ZNK10Qt3DExtras11QCuboidMesh7yExtentEv@Base 6.2.1
 _ZNK10Qt3DExtras11QCuboidMesh7zExtentEv@Base 6.2.1
 _ZNK10Qt3DExtras11QSphereMesh10metaObjectEv@Base 6.2.1
 _ZNK10Qt3DExtras11QSphereMesh16generateTangentsEv@Base 6.2.1
 _ZNK10Qt3DExtras11QSphereMesh5ringsEv@Base 6.2.1
 _ZNK10Qt3DExtras11QSphereMesh6radiusEv@Base 6.2.1
 _ZNK10Qt3DExtras11QSphereMesh6slicesEv@Base 6.2.1
 _ZNK10Qt3DExtras11QSpriteGrid10metaObjectEv@Base 6.2.1
 _ZNK10Qt3DExtras11QSpriteGrid4rowsEv@Base 6.2.1
 _ZNK10Qt3DExtras11QSpriteGrid7columnsEv@Base 6.2.1
 _ZNK10Qt3DExtras12QSpriteSheet10metaObjectEv@Base 6.2.1
 _ZNK10Qt3DExtras12QSpriteSheet7spritesEv@Base 6.2.1
 _ZNK10Qt3DExtras13QConeGeometry10metaObjectEv@Base 6.2.1
 _ZNK10Qt3DExtras13QConeGeometry12bottomRadiusEv@Base 6.2.1
 _ZNK10Qt3DExtras13QConeGeometry12hasTopEndcapEv@Base 6.2.1
 _ZNK10Qt3DExtras13QConeGeometry14indexAttributeEv@Base 6.2.1
 _ZNK10Qt3DExtras13QConeGeometry15hasBottomEndcapEv@Base 6.2.1
 _ZNK10Qt3DExtras13QConeGeometry15normalAttributeEv@Base 6.2.1
 _ZNK10Qt3DExtras13QConeGeometry17positionAttributeEv@Base 6.2.1
 _ZNK10Qt3DExtras13QConeGeometry17texCoordAttributeEv@Base 6.2.1
 _ZNK10Qt3DExtras13QConeGeometry5ringsEv@Base 6.2.1
 _ZNK10Qt3DExtras13QConeGeometry6lengthEv@Base 6.2.1
 _ZNK10Qt3DExtras13QConeGeometry6slicesEv@Base 6.2.1
 _ZNK10Qt3DExtras13QConeGeometry9topRadiusEv@Base 6.2.1
 _ZNK10Qt3DExtras13QCylinderMesh10metaObjectEv@Base 6.2.1
 _ZNK10Qt3DExtras13QCylinderMesh5ringsEv@Base 6.2.1
 _ZNK10Qt3DExtras13QCylinderMesh6lengthEv@Base 6.2.1
 _ZNK10Qt3DExtras13QCylinderMesh6radiusEv@Base 6.2.1
 _ZNK10Qt3DExtras13QCylinderMesh6slicesEv@Base 6.2.1
 _ZNK10Qt3DExtras13QSkyboxEntity10metaObjectEv@Base 6.2.1
 _ZNK10Qt3DExtras13QSkyboxEntity21isGammaCorrectEnabledEv@Base 6.2.1
 _ZNK10Qt3DExtras13QSkyboxEntity8baseNameEv@Base 6.2.1
 _ZNK10Qt3DExtras13QSkyboxEntity9extensionEv@Base 6.2.1
 _ZNK10Qt3DExtras13QText2DEntity10metaObjectEv@Base 6.2.1
 _ZNK10Qt3DExtras13QText2DEntity4fontEv@Base 6.2.1
 _ZNK10Qt3DExtras13QText2DEntity4textEv@Base 6.2.1
 _ZNK10Qt3DExtras13QText2DEntity5colorEv@Base 6.2.1
 _ZNK10Qt3DExtras13QText2DEntity5widthEv@Base 6.2.1
 _ZNK10Qt3DExtras13QText2DEntity6heightEv@Base 6.2.1
 _ZNK10Qt3DExtras14QGoochMaterial10metaObjectEv@Base 6.2.1
 _ZNK10Qt3DExtras14QGoochMaterial4betaEv@Base 6.2.1
 _ZNK10Qt3DExtras14QGoochMaterial4coolEv@Base 6.2.1
 _ZNK10Qt3DExtras14QGoochMaterial4warmEv@Base 6.2.1
 _ZNK10Qt3DExtras14QGoochMaterial5alphaEv@Base 6.2.1
 _ZNK10Qt3DExtras14QGoochMaterial7diffuseEv@Base 6.2.1
 _ZNK10Qt3DExtras14QGoochMaterial8specularEv@Base 6.2.1
 _ZNK10Qt3DExtras14QGoochMaterial9shininessEv@Base 6.2.1
 _ZNK10Qt3DExtras14QPhongMaterial10metaObjectEv@Base 6.2.1
 _ZNK10Qt3DExtras14QPhongMaterial7ambientEv@Base 6.2.1
 _ZNK10Qt3DExtras14QPhongMaterial7diffuseEv@Base 6.2.1
 _ZNK10Qt3DExtras14QPhongMaterial8specularEv@Base 6.2.1
 _ZNK10Qt3DExtras14QPhongMaterial9shininessEv@Base 6.2.1
 _ZNK10Qt3DExtras14QPlaneGeometry10metaObjectEv@Base 6.2.1
 _ZNK10Qt3DExtras14QPlaneGeometry10resolutionEv@Base 6.2.1
 _ZNK10Qt3DExtras14QPlaneGeometry14indexAttributeEv@Base 6.2.1
 _ZNK10Qt3DExtras14QPlaneGeometry15normalAttributeEv@Base 6.2.1
 _ZNK10Qt3DExtras14QPlaneGeometry16tangentAttributeEv@Base 6.2.1
 _ZNK10Qt3DExtras14QPlaneGeometry17positionAttributeEv@Base 6.2.1
 _ZNK10Qt3DExtras14QPlaneGeometry17texCoordAttributeEv@Base 6.2.1
 _ZNK10Qt3DExtras14QPlaneGeometry5widthEv@Base 6.2.1
 _ZNK10Qt3DExtras14QPlaneGeometry6heightEv@Base 6.2.1
 _ZNK10Qt3DExtras14QPlaneGeometry8mirroredEv@Base 6.2.1
 _ZNK10Qt3DExtras14QTorusGeometry10metaObjectEv@Base 6.2.1
 _ZNK10Qt3DExtras14QTorusGeometry11minorRadiusEv@Base 6.2.1
 _ZNK10Qt3DExtras14QTorusGeometry14indexAttributeEv@Base 6.2.1
 _ZNK10Qt3DExtras14QTorusGeometry15normalAttributeEv@Base 6.2.1
 _ZNK10Qt3DExtras14QTorusGeometry17positionAttributeEv@Base 6.2.1
 _ZNK10Qt3DExtras14QTorusGeometry17texCoordAttributeEv@Base 6.2.1
 _ZNK10Qt3DExtras14QTorusGeometry5ringsEv@Base 6.2.1
 _ZNK10Qt3DExtras14QTorusGeometry6radiusEv@Base 6.2.1
 _ZNK10Qt3DExtras14QTorusGeometry6slicesEv@Base 6.2.1
 _ZNK10Qt3DExtras15QCuboidGeometry10metaObjectEv@Base 6.2.1
 _ZNK10Qt3DExtras15QCuboidGeometry14indexAttributeEv@Base 6.2.1
 _ZNK10Qt3DExtras15QCuboidGeometry15normalAttributeEv@Base 6.2.1
 _ZNK10Qt3DExtras15QCuboidGeometry16tangentAttributeEv@Base 6.2.1
 _ZNK10Qt3DExtras15QCuboidGeometry16xyMeshResolutionEv@Base 6.2.1
 _ZNK10Qt3DExtras15QCuboidGeometry16xzMeshResolutionEv@Base 6.2.1
 _ZNK10Qt3DExtras15QCuboidGeometry16yzMeshResolutionEv@Base 6.2.1
 _ZNK10Qt3DExtras15QCuboidGeometry17positionAttributeEv@Base 6.2.1
 _ZNK10Qt3DExtras15QCuboidGeometry17texCoordAttributeEv@Base 6.2.1
 _ZNK10Qt3DExtras15QCuboidGeometry7xExtentEv@Base 6.2.1
 _ZNK10Qt3DExtras15QCuboidGeometry7yExtentEv@Base 6.2.1
 _ZNK10Qt3DExtras15QCuboidGeometry7zExtentEv@Base 6.2.1
 _ZNK10Qt3DExtras15QSphereGeometry10metaObjectEv@Base 6.2.1
 _ZNK10Qt3DExtras15QSphereGeometry14indexAttributeEv@Base 6.2.1
 _ZNK10Qt3DExtras15QSphereGeometry15normalAttributeEv@Base 6.2.1
 _ZNK10Qt3DExtras15QSphereGeometry16generateTangentsEv@Base 6.2.1
 _ZNK10Qt3DExtras15QSphereGeometry16tangentAttributeEv@Base 6.2.1
 _ZNK10Qt3DExtras15QSphereGeometry17positionAttributeEv@Base 6.2.1
 _ZNK10Qt3DExtras15QSphereGeometry17texCoordAttributeEv@Base 6.2.1
 _ZNK10Qt3DExtras15QSphereGeometry5ringsEv@Base 6.2.1
 _ZNK10Qt3DExtras15QSphereGeometry6radiusEv@Base 6.2.1
 _ZNK10Qt3DExtras15QSphereGeometry6slicesEv@Base 6.2.1
 _ZNK10Qt3DExtras16QForwardRenderer10clearColorEv@Base 6.2.1
 _ZNK10Qt3DExtras16QForwardRenderer10metaObjectEv@Base 6.2.1
 _ZNK10Qt3DExtras16QForwardRenderer12viewportRectEv@Base 6.2.1
 _ZNK10Qt3DExtras16QForwardRenderer14buffersToClearEv@Base 6.2.1
 _ZNK10Qt3DExtras16QForwardRenderer16showDebugOverlayEv@Base 6.2.1
 _ZNK10Qt3DExtras16QForwardRenderer23isFrustumCullingEnabledEv@Base 6.2.1
 _ZNK10Qt3DExtras16QForwardRenderer24externalRenderTargetSizeEv@Base 6.2.1
 _ZNK10Qt3DExtras16QForwardRenderer5gammaEv@Base 6.2.1
 _ZNK10Qt3DExtras16QForwardRenderer6cameraEv@Base 6.2.1
 _ZNK10Qt3DExtras16QForwardRenderer7surfaceEv@Base 6.2.1
 _ZNK10Qt3DExtras16QSpriteSheetItem10metaObjectEv@Base 6.2.1
 _ZNK10Qt3DExtras16QSpriteSheetItem1xEv@Base 6.2.1
 _ZNK10Qt3DExtras16QSpriteSheetItem1yEv@Base 6.2.1
 _ZNK10Qt3DExtras16QSpriteSheetItem5widthEv@Base 6.2.1
 _ZNK10Qt3DExtras16QSpriteSheetItem6heightEv@Base 6.2.1
 _ZNK10Qt3DExtras16QTextureMaterial10metaObjectEv@Base 6.2.1
 _ZNK10Qt3DExtras16QTextureMaterial13textureOffsetEv@Base 6.2.1
 _ZNK10Qt3DExtras16QTextureMaterial16textureTransformEv@Base 6.2.1
 _ZNK10Qt3DExtras16QTextureMaterial22isAlphaBlendingEnabledEv@Base 6.2.1
 _ZNK10Qt3DExtras16QTextureMaterial7textureEv@Base 6.2.1
 _ZNK10Qt3DExtras17QConeGeometryView10metaObjectEv@Base 6.2.1
 _ZNK10Qt3DExtras17QConeGeometryView12bottomRadiusEv@Base 6.2.1
 _ZNK10Qt3DExtras17QConeGeometryView12hasTopEndcapEv@Base 6.2.1
 _ZNK10Qt3DExtras17QConeGeometryView15hasBottomEndcapEv@Base 6.2.1
 _ZNK10Qt3DExtras17QConeGeometryView5ringsEv@Base 6.2.1
 _ZNK10Qt3DExtras17QConeGeometryView6lengthEv@Base 6.2.1
 _ZNK10Qt3DExtras17QConeGeometryView6slicesEv@Base 6.2.1
 _ZNK10Qt3DExtras17QConeGeometryView9topRadiusEv@Base 6.2.1
 _ZNK10Qt3DExtras17QCylinderGeometry10metaObjectEv@Base 6.2.1
 _ZNK10Qt3DExtras17QCylinderGeometry14indexAttributeEv@Base 6.2.1
 _ZNK10Qt3DExtras17QCylinderGeometry15normalAttributeEv@Base 6.2.1
 _ZNK10Qt3DExtras17QCylinderGeometry17positionAttributeEv@Base 6.2.1
 _ZNK10Qt3DExtras17QCylinderGeometry17texCoordAttributeEv@Base 6.2.1
 _ZNK10Qt3DExtras17QCylinderGeometry5ringsEv@Base 6.2.1
 _ZNK10Qt3DExtras17QCylinderGeometry6lengthEv@Base 6.2.1
 _ZNK10Qt3DExtras17QCylinderGeometry6radiusEv@Base 6.2.1
 _ZNK10Qt3DExtras17QCylinderGeometry6slicesEv@Base 6.2.1
 _ZNK10Qt3DExtras17QExtrudedTextMesh10metaObjectEv@Base 6.2.1
 _ZNK10Qt3DExtras17QExtrudedTextMesh4fontEv@Base 6.2.1
 _ZNK10Qt3DExtras17QExtrudedTextMesh4textEv@Base 6.2.1
 _ZNK10Qt3DExtras17QExtrudedTextMesh5depthEv@Base 6.2.1
 _ZNK10Qt3DExtras18QPlaneGeometryView10metaObjectEv@Base 6.2.1
 _ZNK10Qt3DExtras18QPlaneGeometryView14meshResolutionEv@Base 6.2.1
 _ZNK10Qt3DExtras18QPlaneGeometryView5widthEv@Base 6.2.1
 _ZNK10Qt3DExtras18QPlaneGeometryView6heightEv@Base 6.2.1
 _ZNK10Qt3DExtras18QPlaneGeometryView8mirroredEv@Base 6.2.1
 _ZNK10Qt3DExtras18QTorusGeometryView10metaObjectEv@Base 6.2.1
 _ZNK10Qt3DExtras18QTorusGeometryView11minorRadiusEv@Base 6.2.1
 _ZNK10Qt3DExtras18QTorusGeometryView5ringsEv@Base 6.2.1
 _ZNK10Qt3DExtras18QTorusGeometryView6radiusEv@Base 6.2.1
 _ZNK10Qt3DExtras18QTorusGeometryView6slicesEv@Base 6.2.1
 _ZNK10Qt3DExtras19QCuboidGeometryView10metaObjectEv@Base 6.2.1
 _ZNK10Qt3DExtras19QCuboidGeometryView16xyMeshResolutionEv@Base 6.2.1
 _ZNK10Qt3DExtras19QCuboidGeometryView16xzMeshResolutionEv@Base 6.2.1
 _ZNK10Qt3DExtras19QCuboidGeometryView16yzMeshResolutionEv@Base 6.2.1
 _ZNK10Qt3DExtras19QCuboidGeometryView7xExtentEv@Base 6.2.1
 _ZNK10Qt3DExtras19QCuboidGeometryView7yExtentEv@Base 6.2.1
 _ZNK10Qt3DExtras19QCuboidGeometryView7zExtentEv@Base 6.2.1
 _ZNK10Qt3DExtras19QDiffuseMapMaterial10metaObjectEv@Base 6.2.1
 _ZNK10Qt3DExtras19QDiffuseMapMaterial12textureScaleEv@Base 6.2.1
 _ZNK10Qt3DExtras19QDiffuseMapMaterial7ambientEv@Base 6.2.1
 _ZNK10Qt3DExtras19QDiffuseMapMaterial7diffuseEv@Base 6.2.1
 _ZNK10Qt3DExtras19QDiffuseMapMaterial8specularEv@Base 6.2.1
 _ZNK10Qt3DExtras19QDiffuseMapMaterial9shininessEv@Base 6.2.1
 _ZNK10Qt3DExtras19QMetalRoughMaterial10metaObjectEv@Base 6.2.1
 _ZNK10Qt3DExtras19QMetalRoughMaterial12textureScaleEv@Base 6.2.1
 _ZNK10Qt3DExtras19QMetalRoughMaterial16ambientOcclusionEv@Base 6.2.1
 _ZNK10Qt3DExtras19QMetalRoughMaterial6normalEv@Base 6.2.1
 _ZNK10Qt3DExtras19QMetalRoughMaterial9baseColorEv@Base 6.2.1
 _ZNK10Qt3DExtras19QMetalRoughMaterial9metalnessEv@Base 6.2.1
 _ZNK10Qt3DExtras19QMetalRoughMaterial9roughnessEv@Base 6.2.1
 _ZNK10Qt3DExtras19QMorphPhongMaterial10metaObjectEv@Base 6.2.1
 _ZNK10Qt3DExtras19QMorphPhongMaterial12interpolatorEv@Base 6.2.1
 _ZNK10Qt3DExtras19QMorphPhongMaterial7ambientEv@Base 6.2.1
 _ZNK10Qt3DExtras19QMorphPhongMaterial7diffuseEv@Base 6.2.1
 _ZNK10Qt3DExtras19QMorphPhongMaterial8specularEv@Base 6.2.1
 _ZNK10Qt3DExtras19QMorphPhongMaterial9shininessEv@Base 6.2.1
 _ZNK10Qt3DExtras19QPhongAlphaMaterial10metaObjectEv@Base 6.2.1
 _ZNK10Qt3DExtras19QPhongAlphaMaterial12sourceRgbArgEv@Base 6.2.1
 _ZNK10Qt3DExtras19QPhongAlphaMaterial14sourceAlphaArgEv@Base 6.2.1
 _ZNK10Qt3DExtras19QPhongAlphaMaterial16blendFunctionArgEv@Base 6.2.1
 _ZNK10Qt3DExtras19QPhongAlphaMaterial17destinationRgbArgEv@Base 6.2.1
 _ZNK10Qt3DExtras19QPhongAlphaMaterial19destinationAlphaArgEv@Base 6.2.1
 _ZNK10Qt3DExtras19QPhongAlphaMaterial5alphaEv@Base 6.2.1
 _ZNK10Qt3DExtras19QPhongAlphaMaterial7ambientEv@Base 6.2.1
 _ZNK10Qt3DExtras19QPhongAlphaMaterial7diffuseEv@Base 6.2.1
 _ZNK10Qt3DExtras19QPhongAlphaMaterial8specularEv@Base 6.2.1
 _ZNK10Qt3DExtras19QPhongAlphaMaterial9shininessEv@Base 6.2.1
 _ZNK10Qt3DExtras19QSphereGeometryView10metaObjectEv@Base 6.2.1
 _ZNK10Qt3DExtras19QSphereGeometryView16generateTangentsEv@Base 6.2.1
 _ZNK10Qt3DExtras19QSphereGeometryView5ringsEv@Base 6.2.1
 _ZNK10Qt3DExtras19QSphereGeometryView6radiusEv@Base 6.2.1
 _ZNK10Qt3DExtras19QSphereGeometryView6slicesEv@Base 6.2.1
 _ZNK10Qt3DExtras20QAbstractSpriteSheet10metaObjectEv@Base 6.2.1
 _ZNK10Qt3DExtras20QAbstractSpriteSheet12currentIndexEv@Base 6.2.1
 _ZNK10Qt3DExtras20QAbstractSpriteSheet16textureTransformEv@Base 6.2.1
 _ZNK10Qt3DExtras20QAbstractSpriteSheet7textureEv@Base 6.2.1
 _ZNK10Qt3DExtras21QCylinderGeometryView10metaObjectEv@Base 6.2.1
 _ZNK10Qt3DExtras21QCylinderGeometryView5ringsEv@Base 6.2.1
 _ZNK10Qt3DExtras21QCylinderGeometryView6lengthEv@Base 6.2.1
 _ZNK10Qt3DExtras21QCylinderGeometryView6radiusEv@Base 6.2.1
 _ZNK10Qt3DExtras21QCylinderGeometryView6slicesEv@Base 6.2.1
 _ZNK10Qt3DExtras21QExtrudedTextGeometry10metaObjectEv@Base 6.2.1
 _ZNK10Qt3DExtras21QExtrudedTextGeometry14indexAttributeEv@Base 6.2.1
 _ZNK10Qt3DExtras21QExtrudedTextGeometry15extrusionLengthEv@Base 6.2.1
 _ZNK10Qt3DExtras21QExtrudedTextGeometry15normalAttributeEv@Base 6.2.1
 _ZNK10Qt3DExtras21QExtrudedTextGeometry17positionAttributeEv@Base 6.2.1
 _ZNK10Qt3DExtras21QExtrudedTextGeometry4fontEv@Base 6.2.1
 _ZNK10Qt3DExtras21QExtrudedTextGeometry4textEv@Base 6.2.1
 _ZNK10Qt3DExtras22QOrbitCameraController10metaObjectEv@Base 6.2.1
 _ZNK10Qt3DExtras22QOrbitCameraController11zoomInLimitEv@Base 6.2.1
 _ZNK10Qt3DExtras23QPerVertexColorMaterial10metaObjectEv@Base 6.2.1
 _ZNK10Qt3DExtras24QDiffuseSpecularMaterial10metaObjectEv@Base 6.2.1
 _ZNK10Qt3DExtras24QDiffuseSpecularMaterial12textureScaleEv@Base 6.2.1
 _ZNK10Qt3DExtras24QDiffuseSpecularMaterial22isAlphaBlendingEnabledEv@Base 6.2.1
 _ZNK10Qt3DExtras24QDiffuseSpecularMaterial6normalEv@Base 6.2.1
 _ZNK10Qt3DExtras24QDiffuseSpecularMaterial7ambientEv@Base 6.2.1
 _ZNK10Qt3DExtras24QDiffuseSpecularMaterial7diffuseEv@Base 6.2.1
 _ZNK10Qt3DExtras24QDiffuseSpecularMaterial8specularEv@Base 6.2.1
 _ZNK10Qt3DExtras24QDiffuseSpecularMaterial9shininessEv@Base 6.2.1
 _ZNK10Qt3DExtras25QAbstractCameraController10metaObjectEv@Base 6.2.1
 _ZNK10Qt3DExtras25QAbstractCameraController11linearSpeedEv@Base 6.2.1
 _ZNK10Qt3DExtras25QAbstractCameraController11mouseDeviceEv@Base 6.2.1
 _ZNK10Qt3DExtras25QAbstractCameraController12accelerationEv@Base 6.2.1
 _ZNK10Qt3DExtras25QAbstractCameraController12decelerationEv@Base 6.2.1
 _ZNK10Qt3DExtras25QAbstractCameraController14keyboardDeviceEv@Base 6.2.1
 _ZNK10Qt3DExtras25QAbstractCameraController6cameraEv@Base 6.2.1
 _ZNK10Qt3DExtras25QAbstractCameraController9lookSpeedEv@Base 6.2.1
 _ZNK10Qt3DExtras25QNormalDiffuseMapMaterial10metaObjectEv@Base 6.2.1
 _ZNK10Qt3DExtras25QNormalDiffuseMapMaterial12textureScaleEv@Base 6.2.1
 _ZNK10Qt3DExtras25QNormalDiffuseMapMaterial6normalEv@Base 6.2.1
 _ZNK10Qt3DExtras25QNormalDiffuseMapMaterial7ambientEv@Base 6.2.1
 _ZNK10Qt3DExtras25QNormalDiffuseMapMaterial7diffuseEv@Base 6.2.1
 _ZNK10Qt3DExtras25QNormalDiffuseMapMaterial8specularEv@Base 6.2.1
 _ZNK10Qt3DExtras25QNormalDiffuseMapMaterial9shininessEv@Base 6.2.1
 _ZNK10Qt3DExtras27QDiffuseSpecularMapMaterial10metaObjectEv@Base 6.2.1
 _ZNK10Qt3DExtras27QDiffuseSpecularMapMaterial12textureScaleEv@Base 6.2.1
 _ZNK10Qt3DExtras27QDiffuseSpecularMapMaterial7ambientEv@Base 6.2.1
 _ZNK10Qt3DExtras27QDiffuseSpecularMapMaterial7diffuseEv@Base 6.2.1
 _ZNK10Qt3DExtras27QDiffuseSpecularMapMaterial8specularEv@Base 6.2.1
 _ZNK10Qt3DExtras27QDiffuseSpecularMapMaterial9shininessEv@Base 6.2.1
 _ZNK10Qt3DExtras28QFirstPersonCameraController10metaObjectEv@Base 6.2.1
 _ZNK10Qt3DExtras30QNormalDiffuseMapAlphaMaterial10metaObjectEv@Base 6.2.1
 _ZNK10Qt3DExtras33QNormalDiffuseSpecularMapMaterial10metaObjectEv@Base 6.2.1
 _ZNK10Qt3DExtras33QNormalDiffuseSpecularMapMaterial12textureScaleEv@Base 6.2.1
 _ZNK10Qt3DExtras33QNormalDiffuseSpecularMapMaterial6normalEv@Base 6.2.1
 _ZNK10Qt3DExtras33QNormalDiffuseSpecularMapMaterial7ambientEv@Base 6.2.1
 _ZNK10Qt3DExtras33QNormalDiffuseSpecularMapMaterial7diffuseEv@Base 6.2.1
 _ZNK10Qt3DExtras33QNormalDiffuseSpecularMapMaterial8specularEv@Base 6.2.1
 _ZNK10Qt3DExtras33QNormalDiffuseSpecularMapMaterial9shininessEv@Base 6.2.1
 _ZNK10Qt3DExtras9QConeMesh10metaObjectEv@Base 6.2.1
 _ZNK10Qt3DExtras9QConeMesh12bottomRadiusEv@Base 6.2.1
 _ZNK10Qt3DExtras9QConeMesh12hasTopEndcapEv@Base 6.2.1
 _ZNK10Qt3DExtras9QConeMesh15hasBottomEndcapEv@Base 6.2.1
 _ZNK10Qt3DExtras9QConeMesh5ringsEv@Base 6.2.1
 _ZNK10Qt3DExtras9QConeMesh6lengthEv@Base 6.2.1
 _ZNK10Qt3DExtras9QConeMesh6slicesEv@Base 6.2.1
 _ZNK10Qt3DExtras9QConeMesh9topRadiusEv@Base 6.2.1
 (optional=templinst)_ZNSt6vectorIfSaIfEE17_M_realloc_insertIJfEEEvN9__gnu_cxx17__normal_iteratorIPfS1_EEDpOT_@Base 6.2.1
 (optional=templinst)_ZNSt6vectorIjSaIjEE12emplace_backIJjEEERjDpOT_@Base 6.2.1
 (optional=templinst|subst)_ZNSt6vectorIjSaIjEE17_M_default_appendE{size_t}@Base 6.2.1
 (optional=templinst)_ZNSt6vectorIjSaIjEE17_M_realloc_insertIJRKjEEEvN9__gnu_cxx17__normal_iteratorIPjS1_EEDpOT_@Base 6.2.1
 (optional=templinst)_ZNSt6vectorItSaItEE17_M_realloc_insertIJtEEEvN9__gnu_cxx17__normal_iteratorIPtS1_EEDpOT_@Base 6.2.1
 _ZTIN10Qt3DExtras10QPlaneMeshE@Base 6.2.1
 _ZTIN10Qt3DExtras10QTorusMeshE@Base 6.2.1
 _ZTIN10Qt3DExtras10Qt3DWindowE@Base 6.2.1
 _ZTIN10Qt3DExtras11QCuboidMeshE@Base 6.2.1
 _ZTIN10Qt3DExtras11QSphereMeshE@Base 6.2.1
 _ZTIN10Qt3DExtras11QSpriteGridE@Base 6.2.1
 _ZTIN10Qt3DExtras12QSpriteSheetE@Base 6.2.1
 _ZTIN10Qt3DExtras13QConeGeometryE@Base 6.2.1
 _ZTIN10Qt3DExtras13QCylinderMeshE@Base 6.2.1
 _ZTIN10Qt3DExtras13QSkyboxEntityE@Base 6.2.1
 _ZTIN10Qt3DExtras13QText2DEntityE@Base 6.2.1
 _ZTIN10Qt3DExtras14QGoochMaterialE@Base 6.2.1
 _ZTIN10Qt3DExtras14QPhongMaterialE@Base 6.2.1
 _ZTIN10Qt3DExtras14QPlaneGeometryE@Base 6.2.1
 _ZTIN10Qt3DExtras14QTorusGeometryE@Base 6.2.1
 _ZTIN10Qt3DExtras15QCuboidGeometryE@Base 6.2.1
 _ZTIN10Qt3DExtras15QSphereGeometryE@Base 6.2.1
 _ZTIN10Qt3DExtras16QForwardRendererE@Base 6.2.1
 _ZTIN10Qt3DExtras16QSpriteSheetItemE@Base 6.2.1
 _ZTIN10Qt3DExtras16QTextureMaterialE@Base 6.2.1
 _ZTIN10Qt3DExtras17QConeGeometryViewE@Base 6.2.1
 _ZTIN10Qt3DExtras17QCylinderGeometryE@Base 6.2.1
 _ZTIN10Qt3DExtras17QExtrudedTextMeshE@Base 6.2.1
 _ZTIN10Qt3DExtras18QPlaneGeometryViewE@Base 6.2.1
 _ZTIN10Qt3DExtras18QTorusGeometryViewE@Base 6.2.1
 _ZTIN10Qt3DExtras19QCuboidGeometryViewE@Base 6.2.1
 _ZTIN10Qt3DExtras19QDiffuseMapMaterialE@Base 6.2.1
 _ZTIN10Qt3DExtras19QMetalRoughMaterialE@Base 6.2.1
 _ZTIN10Qt3DExtras19QMorphPhongMaterialE@Base 6.2.1
 _ZTIN10Qt3DExtras19QPhongAlphaMaterialE@Base 6.2.1
 _ZTIN10Qt3DExtras19QSphereGeometryViewE@Base 6.2.1
 _ZTIN10Qt3DExtras20QAbstractSpriteSheetE@Base 6.2.1
 _ZTIN10Qt3DExtras21QCylinderGeometryViewE@Base 6.2.1
 _ZTIN10Qt3DExtras21QExtrudedTextGeometryE@Base 6.2.1
 _ZTIN10Qt3DExtras22QOrbitCameraControllerE@Base 6.2.1
 _ZTIN10Qt3DExtras23QPerVertexColorMaterialE@Base 6.2.1
 _ZTIN10Qt3DExtras24QDiffuseSpecularMaterialE@Base 6.2.1
 _ZTIN10Qt3DExtras25QAbstractCameraControllerE@Base 6.2.1
 _ZTIN10Qt3DExtras25QNormalDiffuseMapMaterialE@Base 6.2.1
 _ZTIN10Qt3DExtras27QDiffuseSpecularMapMaterialE@Base 6.2.1
 _ZTIN10Qt3DExtras28QFirstPersonCameraControllerE@Base 6.2.1
 _ZTIN10Qt3DExtras30QNormalDiffuseMapAlphaMaterialE@Base 6.2.1
 _ZTIN10Qt3DExtras33QNormalDiffuseSpecularMapMaterialE@Base 6.2.1
 _ZTIN10Qt3DExtras9QConeMeshE@Base 6.2.1
 _ZTIN10Qt3DRender22QFrameGraphNodePrivateE@Base 6.2.1
 _ZTIN10Qt3DRender23QAbstractTexturePrivateE@Base 6.2.1
 _ZTIN10Qt3DRender23QTechniqueFilterPrivateE@Base 6.2.1
 _ZTIZN9QMetaType17registerConverterI5QListIPN10Qt3DExtras16QSpriteSheetItemEE9QIterableI13QMetaSequenceEN9QtPrivate33QSequentialIterableConvertFunctorIS5_EEEEbT1_EUlPKvPvE_@Base 6.2.1
 _ZTIZN9QMetaType19registerMutableViewI5QListIPN10Qt3DExtras16QSpriteSheetItemEE9QIterableI13QMetaSequenceEN9QtPrivate37QSequentialIterableMutableViewFunctorIS5_EEEEbT1_EUlPvSD_E_@Base 6.2.1
 _ZTSN10Qt3DExtras10QPlaneMeshE@Base 6.2.1
 _ZTSN10Qt3DExtras10QTorusMeshE@Base 6.2.1
 _ZTSN10Qt3DExtras10Qt3DWindowE@Base 6.2.1
 _ZTSN10Qt3DExtras11QCuboidMeshE@Base 6.2.1
 _ZTSN10Qt3DExtras11QSphereMeshE@Base 6.2.1
 _ZTSN10Qt3DExtras11QSpriteGridE@Base 6.2.1
 _ZTSN10Qt3DExtras12QSpriteSheetE@Base 6.2.1
 _ZTSN10Qt3DExtras13QConeGeometryE@Base 6.2.1
 _ZTSN10Qt3DExtras13QCylinderMeshE@Base 6.2.1
 _ZTSN10Qt3DExtras13QSkyboxEntityE@Base 6.2.1
 _ZTSN10Qt3DExtras13QText2DEntityE@Base 6.2.1
 _ZTSN10Qt3DExtras14QGoochMaterialE@Base 6.2.1
 _ZTSN10Qt3DExtras14QPhongMaterialE@Base 6.2.1
 _ZTSN10Qt3DExtras14QPlaneGeometryE@Base 6.2.1
 _ZTSN10Qt3DExtras14QTorusGeometryE@Base 6.2.1
 _ZTSN10Qt3DExtras15QCuboidGeometryE@Base 6.2.1
 _ZTSN10Qt3DExtras15QSphereGeometryE@Base 6.2.1
 _ZTSN10Qt3DExtras16QForwardRendererE@Base 6.2.1
 _ZTSN10Qt3DExtras16QSpriteSheetItemE@Base 6.2.1
 _ZTSN10Qt3DExtras16QTextureMaterialE@Base 6.2.1
 _ZTSN10Qt3DExtras17QConeGeometryViewE@Base 6.2.1
 _ZTSN10Qt3DExtras17QCylinderGeometryE@Base 6.2.1
 _ZTSN10Qt3DExtras17QExtrudedTextMeshE@Base 6.2.1
 _ZTSN10Qt3DExtras18QPlaneGeometryViewE@Base 6.2.1
 _ZTSN10Qt3DExtras18QTorusGeometryViewE@Base 6.2.1
 _ZTSN10Qt3DExtras19QCuboidGeometryViewE@Base 6.2.1
 _ZTSN10Qt3DExtras19QDiffuseMapMaterialE@Base 6.2.1
 _ZTSN10Qt3DExtras19QMetalRoughMaterialE@Base 6.2.1
 _ZTSN10Qt3DExtras19QMorphPhongMaterialE@Base 6.2.1
 _ZTSN10Qt3DExtras19QPhongAlphaMaterialE@Base 6.2.1
 _ZTSN10Qt3DExtras19QSphereGeometryViewE@Base 6.2.1
 _ZTSN10Qt3DExtras20QAbstractSpriteSheetE@Base 6.2.1
 _ZTSN10Qt3DExtras21QCylinderGeometryViewE@Base 6.2.1
 _ZTSN10Qt3DExtras21QExtrudedTextGeometryE@Base 6.2.1
 _ZTSN10Qt3DExtras22QOrbitCameraControllerE@Base 6.2.1
 _ZTSN10Qt3DExtras23QPerVertexColorMaterialE@Base 6.2.1
 _ZTSN10Qt3DExtras24QDiffuseSpecularMaterialE@Base 6.2.1
 _ZTSN10Qt3DExtras25QAbstractCameraControllerE@Base 6.2.1
 _ZTSN10Qt3DExtras25QNormalDiffuseMapMaterialE@Base 6.2.1
 _ZTSN10Qt3DExtras27QDiffuseSpecularMapMaterialE@Base 6.2.1
 _ZTSN10Qt3DExtras28QFirstPersonCameraControllerE@Base 6.2.1
 _ZTSN10Qt3DExtras30QNormalDiffuseMapAlphaMaterialE@Base 6.2.1
 _ZTSN10Qt3DExtras33QNormalDiffuseSpecularMapMaterialE@Base 6.2.1
 _ZTSN10Qt3DExtras9QConeMeshE@Base 6.2.1
 _ZTSN10Qt3DRender22QFrameGraphNodePrivateE@Base 6.2.1
 _ZTSN10Qt3DRender23QAbstractTexturePrivateE@Base 6.2.1
 _ZTSN10Qt3DRender23QTechniqueFilterPrivateE@Base 6.2.1
 _ZTSZN9QMetaType17registerConverterI5QListIPN10Qt3DExtras16QSpriteSheetItemEE9QIterableI13QMetaSequenceEN9QtPrivate33QSequentialIterableConvertFunctorIS5_EEEEbT1_EUlPKvPvE_@Base 6.2.1
 _ZTSZN9QMetaType19registerMutableViewI5QListIPN10Qt3DExtras16QSpriteSheetItemEE9QIterableI13QMetaSequenceEN9QtPrivate37QSequentialIterableMutableViewFunctorIS5_EEEEbT1_EUlPvSD_E_@Base 6.2.1
 _ZTVN10Qt3DExtras10QPlaneMeshE@Base 6.2.1
 _ZTVN10Qt3DExtras10QTorusMeshE@Base 6.2.1
 _ZTVN10Qt3DExtras10Qt3DWindowE@Base 6.2.1
 _ZTVN10Qt3DExtras11QCuboidMeshE@Base 6.2.1
 _ZTVN10Qt3DExtras11QSphereMeshE@Base 6.2.1
 _ZTVN10Qt3DExtras11QSpriteGridE@Base 6.2.1
 _ZTVN10Qt3DExtras12QSpriteSheetE@Base 6.2.1
 _ZTVN10Qt3DExtras13QConeGeometryE@Base 6.2.1
 _ZTVN10Qt3DExtras13QCylinderMeshE@Base 6.2.1
 _ZTVN10Qt3DExtras13QSkyboxEntityE@Base 6.2.1
 _ZTVN10Qt3DExtras13QText2DEntityE@Base 6.2.1
 _ZTVN10Qt3DExtras14QGoochMaterialE@Base 6.2.1
 _ZTVN10Qt3DExtras14QPhongMaterialE@Base 6.2.1
 _ZTVN10Qt3DExtras14QPlaneGeometryE@Base 6.2.1
 _ZTVN10Qt3DExtras14QTorusGeometryE@Base 6.2.1
 _ZTVN10Qt3DExtras15QCuboidGeometryE@Base 6.2.1
 _ZTVN10Qt3DExtras15QSphereGeometryE@Base 6.2.1
 _ZTVN10Qt3DExtras16QForwardRendererE@Base 6.2.1
 _ZTVN10Qt3DExtras16QSpriteSheetItemE@Base 6.2.1
 _ZTVN10Qt3DExtras16QTextureMaterialE@Base 6.2.1
 _ZTVN10Qt3DExtras17QConeGeometryViewE@Base 6.2.1
 _ZTVN10Qt3DExtras17QCylinderGeometryE@Base 6.2.1
 _ZTVN10Qt3DExtras17QExtrudedTextMeshE@Base 6.2.1
 _ZTVN10Qt3DExtras18QPlaneGeometryViewE@Base 6.2.1
 _ZTVN10Qt3DExtras18QTorusGeometryViewE@Base 6.2.1
 _ZTVN10Qt3DExtras19QCuboidGeometryViewE@Base 6.2.1
 _ZTVN10Qt3DExtras19QDiffuseMapMaterialE@Base 6.2.1
 _ZTVN10Qt3DExtras19QMetalRoughMaterialE@Base 6.2.1
 _ZTVN10Qt3DExtras19QMorphPhongMaterialE@Base 6.2.1
 _ZTVN10Qt3DExtras19QPhongAlphaMaterialE@Base 6.2.1
 _ZTVN10Qt3DExtras19QSphereGeometryViewE@Base 6.2.1
 _ZTVN10Qt3DExtras20QAbstractSpriteSheetE@Base 6.2.1
 _ZTVN10Qt3DExtras21QCylinderGeometryViewE@Base 6.2.1
 _ZTVN10Qt3DExtras21QExtrudedTextGeometryE@Base 6.2.1
 _ZTVN10Qt3DExtras22QOrbitCameraControllerE@Base 6.2.1
 _ZTVN10Qt3DExtras23QPerVertexColorMaterialE@Base 6.2.1
 _ZTVN10Qt3DExtras24QDiffuseSpecularMaterialE@Base 6.2.1
 _ZTVN10Qt3DExtras25QAbstractCameraControllerE@Base 6.2.1
 _ZTVN10Qt3DExtras25QNormalDiffuseMapMaterialE@Base 6.2.1
 _ZTVN10Qt3DExtras27QDiffuseSpecularMapMaterialE@Base 6.2.1
 _ZTVN10Qt3DExtras28QFirstPersonCameraControllerE@Base 6.2.1
 _ZTVN10Qt3DExtras30QNormalDiffuseMapAlphaMaterialE@Base 6.2.1
 _ZTVN10Qt3DExtras33QNormalDiffuseSpecularMapMaterialE@Base 6.2.1
 _ZTVN10Qt3DExtras9QConeMeshE@Base 6.2.1
 _ZTVN10Qt3DRender22QFrameGraphNodePrivateE@Base 6.2.1
 _ZTVN10Qt3DRender23QAbstractTexturePrivateE@Base 6.2.1
 _ZTVN10Qt3DRender23QTechniqueFilterPrivateE@Base 6.2.1
 (optional=templinst)_ZZN9QMetaType21registerConverterImplI5QListIPN10Qt3DExtras16QSpriteSheetItemEE9QIterableI13QMetaSequenceEEEbSt8functionIFbPKvPvEES_S_E10unregister@Base 6.2.1
 (optional=templinst)_ZZN9QMetaType23registerMutableViewImplI5QListIPN10Qt3DExtras16QSpriteSheetItemEE9QIterableI13QMetaSequenceEEEbSt8functionIFbPvSA_EES_S_E10unregister@Base 6.2.1
 (optional=templinst)_ZZN9QtPrivate16QMetaTypeForTypeI5QSizeE10getCopyCtrEvENUlPKNS_18QMetaTypeInterfaceEPvPKvE_4_FUNES5_S6_S8_@Base 6.2.1
 (optional=templinst)_ZZN9QtPrivate16QMetaTypeForTypeI5QSizeE10getMoveCtrEvENUlPKNS_18QMetaTypeInterfaceEPvS6_E_4_FUNES5_S6_S6_@Base 6.2.1
 (optional=templinst)_ZZN9QtPrivate16QMetaTypeForTypeI5QSizeE13getDefaultCtrEvENUlPKNS_18QMetaTypeInterfaceEPvE_4_FUNES5_S6_@Base 6.2.1
 (optional=templinst)_ZZN9QtPrivate16QMetaTypeForTypeI6QRectFE10getCopyCtrEvENUlPKNS_18QMetaTypeInterfaceEPvPKvE_4_FUNES5_S6_S8_@Base 6.2.1
 (optional=templinst)_ZZN9QtPrivate16QMetaTypeForTypeI6QRectFE10getMoveCtrEvENUlPKNS_18QMetaTypeInterfaceEPvS6_E_4_FUNES5_S6_S6_@Base 6.2.1
 (optional=templinst)_ZZN9QtPrivate16QMetaTypeForTypeI6QRectFE13getDefaultCtrEvENUlPKNS_18QMetaTypeInterfaceEPvE_4_FUNES5_S6_@Base 6.2.1
 (optional=templinst)_ZZN9QtPrivate16QMetaTypeForTypeI7QStringE10getCopyCtrEvENUlPKNS_18QMetaTypeInterfaceEPvPKvE_4_FUNES5_S6_S8_@Base 6.2.1
 (optional=templinst)_ZZN9QtPrivate16QMetaTypeForTypeI7QStringE10getMoveCtrEvENUlPKNS_18QMetaTypeInterfaceEPvS6_E_4_FUNES5_S6_S6_@Base 6.2.1
 (optional=templinst)_ZZN9QtPrivate16QMetaTypeForTypeI7QStringE13getDefaultCtrEvENUlPKNS_18QMetaTypeInterfaceEPvE_4_FUNES5_S6_@Base 6.2.1
 (optional=templinst)_ZZN9QtPrivate16QMetaTypeForTypeI7QStringE7getDtorEvENUlPKNS_18QMetaTypeInterfaceEPvE_4_FUNES5_S6_@Base 6.2.1
 (optional=templinst)_ZZN9QtPrivate16QMetaTypeForTypeI8QVariantE10getCopyCtrEvENUlPKNS_18QMetaTypeInterfaceEPvPKvE_4_FUNES5_S6_S8_@Base 6.2.1
 (optional=templinst)_ZZN9QtPrivate16QMetaTypeForTypeI8QVariantE10getMoveCtrEvENUlPKNS_18QMetaTypeInterfaceEPvS6_E_4_FUNES5_S6_S6_@Base 6.2.1
 (optional=templinst)_ZZN9QtPrivate16QMetaTypeForTypeI8QVariantE13getDefaultCtrEvENUlPKNS_18QMetaTypeInterfaceEPvE_4_FUNES5_S6_@Base 6.2.1
 (optional=templinst)_ZZN9QtPrivate16QMetaTypeForTypeI8QVariantE7getDtorEvENUlPKNS_18QMetaTypeInterfaceEPvE_4_FUNES5_S6_@Base 6.2.1
 (optional=templinst)_ZZN9QtPrivate16QMetaTypeForTypeIP7QObjectE10getCopyCtrEvENUlPKNS_18QMetaTypeInterfaceEPvPKvE_4_FUNES6_S7_S9_@Base 6.2.1
 (optional=templinst)_ZZN9QtPrivate16QMetaTypeForTypeIP7QObjectE10getMoveCtrEvENUlPKNS_18QMetaTypeInterfaceEPvS7_E_4_FUNES6_S7_S7_@Base 6.2.1
 (optional=templinst)_ZZN9QtPrivate16QMetaTypeForTypeIP7QObjectE13getDefaultCtrEvENUlPKNS_18QMetaTypeInterfaceEPvE_4_FUNES6_S7_@Base 6.2.1
 (optional=templinst)_ZZN9QtPrivate16QMetaTypeForTypeIbE10getCopyCtrEvENUlPKNS_18QMetaTypeInterfaceEPvPKvE_4_FUNES4_S5_S7_@Base 6.2.1
 (optional=templinst)_ZZN9QtPrivate16QMetaTypeForTypeIbE10getMoveCtrEvENUlPKNS_18QMetaTypeInterfaceEPvS5_E_4_FUNES4_S5_S5_@Base 6.2.1
 (optional=templinst)_ZZN9QtPrivate16QMetaTypeForTypeIbE13getDefaultCtrEvENUlPKNS_18QMetaTypeInterfaceEPvE_4_FUNES4_S5_@Base 6.2.1
 (optional=templinst)_ZZN9QtPrivate16QMetaTypeForTypeIfE10getCopyCtrEvENUlPKNS_18QMetaTypeInterfaceEPvPKvE_4_FUNES4_S5_S7_@Base 6.2.1
 (optional=templinst)_ZZN9QtPrivate16QMetaTypeForTypeIfE10getMoveCtrEvENUlPKNS_18QMetaTypeInterfaceEPvS5_E_4_FUNES4_S5_S5_@Base 6.2.1
 (optional=templinst)_ZZN9QtPrivate16QMetaTypeForTypeIfE13getDefaultCtrEvENUlPKNS_18QMetaTypeInterfaceEPvE_4_FUNES4_S5_@Base 6.2.1
 (optional=templinst)_ZZN9QtPrivate16QMetaTypeForTypeIiE10getCopyCtrEvENUlPKNS_18QMetaTypeInterfaceEPvPKvE_4_FUNES4_S5_S7_@Base 6.2.1
 (optional=templinst)_ZZN9QtPrivate16QMetaTypeForTypeIiE10getMoveCtrEvENUlPKNS_18QMetaTypeInterfaceEPvS5_E_4_FUNES4_S5_S5_@Base 6.2.1
 (optional=templinst)_ZZN9QtPrivate16QMetaTypeForTypeIiE13getDefaultCtrEvENUlPKNS_18QMetaTypeInterfaceEPvE_4_FUNES4_S5_@Base 6.2.1
 (c++)"non-virtual thunk to Qt3DExtras::Qt3DWindow::~Qt3DWindow()@Base" 6.2.1
