# SymbolsHelper-Confirmed: 6.4.0 amd64
libQt63DQuickScene2D.so.6 libqt63dquickscene2d6 #MINVER#
* Build-Depends-Package: qt6-3d-dev
 _ZN10Qt3DRender5Quick19Scene2DSharedObject11requestQuitEv@Base 6.2.1
 _ZN10Qt3DRender5Quick19Scene2DSharedObject11setPreparedEv@Base 6.2.1
 _ZN10Qt3DRender5Quick19Scene2DSharedObject13requestRenderEb@Base 6.2.1
 _ZN10Qt3DRender5Quick19Scene2DSharedObject14disallowRenderEv@Base 6.2.1
 _ZN10Qt3DRender5Quick19Scene2DSharedObject14setInitializedEv@Base 6.2.1
 _ZN10Qt3DRender5Quick19Scene2DSharedObject16clearSyncRequestEv@Base 6.2.1
 _ZN10Qt3DRender5Quick19Scene2DSharedObject4waitEv@Base 6.2.1
 _ZN10Qt3DRender5Quick19Scene2DSharedObject4wakeEv@Base 6.2.1
 _ZN10Qt3DRender5Quick19Scene2DSharedObject7cleanupEv@Base 6.2.1
 _ZN10Qt3DRender5Quick19Scene2DSharedObjectC1EPNS0_14Scene2DManagerE@Base 6.2.1
 _ZN10Qt3DRender5Quick19Scene2DSharedObjectC2EPNS0_14Scene2DManagerE@Base 6.2.1
 _ZN10Qt3DRender5Quick19Scene2DSharedObjectD1Ev@Base 6.2.1
 _ZN10Qt3DRender5Quick19Scene2DSharedObjectD2Ev@Base 6.2.1
 _ZN10Qt3DRender5Quick25Quick3DScene2D_initializeEv@Base 6.2.1
 _ZN10Qt3DRender5Quick27Quick3DScene2D_registerTypeEPKcS2_ii@Base 6.2.1
 _ZN10Qt3DRender5Quick8QScene2D11itemChangedEP10QQuickItem@Base 6.2.1
 _ZN10Qt3DRender5Quick8QScene2D11qt_metacallEN11QMetaObject4CallEiPPv@Base 6.2.1
 _ZN10Qt3DRender5Quick8QScene2D11qt_metacastEPKc@Base 6.2.1
 _ZN10Qt3DRender5Quick8QScene2D12removeEntityEPN8Qt3DCore7QEntityE@Base 6.2.1
 _ZN10Qt3DRender5Quick8QScene2D13outputChangedEPNS_19QRenderTargetOutputE@Base 6.2.1
 _ZN10Qt3DRender5Quick8QScene2D15setMouseEnabledEb@Base 6.2.1
 _ZN10Qt3DRender5Quick8QScene2D15setRenderPolicyENS1_12RenderPolicyE@Base 6.2.1
 _ZN10Qt3DRender5Quick8QScene2D16staticMetaObjectE@Base 6.2.1
 _ZN10Qt3DRender5Quick8QScene2D19mouseEnabledChangedEb@Base 6.2.1
 _ZN10Qt3DRender5Quick8QScene2D19renderPolicyChangedENS1_12RenderPolicyE@Base 6.2.1
 _ZN10Qt3DRender5Quick8QScene2D7setItemEP10QQuickItem@Base 6.2.1
 _ZN10Qt3DRender5Quick8QScene2D9addEntityEPN8Qt3DCore7QEntityE@Base 6.2.1
 _ZN10Qt3DRender5Quick8QScene2D9setOutputEPNS_19QRenderTargetOutputE@Base 6.2.1
 _ZN10Qt3DRender5Quick8QScene2DC1EPN8Qt3DCore5QNodeE@Base 6.2.1
 _ZN10Qt3DRender5Quick8QScene2DC2EPN8Qt3DCore5QNodeE@Base 6.2.1
 _ZN10Qt3DRender6Render5Quick15QQuick3DScene2D11qt_metacallEN11QMetaObject4CallEiPPv@Base 6.2.1
 _ZN10Qt3DRender6Render5Quick15QQuick3DScene2D11qt_metacastEPKc@Base 6.2.1
 _ZN10Qt3DRender6Render5Quick15QQuick3DScene2D16staticMetaObjectE@Base 6.2.1
 _ZN10Qt3DRender6Render5Quick15QQuick3DScene2D8entitiesEv@Base 6.2.1
 _ZN10Qt3DRender6Render5Quick15QQuick3DScene2DC1EP7QObject@Base 6.2.1
 _ZN10Qt3DRender6Render5Quick15QQuick3DScene2DC2EP7QObject@Base 6.2.1
 _ZN10Qt3DRender6Render5Quick7Scene2D15handlePickEventEiPKNS_10QPickEventE@Base 6.2.1
 _ZN10Qt3DRender6Render5Quick7Scene2D15setSharedObjectE14QSharedPointerINS_5Quick19Scene2DSharedObjectEE@Base 6.2.1
 _ZN10Qt3DRender6Render5Quick7Scene2D16initializeRenderEv@Base 6.2.1
 _ZN10Qt3DRender6Render5Quick7Scene2D16syncFromFrontEndEPKN8Qt3DCore5QNodeEb@Base 6.2.1
 _ZN10Qt3DRender6Render5Quick7Scene2D17syncRenderControlEv@Base 6.2.1
 _ZN10Qt3DRender6Render5Quick7Scene2D22initializeSharedObjectEv@Base 6.2.1
 _ZN10Qt3DRender6Render5Quick7Scene2D26registerObjectPickerEventsEPN8Qt3DCore7QEntityE@Base 6.2.1
 _ZN10Qt3DRender6Render5Quick7Scene2D28unregisterObjectPickerEventsEN8Qt3DCore7QNodeIdE@Base 6.2.1
 _ZN10Qt3DRender6Render5Quick7Scene2D6renderEv@Base 6.2.1
 _ZN10Qt3DRender6Render5Quick7Scene2D7cleanupEv@Base 6.2.1
 _ZN10Qt3DRender6Render5Quick7Scene2D9setOutputEN8Qt3DCore7QNodeIdE@Base 6.2.1
 _ZN10Qt3DRender6Render5Quick7Scene2D9updateFboEP14QOpenGLTexture@Base 6.2.1
 _ZN10Qt3DRender6Render5Quick7Scene2DC1Ev@Base 6.2.1
 _ZN10Qt3DRender6Render5Quick7Scene2DC2Ev@Base 6.2.1
 _ZN10Qt3DRender6Render5Quick7Scene2DD0Ev@Base 6.2.1
 _ZN10Qt3DRender6Render5Quick7Scene2DD1Ev@Base 6.2.1
 _ZN10Qt3DRender6Render5Quick7Scene2DD2Ev@Base 6.2.1
 _ZNK10Qt3DRender5Quick19Scene2DSharedObject10isPreparedEv@Base 6.2.1
 _ZNK10Qt3DRender5Quick19Scene2DSharedObject13isInitializedEv@Base 6.2.1
 _ZNK10Qt3DRender5Quick19Scene2DSharedObject15isSyncRequestedEv@Base 6.2.1
 _ZNK10Qt3DRender5Quick19Scene2DSharedObject6isQuitEv@Base 6.2.1
 _ZNK10Qt3DRender5Quick19Scene2DSharedObject9canRenderEv@Base 6.2.1
 _ZNK10Qt3DRender5Quick8QScene2D10metaObjectEv@Base 6.2.1
 _ZNK10Qt3DRender5Quick8QScene2D12renderPolicyEv@Base 6.2.1
 _ZNK10Qt3DRender5Quick8QScene2D14isMouseEnabledEv@Base 6.2.1
 _ZNK10Qt3DRender5Quick8QScene2D4itemEv@Base 6.2.1
 _ZNK10Qt3DRender5Quick8QScene2D6outputEv@Base 6.2.1
 _ZNK10Qt3DRender5Quick8QScene2D8entitiesEv@Base 6.2.1
 _ZNK10Qt3DRender6Render5Quick15QQuick3DScene2D10metaObjectEv@Base 6.2.1
 _ZTIN10Qt3DRender5Quick8QScene2DE@Base 6.2.1
 _ZTIN10Qt3DRender6Render5Quick15QQuick3DScene2DE@Base 6.2.1
 _ZTIN10Qt3DRender6Render5Quick7Scene2DE@Base 6.2.1
 _ZTSN10Qt3DRender5Quick8QScene2DE@Base 6.2.1
 _ZTSN10Qt3DRender6Render5Quick15QQuick3DScene2DE@Base 6.2.1
 _ZTSN10Qt3DRender6Render5Quick7Scene2DE@Base 6.2.1
 _ZTVN10Qt3DRender5Quick8QScene2DE@Base 6.2.1
 _ZTVN10Qt3DRender6Render5Quick15QQuick3DScene2DE@Base 6.2.1
 _ZTVN10Qt3DRender6Render5Quick7Scene2DE@Base 6.2.1
